 node-librdkafka

 Timestamp is 5a1e8779 (Wed Nov 29 18:10:01 2017)

 Preferred load address is 0000000180000000

 Start         Length     Name                   Class
 0001:00000000 00000374H .text$di                CODE
 0001:00000380 00030640H .text$mn                CODE
 0001:000309c0 000005c9H .text$x                 CODE
 0001:00030f90 000001bcH .text$yd                CODE
 0002:00000000 000002e8H .idata$5                DATA
 0002:000002e8 00000008H .CRT$XCA                DATA
 0002:000002f0 00000058H .CRT$XCC                DATA
 0002:00000348 00000010H .CRT$XCL                DATA
 0002:00000358 000000c0H .CRT$XCU                DATA
 0002:00000418 00000008H .CRT$XCZ                DATA
 0002:00000420 00000008H .CRT$XIA                DATA
 0002:00000428 00000020H .CRT$XIC                DATA
 0002:00000448 00000008H .CRT$XIZ                DATA
 0002:00000450 00000008H .CRT$XPA                DATA
 0002:00000458 00000010H .CRT$XPX                DATA
 0002:00000468 00000008H .CRT$XPXA               DATA
 0002:00000470 00000008H .CRT$XPZ                DATA
 0002:00000478 00000008H .CRT$XTA                DATA
 0002:00000480 00000008H .CRT$XTZ                DATA
 0002:00000490 0000aa40H .rdata                  DATA
 0002:0000aed0 00000088H .rdata$debug            DATA
 0002:0000af58 00001f34H .rdata$r                DATA
 0002:0000ce90 00000008H .rtc$IAA                DATA
 0002:0000ce98 00000008H .rtc$IZZ                DATA
 0002:0000cea0 00000008H .rtc$TAA                DATA
 0002:0000cea8 00000008H .rtc$TZZ                DATA
 0002:0000ceb0 00003174H .xdata                  DATA
 0002:00010028 000002ccH .xdata$x                DATA
 0002:000102f4 00000020H .didat$2                DATA
 0002:00010314 00000020H .didat$3                DATA
 0002:00010338 000002f0H .didat$4                DATA
 0002:00010628 00001536H .didat$6                DATA
 0002:00011b60 000002f0H .didat$7                DATA
 0002:00011e50 00000058H .edata                  DATA
 0002:00011ea8 00000028H .idata$2                DATA
 0002:00011ed0 00000014H .idata$3                DATA
 0002:00011ee8 000002e8H .idata$4                DATA
 0002:000121d0 00000a62H .idata$6                DATA
 0003:00000000 00001c88H .data                   DATA
 0003:00001c90 00000d47H .data$r                 DATA
 0003:000029d8 000002f0H .didat$5                DATA
 0003:00002ce0 00002b28H .bss                    DATA
 0004:00000000 00002c88H .pdata                  DATA
 0005:00000000 00000058H .rsrc$01                DATA
 0005:00000060 00000180H .rsrc$02                DATA

  Address         Publics by Value              Rva+Base               Lib:Object

 0000:00000000       __guard_fids_count         0000000000000000     <absolute>
 0000:00000000       ___safe_se_handler_table   0000000000000000     <absolute>
 0000:00000000       ___safe_se_handler_count   0000000000000000     <absolute>
 0000:00000000       __guard_fids_table         0000000000000000     <absolute>
 0000:00000000       __guard_flags              0000000000000000     <absolute>
 0000:00000000       __ImageBase                0000000180000000     <linker-defined>
 0001:00000430       ?New@?$Factory@VFunctionTemplate@v8@@@imp@Nan@@SA?AV?$Local@VFunctionTemplate@v8@@@v8@@P6AXAEBV?$FunctionCallbackInfo@VValue@v8@@@3@@ZV?$Local@VValue@v8@@@5@V?$Local@VSignature@v8@@@5@@Z 0000000180001430 f i binding.obj
 0001:00000630       ?NodeRdKafkaErr2Str@@YAXAEBV?$FunctionCallbackInfo@VValue@v8@@@Nan@@@Z 0000000180001630 f   binding.obj
 0001:000007e0       ?NodeRdKafkaBuildInFeatures@@YAXAEBV?$FunctionCallbackInfo@VValue@v8@@@Nan@@@Z 00000001800017e0 f   binding.obj
 0001:000009e0       ?ConstantsInit@@YAXV?$Local@VObject@v8@@@v8@@@Z 00000001800019e0 f   binding.obj
 0001:00002450       ?Init@@YAXV?$Local@VObject@v8@@@v8@@0@Z 0000000180003450 f   binding.obj
 0001:00002580       ??0?$basic_string@DU?$char_traits@D@std@@V?$allocator@D@2@@std@@QEAA@PEBD@Z 0000000180003580 f i binding.obj
 0001:000025c0       ??1?$basic_string@DU?$char_traits@D@std@@V?$allocator@D@2@@std@@QEAA@XZ 00000001800035c0 f i binding.obj
 0001:00002600       ?assign@?$basic_string@DU?$char_traits@D@std@@V?$allocator@D@2@@std@@QEAAAEAV12@AEBV12@_K1@Z 0000000180003600 f i binding.obj
 0001:00002730       ?assign@?$basic_string@DU?$char_traits@D@std@@V?$allocator@D@2@@std@@QEAAAEAV12@PEBD_K@Z 0000000180003730 f i binding.obj
 0001:00002870       ?erase@?$basic_string@DU?$char_traits@D@std@@V?$allocator@D@2@@std@@QEAAAEAV12@_K0@Z 0000000180003870 f i binding.obj
 0001:00002940       ?_Grow@?$basic_string@DU?$char_traits@D@std@@V?$allocator@D@2@@std@@QEAA_N_K_N@Z 0000000180003940 f i binding.obj
 0001:00002a10       ?_Copy@?$basic_string@DU?$char_traits@D@std@@V?$allocator@D@2@@std@@QEAAX_K0@Z 0000000180003a10 f i binding.obj
 0001:00002b00       ?Call@Callback@Nan@@QEBA?AV?$Local@VValue@v8@@@v8@@HQEAV34@@Z 0000000180003b00 f i callbacks.obj
 0001:00002c00       ?AsyncMessage_@Dispatcher@Callbacks@NodeKafka@@CAXPEAUuv_async_s@@@Z 0000000180003c00 f i callbacks.obj
 0001:00002c10       ??0rebalance_event_t@Callbacks@NodeKafka@@QEAA@W4ErrorCode@RdKafka@@V?$vector@PEAVTopicPartition@RdKafka@@V?$allocator@PEAVTopicPartition@RdKafka@@@std@@@std@@@Z 0000000180003c10 f i callbacks.obj
 0001:00002e80       ??0offset_commit_event_t@Callbacks@NodeKafka@@QEAA@W4ErrorCode@RdKafka@@AEBV?$vector@PEAVTopicPartition@RdKafka@@V?$allocator@PEAVTopicPartition@RdKafka@@@std@@@std@@@Z 0000000180003e80 f i callbacks.obj
 0001:000030d0       ?TopicPartitionListToV8Array@Callbacks@NodeKafka@@YA?AV?$Local@VArray@v8@@@v8@@V?$vector@Uevent_topic_partition_t@Callbacks@NodeKafka@@V?$allocator@Uevent_topic_partition_t@Callbacks@NodeKafka@@@std@@@std@@@Z 00000001800040d0 f   callbacks.obj
 0001:000034b0       ??1Dispatcher@Callbacks@NodeKafka@@QEAA@XZ 00000001800044b0 f   callbacks.obj
 0001:000035a0       ?Dispatch@Dispatcher@Callbacks@NodeKafka@@QEAAXHQEAV?$Local@VValue@v8@@@v8@@@Z 00000001800045a0 f   callbacks.obj
 0001:00003750       ?AddCallback@DeliveryReportDispatcher@Callbacks@NodeKafka@@QEAAXV?$Local@VFunction@v8@@@v8@@@Z 0000000180004750 f   callbacks.obj
 0001:00003750       ?AddCallback@Dispatcher@Callbacks@NodeKafka@@QEAAXV?$Local@VFunction@v8@@@v8@@@Z 0000000180004750 f   callbacks.obj
 0001:000037e0       ??0event_t@Callbacks@NodeKafka@@QEAA@AEBVEvent@RdKafka@@@Z 00000001800047e0 f   callbacks.obj
 0001:00003b70       ??_EEvent@Callbacks@NodeKafka@@UEAAPEAXI@Z 0000000180004b70 f i * CIL library *:* CIL module *
 0001:00003b70       ??_GEvent@Callbacks@NodeKafka@@UEAAPEAXI@Z 0000000180004b70 f i callbacks.obj
 0001:00003c00       ?event_cb@Event@Callbacks@NodeKafka@@UEAAXAEAV1RdKafka@@@Z 0000000180004c00 f   callbacks.obj
 0001:00003da0       ?Flush@EventDispatcher@Callbacks@NodeKafka@@UEAAXXZ 0000000180004da0 f   callbacks.obj
 0001:000049c0       ?Flush@DeliveryReportDispatcher@Callbacks@NodeKafka@@UEAAXXZ 00000001800059c0 f   callbacks.obj
 0001:00005490       ??0DeliveryReport@Callbacks@NodeKafka@@QEAA@AEBV012@@Z 0000000180006490 f i callbacks.obj
 0001:00005550       ??0DeliveryReport@Callbacks@NodeKafka@@QEAA@AEAVMessage@RdKafka@@_N@Z 0000000180006550 f   callbacks.obj
 0001:00005780       ??_GDelivery@Callbacks@NodeKafka@@UEAAPEAXI@Z 0000000180006780 f i callbacks.obj
 0001:00005780       ??_EDelivery@Callbacks@NodeKafka@@UEAAPEAXI@Z 0000000180006780 f i * CIL library *:* CIL module *
 0001:00005810       ?dr_cb@Delivery@Callbacks@NodeKafka@@UEAAXAEAVMessage@RdKafka@@@Z 0000000180006810 f   callbacks.obj
 0001:00005990       ?Add@RebalanceDispatcher@Callbacks@NodeKafka@@QEAAXAEBUrebalance_event_t@23@@Z 0000000180006990 f   callbacks.obj
 0001:00005990       ?Add@OffsetCommitDispatcher@Callbacks@NodeKafka@@QEAAXAEBUoffset_commit_event_t@23@@Z 0000000180006990 f   callbacks.obj
 0001:00005a30       ?Flush@RebalanceDispatcher@Callbacks@NodeKafka@@UEAAXXZ 0000000180006a30 f   callbacks.obj
 0001:00005d00       ??_GRebalance@Callbacks@NodeKafka@@UEAAPEAXI@Z 0000000180006d00 f i callbacks.obj
 0001:00005d00       ??_ERebalance@Callbacks@NodeKafka@@UEAAPEAXI@Z 0000000180006d00 f i * CIL library *:* CIL module *
 0001:00005d90       ?rebalance_cb@Rebalance@Callbacks@NodeKafka@@UEAAXPEAVKafkaConsumer@RdKafka@@W4ErrorCode@5@AEAV?$vector@PEAVTopicPartition@RdKafka@@V?$allocator@PEAVTopicPartition@RdKafka@@@std@@@std@@@Z 0000000180006d90 f   callbacks.obj
 0001:00005df0       ?Flush@OffsetCommitDispatcher@Callbacks@NodeKafka@@UEAAXXZ 0000000180006df0 f   callbacks.obj
 0001:00006060       ??_GOffsetCommit@Callbacks@NodeKafka@@UEAAPEAXI@Z 0000000180007060 f i callbacks.obj
 0001:00006060       ??_EOffsetCommit@Callbacks@NodeKafka@@UEAAPEAXI@Z 0000000180007060 f i * CIL library *:* CIL module *
 0001:000060f0       ?offset_commit_cb@OffsetCommit@Callbacks@NodeKafka@@UEAAXW4ErrorCode@RdKafka@@AEAV?$vector@PEAVTopicPartition@RdKafka@@V?$allocator@PEAVTopicPartition@RdKafka@@@std@@@std@@@Z 00000001800070f0 f   callbacks.obj
 0001:00006140       ??_EPartitioner@Callbacks@NodeKafka@@UEAAPEAXI@Z 0000000180007140 f i * CIL library *:* CIL module *
 0001:00006140       ??_GPartitioner@Callbacks@NodeKafka@@UEAAPEAXI@Z 0000000180007140 f i callbacks.obj
 0001:000061a0       ?partitioner_cb@Partitioner@Callbacks@NodeKafka@@UEAAHPEBVTopic@RdKafka@@PEBV?$basic_string@DU?$char_traits@D@std@@V?$allocator@D@2@@std@@HPEAX@Z 00000001800071a0 f   callbacks.obj
 0001:00006410       ?SetCallback@Partitioner@Callbacks@NodeKafka@@QEAAXV?$Local@VFunction@v8@@@v8@@@Z 0000000180007410 f   callbacks.obj
 0001:000064b0       ?push_back@?$vector@V?$Persistent@VFunction@v8@@U?$CopyablePersistentTraits@VFunction@v8@@@2@@v8@@V?$allocator@V?$Persistent@VFunction@v8@@U?$CopyablePersistentTraits@VFunction@v8@@@2@@v8@@@std@@@std@@QEAAX$$QEAV?$Persistent@VFunction@v8@@U?$CopyablePersistentTraits@VFunction@v8@@@2@@v8@@@Z 00000001800074b0 f i callbacks.obj
 0001:00006570       ??0?$vector@Uevent_topic_partition_t@Callbacks@NodeKafka@@V?$allocator@Uevent_topic_partition_t@Callbacks@NodeKafka@@@std@@@std@@QEAA@AEBV01@@Z 0000000180007570 f i callbacks.obj
 0001:00006690       ??0?$vector@PEAVTopicPartition@RdKafka@@V?$allocator@PEAVTopicPartition@RdKafka@@@std@@@std@@QEAA@AEBV01@@Z 0000000180007690 f i callbacks.obj
 0001:00006750       ?_Assign_rv@?$basic_string@DU?$char_traits@D@std@@V?$allocator@D@2@@std@@QEAAX$$QEAV12@@Z 0000000180007750 f i callbacks.obj
 0001:000067c0       ?_Reserve@?$vector@V?$Persistent@VFunction@v8@@U?$CopyablePersistentTraits@VFunction@v8@@@2@@v8@@V?$allocator@V?$Persistent@VFunction@v8@@U?$CopyablePersistentTraits@VFunction@v8@@@2@@v8@@@std@@@std@@IEAAX_K@Z 00000001800077c0 f i callbacks.obj
 0001:00006850       ?_Reserve@?$vector@Uevent_t@Callbacks@NodeKafka@@V?$allocator@Uevent_t@Callbacks@NodeKafka@@@std@@@std@@IEAAX_K@Z 0000000180007850 f i callbacks.obj
 0001:00006930       ?_Reserve@?$vector@VDeliveryReport@Callbacks@NodeKafka@@V?$allocator@VDeliveryReport@Callbacks@NodeKafka@@@std@@@std@@IEAAX_K@Z 0000000180007930 f i callbacks.obj
 0001:00006a00       ?_Reserve@?$vector@Uevent_topic_partition_t@Callbacks@NodeKafka@@V?$allocator@Uevent_topic_partition_t@Callbacks@NodeKafka@@@std@@@std@@IEAAX_K@Z 0000000180007a00 f i callbacks.obj
 0001:00006ad0       ?_Tidy@?$vector@Uevent_topic_partition_t@Callbacks@NodeKafka@@V?$allocator@Uevent_topic_partition_t@Callbacks@NodeKafka@@@std@@@std@@IEAAXXZ 0000000180007ad0 f i callbacks.obj
 0001:00006b50       ?_Reserve@?$vector@Urebalance_event_t@Callbacks@NodeKafka@@V?$allocator@Urebalance_event_t@Callbacks@NodeKafka@@@std@@@std@@IEAAX_K@Z 0000000180007b50 f i callbacks.obj
 0001:00006b50       ?_Reserve@?$vector@Uoffset_commit_event_t@Callbacks@NodeKafka@@V?$allocator@Uoffset_commit_event_t@Callbacks@NodeKafka@@@std@@@std@@IEAAX_K@Z 0000000180007b50 f i callbacks.obj
 0001:00006be0       ?_Reallocate@?$vector@V?$Persistent@VFunction@v8@@U?$CopyablePersistentTraits@VFunction@v8@@@2@@v8@@V?$allocator@V?$Persistent@VFunction@v8@@U?$CopyablePersistentTraits@VFunction@v8@@@2@@v8@@@std@@@std@@IEAAX_K@Z 0000000180007be0 f i callbacks.obj
 0001:00006cf0       ?_Destroy@?$vector@Uevent_t@Callbacks@NodeKafka@@V?$allocator@Uevent_t@Callbacks@NodeKafka@@@std@@@std@@IEAAXPEAUevent_t@Callbacks@NodeKafka@@0@Z 0000000180007cf0 f i callbacks.obj
 0001:00006d90       ?_Reallocate@?$vector@Uevent_t@Callbacks@NodeKafka@@V?$allocator@Uevent_t@Callbacks@NodeKafka@@@std@@@std@@IEAAX_K@Z 0000000180007d90 f i callbacks.obj
 0001:00006e90       ?_Destroy@?$vector@VDeliveryReport@Callbacks@NodeKafka@@V?$allocator@VDeliveryReport@Callbacks@NodeKafka@@@std@@@std@@IEAAXPEAVDeliveryReport@Callbacks@NodeKafka@@0@Z 0000000180007e90 f i callbacks.obj
 0001:00006f10       ?_Reallocate@?$vector@VDeliveryReport@Callbacks@NodeKafka@@V?$allocator@VDeliveryReport@Callbacks@NodeKafka@@@std@@@std@@IEAAX_K@Z 0000000180007f10 f i callbacks.obj
 0001:00007010       ?_Reallocate@?$vector@Uevent_topic_partition_t@Callbacks@NodeKafka@@V?$allocator@Uevent_topic_partition_t@Callbacks@NodeKafka@@@std@@@std@@IEAAX_K@Z 0000000180008010 f i callbacks.obj
 0001:00007130       ?_Destroy@?$vector@Uoffset_commit_event_t@Callbacks@NodeKafka@@V?$allocator@Uoffset_commit_event_t@Callbacks@NodeKafka@@@std@@@std@@IEAAXPEAUoffset_commit_event_t@Callbacks@NodeKafka@@0@Z 0000000180008130 f i callbacks.obj
 0001:00007130       ?_Destroy@?$vector@Urebalance_event_t@Callbacks@NodeKafka@@V?$allocator@Urebalance_event_t@Callbacks@NodeKafka@@@std@@@std@@IEAAXPEAUrebalance_event_t@Callbacks@NodeKafka@@0@Z 0000000180008130 f i callbacks.obj
 0001:000071e0       ?_Reallocate@?$vector@Uoffset_commit_event_t@Callbacks@NodeKafka@@V?$allocator@Uoffset_commit_event_t@Callbacks@NodeKafka@@@std@@@std@@IEAAX_K@Z 00000001800081e0 f i callbacks.obj
 0001:000071e0       ?_Reallocate@?$vector@Urebalance_event_t@Callbacks@NodeKafka@@V?$allocator@Urebalance_event_t@Callbacks@NodeKafka@@@std@@@std@@IEAAX_K@Z 00000001800081e0 f i callbacks.obj
 0001:000072c0       ??$_Umove@PEAUevent_topic_partition_t@Callbacks@NodeKafka@@@?$vector@Uevent_topic_partition_t@Callbacks@NodeKafka@@V?$allocator@Uevent_topic_partition_t@Callbacks@NodeKafka@@@std@@@std@@IEAAPEAUevent_topic_partition_t@Callbacks@NodeKafka@@PEAU234@00@Z 00000001800082c0 f i callbacks.obj
 0001:00007360       ??0event_t@Callbacks@NodeKafka@@QEAA@AEBU012@@Z 0000000180008360 f i callbacks.obj
 0001:00007410       ?what@exception@stdext@@UEBAPEBDXZ 0000000180008410 f i common.obj
 0001:00007430       ?_Unlock@?$basic_streambuf@DU?$char_traits@D@std@@@std@@UEAAXXZ 0000000180008430 f i libcpmt:cerr.obj
 0001:00007430       ?_Lock@?$basic_streambuf@DU?$char_traits@D@std@@@std@@UEAAXXZ 0000000180008430 f i libcpmt:cerr.obj
 0001:00007430       ?imbue@?$basic_streambuf@DU?$char_traits@D@std@@@std@@MEAAXAEBVlocale@2@@Z 0000000180008430 f i libcpmt:cerr.obj
 0001:00007430       ?_Doraise@exception@stdext@@MEBAXXZ 0000000180008430 f i common.obj
 0001:00007440       ??_E_System_error@std@@UEAAPEAXI@Z 0000000180008440 f i * CIL library *:* CIL module *
 0001:00007440       ??_G_System_error@std@@UEAAPEAXI@Z 0000000180008440 f i common.obj
 0001:00007440       ??_Gfailure@ios_base@std@@UEAAPEAXI@Z 0000000180008440 f i common.obj
 0001:00007440       ??_Gexception@stdext@@UEAAPEAXI@Z 0000000180008440 f i common.obj
 0001:00007440       ??_Gruntime_error@std@@UEAAPEAXI@Z 0000000180008440 f i common.obj
 0001:00007440       ??_Efailure@ios_base@std@@UEAAPEAXI@Z 0000000180008440 f i * CIL library *:* CIL module *
 0001:00007440       ??_Eexception@stdext@@UEAAPEAXI@Z 0000000180008440 f i * CIL library *:* CIL module *
 0001:00007440       ??_Eruntime_error@std@@UEAAPEAXI@Z 0000000180008440 f i * CIL library *:* CIL module *
 0001:00007470       ?_Doraise@runtime_error@std@@MEBAXXZ 0000000180008470 f i common.obj
 0001:00007470       ?_Doraise@failure@ios_base@std@@MEBAXXZ 0000000180008470 f i common.obj
 0001:00007490       ??0_Locinfo@std@@QEAA@PEBD@Z 0000000180008490 f i common.obj
 0001:00007550       ??1_Locinfo@std@@QEAA@XZ   0000000180008550 f i common.obj
 0001:000075f0       ??_G?$codecvt@DDH@std@@MEAAPEAXI@Z 00000001800085f0 f i libcpmt:cerr.obj
 0001:000075f0       ??_E_Facet_base@std@@UEAAPEAXI@Z 00000001800085f0 f i * CIL library *:* CIL module *
 0001:000075f0       ??_G_Facet_base@std@@UEAAPEAXI@Z 00000001800085f0 f i common.obj
 0001:000075f0       ??_E?$codecvt@DDH@std@@MEAAPEAXI@Z 00000001800085f0 f i libcpmt:cerr.obj
 0001:00007620       ?_Incref@facet@locale@std@@UEAAXXZ 0000000180008620 f i common.obj
 0001:00007630       ?_Decref@facet@locale@std@@UEAAPEAV_Facet_base@3@XZ 0000000180008630 f i common.obj
 0001:00007640       ??1locale@std@@QEAA@XZ     0000000180008640 f i common.obj
 0001:00007670       ?_Getcat@?$ctype@D@std@@SA_KPEAPEBVfacet@locale@2@PEBV42@@Z 0000000180008670 f i common.obj
 0001:00007750       ?do_tolower@?$ctype@D@std@@MEBADD@Z 0000000180008750 f i common.obj
 0001:00007760       ?do_tolower@?$ctype@D@std@@MEBAPEBDPEADPEBD@Z 0000000180008760 f i common.obj
 0001:000077d0       ?do_toupper@?$ctype@D@std@@MEBADD@Z 00000001800087d0 f i common.obj
 0001:000077e0       ?do_toupper@?$ctype@D@std@@MEBAPEBDPEADPEBD@Z 00000001800087e0 f i common.obj
 0001:00007850       ?do_widen@?$ctype@D@std@@MEBADD@Z 0000000180008850 f i common.obj
 0001:00007850       ?do_narrow@?$ctype@D@std@@MEBADDD@Z 0000000180008850 f i common.obj
 0001:00007860       ?do_widen@?$ctype@D@std@@MEBAPEBDPEBD0PEAD@Z 0000000180008860 f i common.obj
 0001:00007880       ?do_narrow@?$ctype@D@std@@MEBAPEBDPEBD0DPEAD@Z 0000000180008880 f i common.obj
 0001:000078a0       ??_G?$ctype@D@std@@MEAAPEAXI@Z 00000001800088a0 f i common.obj
 0001:000078a0       ??_E?$ctype@D@std@@MEAAPEAXI@Z 00000001800088a0 f i * CIL library *:* CIL module *
 0001:00007910       ??0_System_error@std@@IEAA@Verror_code@1@AEBV?$basic_string@DU?$char_traits@D@std@@V?$allocator@D@2@@1@@Z 0000000180008910 f i common.obj
 0001:00007a80       ?clear@ios_base@std@@QEAAXH_N@Z 0000000180008a80 f i common.obj
 0001:00007cc0       ?getloc@ios_base@std@@QEBA?AVlocale@2@XZ 0000000180008cc0 f i common.obj
 0001:00007cf0       ??0Utf8String@Nan@@QEAA@V?$Local@VValue@v8@@@v8@@@Z 0000000180008cf0 f i common.obj
 0001:00007e00       ??$GetParameter@_J@NodeKafka@@YA_JV?$Local@VObject@v8@@@v8@@V?$basic_string@DU?$char_traits@D@std@@V?$allocator@D@2@@std@@_J@Z 0000000180008e00 f   common.obj
 0001:00007ff0       ??$GetParameter@_N@NodeKafka@@YA_NV?$Local@VObject@v8@@@v8@@V?$basic_string@DU?$char_traits@D@std@@V?$allocator@D@2@@std@@_N@Z 0000000180008ff0 f   common.obj
 0001:000081e0       ??$GetParameter@H@NodeKafka@@YAHV?$Local@VObject@v8@@@v8@@V?$basic_string@DU?$char_traits@D@std@@V?$allocator@D@2@@std@@H@Z 00000001800091e0 f   common.obj
 0001:00008270       ??$GetParameter@V?$basic_string@DU?$char_traits@D@std@@V?$allocator@D@2@@std@@@NodeKafka@@YA?AV?$basic_string@DU?$char_traits@D@std@@V?$allocator@D@2@@std@@V?$Local@VObject@v8@@@v8@@V12@1@Z 0000000180009270 f   common.obj
 0001:000085b0       ?ToStringVector@Topic@Conversion@NodeKafka@@YA?AV?$vector@V?$basic_string@DU?$char_traits@D@std@@V?$allocator@D@2@@std@@V?$allocator@V?$basic_string@DU?$char_traits@D@std@@V?$allocator@D@2@@std@@@2@@std@@V?$Local@VArray@v8@@@v8@@@Z 00000001800095b0 f   common.obj
 0001:00008910       ?ToV8Array@Topic@Conversion@NodeKafka@@YA?AV?$Local@VArray@v8@@@v8@@V?$vector@V?$basic_string@DU?$char_traits@D@std@@V?$allocator@D@2@@std@@V?$allocator@V?$basic_string@DU?$char_traits@D@std@@V?$allocator@D@2@@std@@@2@@std@@@Z 0000000180009910 f   common.obj
 0001:00008b10       ?ToV8Array@TopicPartition@Conversion@NodeKafka@@YA?AV?$Local@VArray@v8@@@v8@@AEAV?$vector@PEAVTopicPartition@RdKafka@@V?$allocator@PEAVTopicPartition@RdKafka@@@std@@@std@@@Z 0000000180009b10 f   common.obj
 0001:00008f80       ?FromV8Array@TopicPartition@Conversion@NodeKafka@@YA?AV?$vector@PEAVTopicPartition@RdKafka@@V?$allocator@PEAVTopicPartition@RdKafka@@@std@@@std@@AEBV?$Local@VArray@v8@@@v8@@@Z 0000000180009f80 f   common.obj
 0001:00009130       ?FromV8Object@TopicPartition@Conversion@NodeKafka@@YAPEAV1RdKafka@@V?$Local@VObject@v8@@@v8@@@Z 000000018000a130 f   common.obj
 0001:00009270       ?ToV8Object@Metadata@Conversion@NodeKafka@@YA?AV?$Local@VObject@v8@@@v8@@PEAV1RdKafka@@@Z 000000018000a270 f   common.obj
 0001:00009fb0       ?ToV8Object@Message@Conversion@NodeKafka@@YA?AV?$Local@VObject@v8@@@v8@@PEAV1RdKafka@@_N@Z 000000018000afb0 f   common.obj
 0001:0000a770       ??0?$basic_string@DU?$char_traits@D@std@@V?$allocator@D@2@@std@@QEAA@$$QEAV01@@Z 000000018000b770 f i common.obj
 0001:0000a7f0       ?append@?$basic_string@DU?$char_traits@D@std@@V?$allocator@D@2@@std@@QEAAAEAV12@AEBV12@_K1@Z 000000018000b7f0 f i common.obj
 0001:0000a920       ?append@?$basic_string@DU?$char_traits@D@std@@V?$allocator@D@2@@std@@QEAAAEAV12@PEBD_K@Z 000000018000b920 f i common.obj
 0001:0000aa70       ?_Reserve@?$vector@V?$basic_string@DU?$char_traits@D@std@@V?$allocator@D@2@@std@@V?$allocator@V?$basic_string@DU?$char_traits@D@std@@V?$allocator@D@2@@std@@@2@@std@@IEAAX_K@Z 000000018000ba70 f i common.obj
 0001:0000ab00       ?_Tidy@?$vector@V?$basic_string@DU?$char_traits@D@std@@V?$allocator@D@2@@std@@V?$allocator@V?$basic_string@DU?$char_traits@D@std@@V?$allocator@D@2@@std@@@2@@std@@IEAAXXZ 000000018000bb00 f i common.obj
 0001:0000ab80       ?_Reserve@?$vector@PEAVTopicPartition@RdKafka@@V?$allocator@PEAVTopicPartition@RdKafka@@@std@@@std@@IEAAX_K@Z 000000018000bb80 f i common.obj
 0001:0000ab80       ?_Reserve@?$vector@PEAVMessage@RdKafka@@V?$allocator@PEAVMessage@RdKafka@@@std@@@std@@IEAAX_K@Z 000000018000bb80 f i workers.obj
 0001:0000ac10       ?flush@?$basic_ostream@DU?$char_traits@D@std@@@std@@QEAAAEAV12@XZ 000000018000bc10 f i common.obj
 0001:0000ad00       ?_Reallocate@?$vector@V?$basic_string@DU?$char_traits@D@std@@V?$allocator@D@2@@std@@V?$allocator@V?$basic_string@DU?$char_traits@D@std@@V?$allocator@D@2@@std@@@2@@std@@IEAAX_K@Z 000000018000bd00 f i common.obj
 0001:0000adf0       ?_Reallocate@?$vector@PEAVMessage@RdKafka@@V?$allocator@PEAVMessage@RdKafka@@@std@@@std@@IEAAX_K@Z 000000018000bdf0 f i workers.obj
 0001:0000adf0       ?_Reallocate@?$vector@PEAVTopicPartition@RdKafka@@V?$allocator@PEAVTopicPartition@RdKafka@@@std@@@std@@IEAAX_K@Z 000000018000bdf0 f i common.obj
 0001:0000aea0       ??0sentry@?$basic_ostream@DU?$char_traits@D@std@@@std@@QEAA@AEAV12@@Z 000000018000bea0 f i common.obj
 0001:0000af10       ??$use_facet@V?$ctype@D@std@@@std@@YAAEBV?$ctype@D@0@AEBVlocale@0@@Z 000000018000bf10 f i common.obj
 0001:0000b020       ??$?6U?$char_traits@D@std@@@std@@YAAEAV?$basic_ostream@DU?$char_traits@D@std@@@0@AEAV10@PEBD@Z 000000018000c020 f i common.obj
 0001:0000b270       ??$endl@DU?$char_traits@D@std@@@std@@YAAEAV?$basic_ostream@DU?$char_traits@D@std@@@0@AEAV10@@Z 000000018000c270 f i common.obj
 0001:0000b300       ??$_Umove@PEAV?$basic_string@DU?$char_traits@D@std@@V?$allocator@D@2@@std@@@?$vector@V?$basic_string@DU?$char_traits@D@std@@V?$allocator@D@2@@std@@V?$allocator@V?$basic_string@DU?$char_traits@D@std@@V?$allocator@D@2@@std@@@2@@std@@IEAAPEAV?$basic_string@DU?$char_traits@D@std@@V?$allocator@D@2@@1@PEAV21@00@Z 000000018000c300 f i common.obj
 0001:0000b3b0       ?put@?$basic_ostream@DU?$char_traits@D@std@@@std@@QEAAAEAV12@D@Z 000000018000c3b0 f i common.obj
 0001:0000b500       ?create@Conf@NodeKafka@@SAPEAV12@W4ConfType@1RdKafka@@V?$Local@VObject@v8@@@v8@@AEAV?$basic_string@DU?$char_traits@D@std@@V?$allocator@D@2@@std@@@Z 000000018000c500 f   config.obj
 0001:0000ba40       ?listen@Conf@NodeKafka@@QEAAXXZ 000000018000ca40 f   config.obj
 0001:0000baf0       ?ThrowError@Nan@@YAXPEBD@Z 000000018000caf0 f i connection.obj
 0001:0000bb80       ?AsyncExecute@Nan@@YAXPEAUuv_work_s@@@Z 000000018000cb80 f i connection.obj
 0001:0000bb90       ?AsyncExecuteComplete@Nan@@YAXPEAUuv_work_s@@@Z 000000018000cb90 f i connection.obj
 0001:0000bbc0       ?AsyncQueueWorker@Nan@@YAXPEAVAsyncWorker@1@@Z 000000018000cbc0 f i connection.obj
 0001:0000bbf0       ??1ObjectWrap@Nan@@UEAA@XZ 000000018000cbf0 f i connection.obj
 0001:0000bc60       ?Ref@ObjectWrap@Nan@@MEAAXXZ 000000018000cc60 f i connection.obj
 0001:0000bca0       ?Unref@ObjectWrap@Nan@@MEAAXXZ 000000018000cca0 f i connection.obj
 0001:0000bd50       ?WeakCallback@ObjectWrap@Nan@@CAXAEBV?$WeakCallbackInfo@VObjectWrap@Nan@@@v8@@@Z 000000018000cd50 f i connection.obj
 0001:0000bde0       ??_GObjectWrap@Nan@@UEAAPEAXI@Z 000000018000cde0 f i connection.obj
 0001:0000bde0       ??_EObjectWrap@Nan@@UEAAPEAXI@Z 000000018000cde0 f i * CIL library *:* CIL module *
 0001:0000be10       ??0Connection@NodeKafka@@IEAA@PEAVConf@1@0@Z 000000018000ce10 f   connection.obj
 0001:0000bf80       ??_EConnection@NodeKafka@@MEAAPEAXI@Z 000000018000cf80 f i * CIL library *:* CIL module *
 0001:0000bf80       ??_GConnection@NodeKafka@@MEAAPEAXI@Z 000000018000cf80 f i connection.obj
 0001:0000bfb0       ??1Connection@NodeKafka@@MEAA@XZ 000000018000cfb0 f   connection.obj
 0001:0000c0b0       ?CreateTopic@Connection@NodeKafka@@QEAA?AVBaton@2@V?$basic_string@DU?$char_traits@D@std@@V?$allocator@D@2@@std@@PEAVConf@RdKafka@@@Z 000000018000d0b0 f   connection.obj
 0001:0000c330       ?QueryWatermarkOffsets@Connection@NodeKafka@@QEAA?AVBaton@2@V?$basic_string@DU?$char_traits@D@std@@V?$allocator@D@2@@std@@HPEA_J1H@Z 000000018000d330 f   connection.obj
 0001:0000c420       ?GetMetadata@Connection@NodeKafka@@QEAA?AVBaton@2@_NV?$basic_string@DU?$char_traits@D@std@@V?$allocator@D@2@@std@@H@Z 000000018000d420 f   connection.obj
 0001:0000c620       ?NodeGetMetadata@Connection@NodeKafka@@KAXAEBV?$FunctionCallbackInfo@VValue@v8@@@Nan@@@Z 000000018000d620 f   connection.obj
 0001:0000c950       ?NodeQueryWatermarkOffsets@Connection@NodeKafka@@KAXAEBV?$FunctionCallbackInfo@VValue@v8@@@Nan@@@Z 000000018000d950 f   connection.obj
 0001:0000cd50       ?NodeOnEvent@Connection@NodeKafka@@KAXAEBV?$FunctionCallbackInfo@VValue@v8@@@Nan@@@Z 000000018000dd50 f   connection.obj
 0001:0000ce40       ??$Unwrap@VProducer@NodeKafka@@@ObjectWrap@Nan@@SAPEAVProducer@NodeKafka@@V?$Local@VObject@v8@@@v8@@@Z 000000018000de40 f i producer.obj
 0001:0000ce40       ??$Unwrap@VConnection@NodeKafka@@@ObjectWrap@Nan@@SAPEAVConnection@NodeKafka@@V?$Local@VObject@v8@@@v8@@@Z 000000018000de40 f i connection.obj
 0001:0000ce40       ??$Unwrap@VKafkaConsumer@NodeKafka@@@ObjectWrap@Nan@@SAPEAVKafkaConsumer@NodeKafka@@V?$Local@VObject@v8@@@v8@@@Z 000000018000de40 f i kafka-consumer.obj
 0001:0000ce40       ??$Unwrap@VTopic@NodeKafka@@@ObjectWrap@Nan@@SAPEAVTopic@NodeKafka@@V?$Local@VObject@v8@@@v8@@@Z 000000018000de40 f i producer.obj
 0001:0000cec0       ?RdKafkaError@NodeKafka@@YA?AV?$Local@VObject@v8@@@v8@@AEBW4ErrorCode@RdKafka@@V?$basic_string@DU?$char_traits@D@std@@V?$allocator@D@2@@std@@@Z 000000018000dec0 f   errors.obj
 0001:0000d0b0       ?SetPrototypeMethod@Nan@@YAXV?$Local@VFunctionTemplate@v8@@@v8@@PEBDP6AXAEBV?$FunctionCallbackInfo@VValue@v8@@@1@@Z@Z 000000018000e0b0 f i kafka-consumer.obj
 0001:0000d1a0       ?Wrap@ObjectWrap@Nan@@IEAAXV?$Local@VObject@v8@@@v8@@@Z 000000018000e1a0 f i kafka-consumer.obj
 0001:0000d280       ??0KafkaConsumer@NodeKafka@@IEAA@PEAVConf@1@0@Z 000000018000e280 f   kafka-consumer.obj
 0001:0000d360       ??_EKafkaConsumer@NodeKafka@@MEAAPEAXI@Z 000000018000e360 f i * CIL library *:* CIL module *
 0001:0000d360       ??_GKafkaConsumer@NodeKafka@@MEAAPEAXI@Z 000000018000e360 f i kafka-consumer.obj
 0001:0000d390       ??1KafkaConsumer@NodeKafka@@MEAA@XZ 000000018000e390 f   kafka-consumer.obj
 0001:0000d420       ?Connect@KafkaConsumer@NodeKafka@@QEAA?AVBaton@2@XZ 000000018000e420 f   kafka-consumer.obj
 0001:0000d620       ?ActivateDispatchers@KafkaConsumer@NodeKafka@@UEAAXXZ 000000018000e620 f   kafka-consumer.obj
 0001:0000d680       ?Disconnect@KafkaConsumer@NodeKafka@@QEAA?AVBaton@2@XZ 000000018000e680 f   kafka-consumer.obj
 0001:0000d760       ?DeactivateDispatchers@KafkaConsumer@NodeKafka@@UEAAXXZ 000000018000e760 f   kafka-consumer.obj
 0001:0000d7f0       ?Assign@KafkaConsumer@NodeKafka@@QEAA?AVBaton@2@V?$vector@PEAVTopicPartition@RdKafka@@V?$allocator@PEAVTopicPartition@RdKafka@@@std@@@std@@@Z 000000018000e7f0 f   kafka-consumer.obj
 0001:0000da00       ?Unassign@KafkaConsumer@NodeKafka@@QEAA?AVBaton@2@XZ 000000018000ea00 f   kafka-consumer.obj
 0001:0000daf0       ?Commit@KafkaConsumer@NodeKafka@@QEAA?AVBaton@2@V?$basic_string@DU?$char_traits@D@std@@V?$allocator@D@2@@std@@H_J@Z 000000018000eaf0 f   kafka-consumer.obj
 0001:0000dc30       ?Commit@KafkaConsumer@NodeKafka@@QEAA?AVBaton@2@XZ 000000018000ec30 f   kafka-consumer.obj
 0001:0000dd90       ?CommitSync@KafkaConsumer@NodeKafka@@QEAA?AVBaton@2@V?$basic_string@DU?$char_traits@D@std@@V?$allocator@D@2@@std@@H_J@Z 000000018000ed90 f   kafka-consumer.obj
 0001:0000ded0       ?CommitSync@KafkaConsumer@NodeKafka@@QEAA?AVBaton@2@XZ 000000018000eed0 f   kafka-consumer.obj
 0001:0000e030       ?Seek@KafkaConsumer@NodeKafka@@QEAA?AVBaton@2@AEBVTopicPartition@RdKafka@@H@Z 000000018000f030 f   kafka-consumer.obj
 0001:0000e1a0       ?Committed@KafkaConsumer@NodeKafka@@QEAA?AVBaton@2@AEAV?$vector@PEAVTopicPartition@RdKafka@@V?$allocator@PEAVTopicPartition@RdKafka@@@std@@@std@@H@Z 000000018000f1a0 f   kafka-consumer.obj
 0001:0000e310       ?Position@KafkaConsumer@NodeKafka@@QEAA?AVBaton@2@AEAV?$vector@PEAVTopicPartition@RdKafka@@V?$allocator@PEAVTopicPartition@RdKafka@@@std@@@std@@@Z 000000018000f310 f   kafka-consumer.obj
 0001:0000e470       ?Subscription@KafkaConsumer@NodeKafka@@QEAA?AVBaton@2@XZ 000000018000f470 f   kafka-consumer.obj
 0001:0000e620       ?Subscribe@KafkaConsumer@NodeKafka@@QEAA?AVBaton@2@V?$vector@V?$basic_string@DU?$char_traits@D@std@@V?$allocator@D@2@@std@@V?$allocator@V?$basic_string@DU?$char_traits@D@std@@V?$allocator@D@2@@std@@@2@@std@@@Z 000000018000f620 f   kafka-consumer.obj
 0001:0000e6f0       ?Consume@KafkaConsumer@NodeKafka@@QEAA?AVBaton@2@H@Z 000000018000f6f0 f   kafka-consumer.obj
 0001:0000e9b0       ?RefreshAssignments@KafkaConsumer@NodeKafka@@QEAA?AVBaton@2@XZ 000000018000f9b0 f   kafka-consumer.obj
 0001:0000eb00       ?Init@KafkaConsumer@NodeKafka@@SAXV?$Local@VObject@v8@@@v8@@@Z 000000018000fb00 f   kafka-consumer.obj
 0001:0000eef0       ?New@KafkaConsumer@NodeKafka@@KAXAEBV?$FunctionCallbackInfo@VValue@v8@@@Nan@@@Z 000000018000fef0 f   kafka-consumer.obj
 0001:0000f130       ?NodeCommitted@KafkaConsumer@NodeKafka@@CAXAEBV?$FunctionCallbackInfo@VValue@v8@@@Nan@@@Z 0000000180010130 f   kafka-consumer.obj
 0001:0000f3d0       ?NodeSubscription@KafkaConsumer@NodeKafka@@CAXAEBV?$FunctionCallbackInfo@VValue@v8@@@Nan@@@Z 00000001800103d0 f   kafka-consumer.obj
 0001:0000f530       ?NodePosition@KafkaConsumer@NodeKafka@@CAXAEBV?$FunctionCallbackInfo@VValue@v8@@@Nan@@@Z 0000000180010530 f   kafka-consumer.obj
 0001:0000f730       ?NodeAssignments@KafkaConsumer@NodeKafka@@CAXAEBV?$FunctionCallbackInfo@VValue@v8@@@Nan@@@Z 0000000180010730 f   kafka-consumer.obj
 0001:0000f850       ?NodeAssign@KafkaConsumer@NodeKafka@@CAXAEBV?$FunctionCallbackInfo@VValue@v8@@@Nan@@@Z 0000000180010850 f   kafka-consumer.obj
 0001:0000fde0       ?NodeUnassign@KafkaConsumer@NodeKafka@@CAXAEBV?$FunctionCallbackInfo@VValue@v8@@@Nan@@@Z 0000000180010de0 f   kafka-consumer.obj
 0001:0000fef0       ?NodeUnsubscribe@KafkaConsumer@NodeKafka@@CAXAEBV?$FunctionCallbackInfo@VValue@v8@@@Nan@@@Z 0000000180010ef0 f   kafka-consumer.obj
 0001:0000ffc0       ?NodeCommit@KafkaConsumer@NodeKafka@@CAXAEBV?$FunctionCallbackInfo@VValue@v8@@@Nan@@@Z 0000000180010fc0 f   kafka-consumer.obj
 0001:000102f0       ?NodeCommitSync@KafkaConsumer@NodeKafka@@CAXAEBV?$FunctionCallbackInfo@VValue@v8@@@Nan@@@Z 00000001800112f0 f   kafka-consumer.obj
 0001:00010620       ?NodeSubscribe@KafkaConsumer@NodeKafka@@CAXAEBV?$FunctionCallbackInfo@VValue@v8@@@Nan@@@Z 0000000180011620 f   kafka-consumer.obj
 0001:00010800       ?NodeSeek@KafkaConsumer@NodeKafka@@CAXAEBV?$FunctionCallbackInfo@VValue@v8@@@Nan@@@Z 0000000180011800 f   kafka-consumer.obj
 0001:00010b10       ?NodeOffsetsStore@KafkaConsumer@NodeKafka@@CAXAEBV?$FunctionCallbackInfo@VValue@v8@@@Nan@@@Z 0000000180011b10 f   kafka-consumer.obj
 0001:00010cd0       ?NodePause@KafkaConsumer@NodeKafka@@CAXAEBV?$FunctionCallbackInfo@VValue@v8@@@Nan@@@Z 0000000180011cd0 f   kafka-consumer.obj
 0001:00010ea0       ?NodeResume@KafkaConsumer@NodeKafka@@CAXAEBV?$FunctionCallbackInfo@VValue@v8@@@Nan@@@Z 0000000180011ea0 f   kafka-consumer.obj
 0001:000110b0       ?NodeConsumeLoop@KafkaConsumer@NodeKafka@@CAXAEBV?$FunctionCallbackInfo@VValue@v8@@@Nan@@@Z 00000001800120b0 f   kafka-consumer.obj
 0001:00011330       ?NodeConsume@KafkaConsumer@NodeKafka@@CAXAEBV?$FunctionCallbackInfo@VValue@v8@@@Nan@@@Z 0000000180012330 f   kafka-consumer.obj
 0001:00011730       ?NodeConnect@KafkaConsumer@NodeKafka@@CAXAEBV?$FunctionCallbackInfo@VValue@v8@@@Nan@@@Z 0000000180012730 f   kafka-consumer.obj
 0001:000118e0       ?NodeDisconnect@KafkaConsumer@NodeKafka@@CAXAEBV?$FunctionCallbackInfo@VValue@v8@@@Nan@@@Z 00000001800128e0 f   kafka-consumer.obj
 0001:00011a90       ?NodeGetWatermarkOffsets@KafkaConsumer@NodeKafka@@CAXAEBV?$FunctionCallbackInfo@VValue@v8@@@Nan@@@Z 0000000180012a90 f   kafka-consumer.obj
 0001:00011f80       ??0?$vector@V?$basic_string@DU?$char_traits@D@std@@V?$allocator@D@2@@std@@V?$allocator@V?$basic_string@DU?$char_traits@D@std@@V?$allocator@D@2@@std@@@2@@std@@QEAA@AEBV01@@Z 0000000180012f80 f i kafka-consumer.obj
 0001:00012080       ??$_Insert@PEBQEAVTopicPartition@RdKafka@@@?$vector@PEAVTopicPartition@RdKafka@@V?$allocator@PEAVTopicPartition@RdKafka@@@std@@@std@@QEAAXV?$_Vector_const_iterator@V?$_Vector_val@U?$_Simple_types@PEAVTopicPartition@RdKafka@@@std@@@std@@@1@PEBQEAVTopicPartition@RdKafka@@1Uforward_iterator_tag@1@@Z 0000000180013080 f i kafka-consumer.obj
 0001:00012230       ??$_Rotate@PEAPEAVTopicPartition@RdKafka@@_JPEAV12@@std@@YAXPEAPEAVTopicPartition@RdKafka@@00PEA_J0@Z 0000000180013230 f i kafka-consumer.obj
 0001:000122f0       ??0Producer@NodeKafka@@IEAA@PEAVConf@1@0@Z 00000001800132f0 f   producer.obj
 0001:00012480       ??_GProducer@NodeKafka@@MEAAPEAXI@Z 0000000180013480 f i producer.obj
 0001:00012480       ??_EProducer@NodeKafka@@MEAAPEAXI@Z 0000000180013480 f i * CIL library *:* CIL module *
 0001:000124b0       ??1Producer@NodeKafka@@MEAA@XZ 00000001800134b0 f   producer.obj
 0001:000125c0       ?Init@Producer@NodeKafka@@SAXV?$Local@VObject@v8@@@v8@@@Z 00000001800135c0 f   producer.obj
 0001:00012880       ?New@Producer@NodeKafka@@KAXAEBV?$FunctionCallbackInfo@VValue@v8@@@Nan@@@Z 0000000180013880 f   producer.obj
 0001:00012ac0       ?Connect@Producer@NodeKafka@@QEAA?AVBaton@2@XZ 0000000180013ac0 f   producer.obj
 0001:00012ca0       ?ActivateDispatchers@Producer@NodeKafka@@UEAAXXZ 0000000180013ca0 f   producer.obj
 0001:00012d40       ?DeactivateDispatchers@Producer@NodeKafka@@UEAAXXZ 0000000180013d40 f   producer.obj
 0001:00012d90       ?Produce@Producer@NodeKafka@@QEAA?AVBaton@2@PEAX_KPEAVTopic@RdKafka@@HPEBX10@Z 0000000180013d90 f   producer.obj
 0001:00012ed0       ?Produce@Producer@NodeKafka@@QEAA?AVBaton@2@PEAX_KV?$basic_string@DU?$char_traits@D@std@@V?$allocator@D@2@@std@@HPEBX1_J0@Z 0000000180013ed0 f   producer.obj
 0001:00013080       ?NodeProduce@Producer@NodeKafka@@CAXAEBV?$FunctionCallbackInfo@VValue@v8@@@Nan@@@Z 0000000180014080 f   producer.obj
 0001:00013a10       ?NodeOnDelivery@Producer@NodeKafka@@CAXAEBV?$FunctionCallbackInfo@VValue@v8@@@Nan@@@Z 0000000180014a10 f   producer.obj
 0001:00013b90       ?NodeSetPartitioner@Producer@NodeKafka@@CAXAEBV?$FunctionCallbackInfo@VValue@v8@@@Nan@@@Z 0000000180014b90 f   producer.obj
 0001:00013c80       ?NodeConnect@Producer@NodeKafka@@CAXAEBV?$FunctionCallbackInfo@VValue@v8@@@Nan@@@Z 0000000180014c80 f   producer.obj
 0001:00013e30       ?NodePoll@Producer@NodeKafka@@CAXAEBV?$FunctionCallbackInfo@VValue@v8@@@Nan@@@Z 0000000180014e30 f   producer.obj
 0001:00013ee0       ?Flush@Producer@NodeKafka@@QEAA?AVBaton@2@H@Z 0000000180014ee0 f   producer.obj
 0001:00013fc0       ?NodeFlush@Producer@NodeKafka@@CAXAEBV?$FunctionCallbackInfo@VValue@v8@@@Nan@@@Z 0000000180014fc0 f   producer.obj
 0001:00014220       ?NodeDisconnect@Producer@NodeKafka@@CAXAEBV?$FunctionCallbackInfo@VValue@v8@@@Nan@@@Z 0000000180015220 f   producer.obj
 0001:000143d0       ??0Topic@NodeKafka@@AEAA@V?$basic_string@DU?$char_traits@D@std@@V?$allocator@D@2@@std@@PEAVConf@RdKafka@@@Z 00000001800153d0 f   topic.obj
 0001:00014460       ??_GTopic@NodeKafka@@EEAAPEAXI@Z 0000000180015460 f i topic.obj
 0001:00014460       ??_ETopic@NodeKafka@@EEAAPEAXI@Z 0000000180015460 f i * CIL library *:* CIL module *
 0001:00014490       ??1Topic@NodeKafka@@EEAA@XZ 0000000180015490 f   topic.obj
 0001:00014510       ?Init@Topic@NodeKafka@@SAXV?$Local@VObject@v8@@@v8@@@Z 0000000180015510 f   topic.obj
 0001:00014720       ?New@Topic@NodeKafka@@KAXAEBV?$FunctionCallbackInfo@VValue@v8@@@Nan@@@Z 0000000180015720 f   topic.obj
 0001:00014ac0       ?NodeGetName@Topic@NodeKafka@@CAXAEBV?$FunctionCallbackInfo@VValue@v8@@@Nan@@@Z 0000000180015ac0 f   topic.obj
 0001:00014c50       ??0AsyncWorker@Nan@@QEAA@PEAVCallback@1@@Z 0000000180015c50 f i workers.obj
 0001:00014d10       ??1AsyncWorker@Nan@@UEAA@XZ 0000000180015d10 f i workers.obj
 0001:00014db0       ?WorkComplete@AsyncWorker@Nan@@UEAAXXZ 0000000180015db0 f i workers.obj
 0001:00014e40       ?Destroy@AsyncWorker@Nan@@UEAAXXZ 0000000180015e40 f i workers.obj
 0001:00014e60       ?HandleOKCallback@AsyncWorker@Nan@@MEAAXXZ 0000000180015e60 f i workers.obj
 0001:00014eb0       ?HandleErrorCallback@AsyncWorker@Nan@@MEAAXXZ 0000000180015eb0 f i workers.obj
 0001:00015020       ??_GAsyncWorker@Nan@@UEAAPEAXI@Z 0000000180016020 f i workers.obj
 0001:00015020       ??_EAsyncWorker@Nan@@UEAAPEAXI@Z 0000000180016020 f i * CIL library *:* CIL module *
 0001:00015050       ?HandleErrorCallback@KafkaConsumerConnect@Workers@NodeKafka@@UEAAXXZ 0000000180016050 f i workers.obj
 0001:00015050       ?HandleErrorCallback@KafkaConsumerConsumeLoop@Workers@NodeKafka@@UEAAXXZ 0000000180016050 f i workers.obj
 0001:00015050       ?HandleErrorCallback@ErrorAwareWorker@Workers@NodeKafka@@UEAAXXZ 0000000180016050 f i workers.obj
 0001:000151f0       ?SetErrorBaton@ErrorAwareWorker@Workers@NodeKafka@@IEAAXAEBVBaton@3@@Z 00000001800161f0 f i workers.obj
 0001:00015300       ??_EProducerDisconnect@Workers@NodeKafka@@UEAAPEAXI@Z 0000000180016300 f i * CIL library *:* CIL module *
 0001:00015300       ??_GKafkaConsumerDisconnect@Workers@NodeKafka@@UEAAPEAXI@Z 0000000180016300 f i workers.obj
 0001:00015300       ??_GKafkaConsumerConsume@Workers@NodeKafka@@UEAAPEAXI@Z 0000000180016300 f i workers.obj
 0001:00015300       ??_EKafkaConsumerConnect@Workers@NodeKafka@@UEAAPEAXI@Z 0000000180016300 f i * CIL library *:* CIL module *
 0001:00015300       ??_GProducerDisconnect@Workers@NodeKafka@@UEAAPEAXI@Z 0000000180016300 f i workers.obj
 0001:00015300       ??_EProducerFlush@Workers@NodeKafka@@UEAAPEAXI@Z 0000000180016300 f i * CIL library *:* CIL module *
 0001:00015300       ??_GProducerFlush@Workers@NodeKafka@@UEAAPEAXI@Z 0000000180016300 f i workers.obj
 0001:00015300       ??_GProducerConnect@Workers@NodeKafka@@UEAAPEAXI@Z 0000000180016300 f i workers.obj
 0001:00015300       ??_GErrorAwareWorker@Workers@NodeKafka@@UEAAPEAXI@Z 0000000180016300 f i workers.obj
 0001:00015300       ??_EProducerConnect@Workers@NodeKafka@@UEAAPEAXI@Z 0000000180016300 f i * CIL library *:* CIL module *
 0001:00015300       ??_EErrorAwareWorker@Workers@NodeKafka@@UEAAPEAXI@Z 0000000180016300 f i * CIL library *:* CIL module *
 0001:00015300       ??_GKafkaConsumerConnect@Workers@NodeKafka@@UEAAPEAXI@Z 0000000180016300 f i workers.obj
 0001:00015300       ??_EKafkaConsumerConsume@Workers@NodeKafka@@UEAAPEAXI@Z 0000000180016300 f i * CIL library *:* CIL module *
 0001:00015300       ??_EKafkaConsumerDisconnect@Workers@NodeKafka@@UEAAPEAXI@Z 0000000180016300 f i * CIL library *:* CIL module *
 0001:00015370       ??0MessageWorker@Workers@NodeKafka@@QEAA@PEAVCallback@Nan@@@Z 0000000180016370 f i workers.obj
 0001:00015420       ??1MessageWorker@Workers@NodeKafka@@UEAA@XZ 0000000180016420 f i workers.obj
 0001:000154c0       ?WorkMessage@MessageWorker@Workers@NodeKafka@@QEAAXXZ 00000001800164c0 f i workers.obj
 0001:00015590       ?Destroy@MessageWorker@Workers@NodeKafka@@UEAAXXZ 0000000180016590 f i workers.obj
 0001:000155b0       ?Execute@MessageWorker@Workers@NodeKafka@@EEAAXXZ 00000001800165b0 f i workers.obj
 0001:000155d0       ?Produce_@MessageWorker@Workers@NodeKafka@@AEAAXPEAVMessage@RdKafka@@@Z 00000001800165d0 f i workers.obj
 0001:000156a0       ?m_async_message@MessageWorker@Workers@NodeKafka@@CAXPEAUuv_async_s@@@Z 00000001800166a0 f i workers.obj
 0001:000156b0       ?AsyncClose_@MessageWorker@Workers@NodeKafka@@CAXPEAUuv_handle_s@@@Z 00000001800166b0 f i workers.obj
 0001:000156e0       ??_EMessageWorker@Workers@NodeKafka@@UEAAPEAXI@Z 00000001800166e0 f i * CIL library *:* CIL module *
 0001:000156e0       ??_GMessageWorker@Workers@NodeKafka@@UEAAPEAXI@Z 00000001800166e0 f i workers.obj
 0001:00015710       ??0ConnectionMetadata@Workers@NodeKafka@@QEAA@PEAVCallback@Nan@@PEAVConnection@2@V?$basic_string@DU?$char_traits@D@std@@V?$allocator@D@2@@std@@H_N@Z 0000000180016710 f   workers.obj
 0001:000157d0       ??_EConnectionMetadata@Workers@NodeKafka@@UEAAPEAXI@Z 00000001800167d0 f i * CIL library *:* CIL module *
 0001:000157d0       ??_GConnectionMetadata@Workers@NodeKafka@@UEAAPEAXI@Z 00000001800167d0 f i workers.obj
 0001:00015800       ??1ConnectionMetadata@Workers@NodeKafka@@UEAA@XZ 0000000180016800 f   workers.obj
 0001:00015890       ?Execute@ConnectionMetadata@Workers@NodeKafka@@UEAAXXZ 0000000180016890 f   workers.obj
 0001:00015960       ?HandleOKCallback@ConnectionMetadata@Workers@NodeKafka@@UEAAXXZ 0000000180016960 f   workers.obj
 0001:00015ac0       ?HandleErrorCallback@KafkaConsumerSeek@Workers@NodeKafka@@UEAAXXZ 0000000180016ac0 f   workers.obj
 0001:00015ac0       ?HandleErrorCallback@KafkaConsumerCommitted@Workers@NodeKafka@@UEAAXXZ 0000000180016ac0 f   workers.obj
 0001:00015ac0       ?HandleErrorCallback@ConnectionQueryWatermarkOffsets@Workers@NodeKafka@@UEAAXXZ 0000000180016ac0 f   workers.obj
 0001:00015ac0       ?HandleErrorCallback@KafkaConsumerConsume@Workers@NodeKafka@@UEAAXXZ 0000000180016ac0 f   workers.obj
 0001:00015ac0       ?HandleErrorCallback@ConnectionMetadata@Workers@NodeKafka@@UEAAXXZ 0000000180016ac0 f   workers.obj
 0001:00015ac0       ?HandleErrorCallback@ProducerConnect@Workers@NodeKafka@@UEAAXXZ 0000000180016ac0 f   workers.obj
 0001:00015c50       ??0ConnectionQueryWatermarkOffsets@Workers@NodeKafka@@QEAA@PEAVCallback@Nan@@PEAVConnection@2@V?$basic_string@DU?$char_traits@D@std@@V?$allocator@D@2@@std@@HH@Z 0000000180016c50 f   workers.obj
 0001:00015d10       ??_GConnectionQueryWatermarkOffsets@Workers@NodeKafka@@UEAAPEAXI@Z 0000000180016d10 f i workers.obj
 0001:00015d10       ??_EConnectionQueryWatermarkOffsets@Workers@NodeKafka@@UEAAPEAXI@Z 0000000180016d10 f i * CIL library *:* CIL module *
 0001:00015d40       ??1ConnectionQueryWatermarkOffsets@Workers@NodeKafka@@UEAA@XZ 0000000180016d40 f   workers.obj
 0001:00015dd0       ?Execute@ConnectionQueryWatermarkOffsets@Workers@NodeKafka@@UEAAXXZ 0000000180016dd0 f   workers.obj
 0001:00015eb0       ?HandleOKCallback@ConnectionQueryWatermarkOffsets@Workers@NodeKafka@@UEAAXXZ 0000000180016eb0 f   workers.obj
 0001:00016140       ?Execute@ProducerConnect@Workers@NodeKafka@@UEAAXXZ 0000000180017140 f   workers.obj
 0001:000161b0       ?HandleOKCallback@KafkaConsumerConnect@Workers@NodeKafka@@UEAAXXZ 00000001800171b0 f   workers.obj
 0001:000161b0       ?HandleOKCallback@ProducerConnect@Workers@NodeKafka@@UEAAXXZ 00000001800171b0 f   workers.obj
 0001:00016540       ?Execute@ProducerDisconnect@Workers@NodeKafka@@UEAAXXZ 0000000180017540 f   workers.obj
 0001:000165b0       ?HandleOKCallback@KafkaConsumerDisconnect@Workers@NodeKafka@@UEAAXXZ 00000001800175b0 f   workers.obj
 0001:000165b0       ?HandleOKCallback@ProducerDisconnect@Workers@NodeKafka@@UEAAXXZ 00000001800175b0 f   workers.obj
 0001:000166f0       ?HandleErrorCallback@ProducerDisconnect@Workers@NodeKafka@@UEAAXXZ 00000001800176f0 f   workers.obj
 0001:00016710       ?Execute@ProducerFlush@Workers@NodeKafka@@UEAAXXZ 0000000180017710 f   workers.obj
 0001:000167e0       ?HandleOKCallback@ProducerFlush@Workers@NodeKafka@@UEAAXXZ 00000001800177e0 f   workers.obj
 0001:00016900       ?Execute@KafkaConsumerConnect@Workers@NodeKafka@@UEAAXXZ 0000000180017900 f   workers.obj
 0001:00016970       ?Execute@KafkaConsumerDisconnect@Workers@NodeKafka@@UEAAXXZ 0000000180017970 f   workers.obj
 0001:000169e0       ?HandleErrorCallback@KafkaConsumerDisconnect@Workers@NodeKafka@@UEAAXXZ 00000001800179e0 f   workers.obj
 0001:00016b70       ??_EKafkaConsumerConsumeLoop@Workers@NodeKafka@@UEAAPEAXI@Z 0000000180017b70 f i * CIL library *:* CIL module *
 0001:00016b70       ??_GKafkaConsumerConsumeLoop@Workers@NodeKafka@@UEAAPEAXI@Z 0000000180017b70 f i workers.obj
 0001:00016bb0       ?Execute@KafkaConsumerConsumeLoop@Workers@NodeKafka@@UEAAXAEBVExecutionMessageBus@MessageWorker@23@@Z 0000000180017bb0 f   workers.obj
 0001:00016cb0       ?HandleMessageCallback@KafkaConsumerConsumeLoop@Workers@NodeKafka@@UEAAXPEAVMessage@RdKafka@@@Z 0000000180017cb0 f   workers.obj
 0001:00016e10       ?HandleOKCallback@KafkaConsumerConsumeLoop@Workers@NodeKafka@@UEAAXXZ 0000000180017e10 f   workers.obj
 0001:00016e40       ??_GKafkaConsumerConsumeNum@Workers@NodeKafka@@UEAAPEAXI@Z 0000000180017e40 f i workers.obj
 0001:00016e40       ??_EKafkaConsumerConsumeNum@Workers@NodeKafka@@UEAAPEAXI@Z 0000000180017e40 f i * CIL library *:* CIL module *
 0001:00016e70       ??1KafkaConsumerConsumeNum@Workers@NodeKafka@@UEAA@XZ 0000000180017e70 f   workers.obj
 0001:00016f00       ?Execute@KafkaConsumerConsumeNum@Workers@NodeKafka@@UEAAXXZ 0000000180017f00 f   workers.obj
 0001:00017070       ?HandleOKCallback@KafkaConsumerConsumeNum@Workers@NodeKafka@@UEAAXXZ 0000000180018070 f   workers.obj
 0001:00017240       ?HandleErrorCallback@KafkaConsumerConsumeNum@Workers@NodeKafka@@UEAAXXZ 0000000180018240 f   workers.obj
 0001:00017410       ?Execute@KafkaConsumerConsume@Workers@NodeKafka@@UEAAXXZ 0000000180018410 f   workers.obj
 0001:00017490       ?HandleOKCallback@KafkaConsumerConsume@Workers@NodeKafka@@UEAAXXZ 0000000180018490 f   workers.obj
 0001:000175f0       ??_GKafkaConsumerCommitted@Workers@NodeKafka@@UEAAPEAXI@Z 00000001800185f0 f i workers.obj
 0001:000175f0       ??_EKafkaConsumerCommitted@Workers@NodeKafka@@UEAAPEAXI@Z 00000001800185f0 f i * CIL library *:* CIL module *
 0001:00017620       ??1KafkaConsumerCommitted@Workers@NodeKafka@@UEAA@XZ 0000000180018620 f   workers.obj
 0001:000176d0       ?Execute@KafkaConsumerCommitted@Workers@NodeKafka@@UEAAXXZ 00000001800186d0 f   workers.obj
 0001:00017740       ?HandleOKCallback@KafkaConsumerCommitted@Workers@NodeKafka@@UEAAXXZ 0000000180018740 f   workers.obj
 0001:00017880       ??_EKafkaConsumerSeek@Workers@NodeKafka@@UEAAPEAXI@Z 0000000180018880 f i * CIL library *:* CIL module *
 0001:00017880       ??_GKafkaConsumerSeek@Workers@NodeKafka@@UEAAPEAXI@Z 0000000180018880 f i workers.obj
 0001:000178b0       ??1KafkaConsumerSeek@Workers@NodeKafka@@UEAA@XZ 00000001800188b0 f   workers.obj
 0001:00017930       ?Execute@KafkaConsumerSeek@Workers@NodeKafka@@UEAAXXZ 0000000180018930 f   workers.obj
 0001:000179a0       ?HandleOKCallback@KafkaConsumerSeek@Workers@NodeKafka@@UEAAXXZ 00000001800189a0 f   workers.obj
 0001:00017b1c       __imp_load_?AtExit@node@@YAXP6AXPEAX@Z0@Z 0000000180018b1c f   node:node.exe
 0001:00017b28       __tailMerge_node_exe       0000000180018b28 f i node:node.exe
 0001:00017ba1       __imp_load_node_module_register 0000000180018ba1 f   node:node.exe
 0001:00017bad       __imp_load_?ToLocalEmpty@V8@v8@@CAXXZ 0000000180018bad f   node:node.exe
 0001:00017bb9       __imp_load_?FromJustIsNothing@V8@v8@@CAXXZ 0000000180018bb9 f   node:node.exe
 0001:00017bc5       __imp_load_?Escape@EscapableHandleScope@v8@@AEAAPEAPEAVObject@internal@2@PEAPEAV342@@Z 0000000180018bc5 f   node:node.exe
 0001:00017bd1       __imp_load_??0EscapableHandleScope@v8@@QEAA@PEAVIsolate@1@@Z 0000000180018bd1 f   node:node.exe
 0001:00017bdd       __imp_load_?Int32Value@Value@v8@@QEBA?AV?$Maybe@H@2@V?$Local@VContext@v8@@@2@@Z 0000000180018bdd f   node:node.exe
 0001:00017be9       __imp_load_?GetFunction@FunctionTemplate@v8@@QEAA?AV?$MaybeLocal@VFunction@v8@@@2@V?$Local@VContext@v8@@@2@@Z 0000000180018be9 f   node:node.exe
 0001:00017bf5       __imp_load_?New@FunctionTemplate@v8@@SA?AV?$Local@VFunctionTemplate@v8@@@2@PEAVIsolate@2@P6AXAEBV?$FunctionCallbackInfo@VValue@v8@@@2@@ZV?$Local@VValue@v8@@@2@V?$Local@VSignature@v8@@@2@H@Z 0000000180018bf5 f   node:node.exe
 0001:00017c01       __imp_load_?NewFromUtf8@String@v8@@SA?AV?$Local@VString@v8@@@2@PEAVIsolate@2@PEBDW4NewStringType@12@H@Z 0000000180018c01 f   node:node.exe
 0001:00017c0d       __imp_load_?NewFromUtf8@String@v8@@SA?AV?$MaybeLocal@VString@v8@@@2@PEAVIsolate@2@PEBDW4NewStringType@2@H@Z 0000000180018c0d f   node:node.exe
 0001:00017c19       __imp_load_?CreateHandle@HandleScope@v8@@KAPEAPEAVObject@internal@2@PEAVIsolate@42@PEAV342@@Z 0000000180018c19 f   node:node.exe
 0001:00017c25       __imp_load_?CreateHandle@HandleScope@v8@@CAPEAPEAVObject@internal@2@PEAVHeapObject@42@PEAV342@@Z 0000000180018c25 f   node:node.exe
 0001:00017c31       __imp_load_??1HandleScope@v8@@QEAA@XZ 0000000180018c31 f   node:node.exe
 0001:00017c3d       __imp_load_??0HandleScope@v8@@QEAA@PEAVIsolate@1@@Z 0000000180018c3d f   node:node.exe
 0001:00017c49       __imp_load_?New@Number@v8@@SA?AV?$Local@VNumber@v8@@@2@PEAVIsolate@2@N@Z 0000000180018c49 f   node:node.exe
 0001:00017c55       __imp_load_?SlowGetInternalField@Object@v8@@AEAA?AV?$Local@VValue@v8@@@2@H@Z 0000000180018c55 f   node:node.exe
 0001:00017c61       __imp_load_?New@Object@v8@@SA?AV?$Local@VObject@v8@@@2@PEAVIsolate@2@@Z 0000000180018c61 f   node:node.exe
 0001:00017c6d       __imp_load_?GetIsolate@Object@v8@@QEAAPEAVIsolate@2@XZ 0000000180018c6d f   node:node.exe
 0001:00017c79       __imp_load_?SetInternalField@Object@v8@@QEAAXHV?$Local@VValue@v8@@@2@@Z 0000000180018c79 f   node:node.exe
 0001:00017c85       __imp_load_?ForceSet@Object@v8@@QEAA_NV?$Local@VValue@v8@@@2@0W4PropertyAttribute@2@@Z 0000000180018c85 f   node:node.exe
 0001:00017c91       __imp_load_?Set@Object@v8@@QEAA_NV?$Local@VValue@v8@@@2@0@Z 0000000180018c91 f   node:node.exe
 0001:00017c9d       __imp_load_?SetInternalFieldCount@ObjectTemplate@v8@@QEAAXH@Z 0000000180018c9d f   node:node.exe
 0001:00017ca9       __imp_load_?NewInstance@ObjectTemplate@v8@@QEAA?AV?$MaybeLocal@VObject@v8@@@2@V?$Local@VContext@v8@@@2@@Z 0000000180018ca9 f   node:node.exe
 0001:00017cb5       __imp_load_?New@ObjectTemplate@v8@@SA?AV?$Local@VObjectTemplate@v8@@@2@PEAVIsolate@2@V?$Local@VFunctionTemplate@v8@@@2@@Z 0000000180018cb5 f   node:node.exe
 0001:00017cc1       __imp_load_?GetCurrentContext@Isolate@v8@@QEAA?AV?$Local@VContext@v8@@@2@XZ 0000000180018cc1 f   node:node.exe
 0001:00017ccd       __imp_load_?GetCurrent@Isolate@v8@@SAPEAV12@XZ 0000000180018ccd f   node:node.exe
 0001:00017cd9       __imp_load_?Value@External@v8@@QEBAPEAXXZ 0000000180018cd9 f   node:node.exe
 0001:00017ce5       __imp_load_?New@External@v8@@SA?AV?$Local@VExternal@v8@@@2@PEAVIsolate@2@PEAX@Z 0000000180018ce5 f   node:node.exe
 0001:00017cf1       __imp_load_?New@Buffer@node@@YA?AV?$MaybeLocal@VObject@v8@@@v8@@PEAVIsolate@4@PEAD_K@Z 0000000180018cf1 f   node:node.exe
 0001:00017cfd       __imp_load_?MakeCallback@node@@YA?AV?$Local@VValue@v8@@@v8@@PEAVIsolate@3@V?$Local@VObject@v8@@@3@V?$Local@VFunction@v8@@@3@HPEAV23@@Z 0000000180018cfd f   node:node.exe
 0001:00017d09       __imp_load_uv_default_loop 0000000180018d09 f   node:node.exe
 0001:00017d15       __imp_load_?Global@Context@v8@@QEAA?AV?$Local@VObject@v8@@@2@XZ 0000000180018d15 f   node:node.exe
 0001:00017d21       __imp_load_?DisposeGlobal@V8@v8@@CAXPEAPEAVObject@internal@2@@Z 0000000180018d21 f   node:node.exe
 0001:00017d2d       __imp_load_?CopyPersistent@V8@v8@@CAPEAPEAVObject@internal@2@PEAPEAV342@@Z 0000000180018d2d f   node:node.exe
 0001:00017d39       __imp_load_?GlobalizeReference@V8@v8@@CAPEAPEAVObject@internal@2@PEAVIsolate@42@PEAPEAV342@@Z 0000000180018d39 f   node:node.exe
 0001:00017d45       __imp_load_?ToInt32@Value@v8@@QEBA?AV?$MaybeLocal@VInt32@v8@@@2@V?$Local@VContext@v8@@@2@@Z 0000000180018d45 f   node:node.exe
 0001:00017d51       __imp_load_?Error@Exception@v8@@SA?AV?$Local@VValue@v8@@@2@V?$Local@VString@v8@@@2@@Z 0000000180018d51 f   node:node.exe
 0001:00017d5d       __imp_load_?New@Array@v8@@SA?AV?$Local@VArray@v8@@@2@PEAVIsolate@2@H@Z 0000000180018d5d f   node:node.exe
 0001:00017d69       __imp_load_?Set@Object@v8@@QEAA?AV?$Maybe@_N@2@V?$Local@VContext@v8@@@2@V?$Local@VValue@v8@@@2@1@Z 0000000180018d69 f   node:node.exe
 0001:00017d75       __imp_load_?Set@Object@v8@@QEAA_NIV?$Local@VValue@v8@@@2@@Z 0000000180018d75 f   node:node.exe
 0001:00017d81       __imp_load_?New@Integer@v8@@SA?AV?$Local@VInteger@v8@@@2@PEAVIsolate@2@H@Z 0000000180018d81 f   node:node.exe
 0001:00017d8d       __imp_load_uv_mutex_unlock 0000000180018d8d f   node:node.exe
 0001:00017d99       __imp_load_uv_mutex_lock   0000000180018d99 f   node:node.exe
 0001:00017da5       __imp_load_uv_async_send   0000000180018da5 f   node:node.exe
 0001:00017db1       __imp_load_uv_mutex_destroy 0000000180018db1 f   node:node.exe
 0001:00017dbd       __imp_load_uv_async_init   0000000180018dbd f   node:node.exe
 0001:00017dc9       __imp_load_uv_close        0000000180018dc9 f   node:node.exe
 0001:00017dd5       __imp_load_uv_mutex_init   0000000180018dd5 f   node:node.exe
 0001:00017de1       __imp_load_?IntegerValue@Value@v8@@QEBA?AV?$Maybe@_J@2@V?$Local@VContext@v8@@@2@@Z 0000000180018de1 f   node:node.exe
 0001:00017ded       __imp_load_?BooleanValue@Value@v8@@QEBA?AV?$Maybe@_N@2@V?$Local@VContext@v8@@@2@@Z 0000000180018ded f   node:node.exe
 0001:00017df9       __imp_load_?ToObject@Value@v8@@QEBA?AV?$MaybeLocal@VObject@v8@@@2@V?$Local@VContext@v8@@@2@@Z 0000000180018df9 f   node:node.exe
 0001:00017e05       __imp_load_?ToString@Value@v8@@QEBA?AV?$MaybeLocal@VString@v8@@@2@V?$Local@VContext@v8@@@2@@Z 0000000180018e05 f   node:node.exe
 0001:00017e11       __imp_load_?IsRegExp@Value@v8@@QEBA_NXZ 0000000180018e11 f   node:node.exe
 0001:00017e1d       __imp_load_?IsNumber@Value@v8@@QEBA_NXZ 0000000180018e1d f   node:node.exe
 0001:00017e29       __imp_load_?IsBoolean@Value@v8@@QEBA_NXZ 0000000180018e29 f   node:node.exe
 0001:00017e35       __imp_load_?IsObject@Value@v8@@QEBA_NXZ 0000000180018e35 f   node:node.exe
 0001:00017e41       __imp_load_?IsArray@Value@v8@@QEBA_NXZ 0000000180018e41 f   node:node.exe
 0001:00017e4d       __imp_load_?WriteUtf8@String@v8@@QEBAHPEADHPEAHH@Z 0000000180018e4d f   node:node.exe
 0001:00017e59       __imp_load_?Length@String@v8@@QEBAHXZ 0000000180018e59 f   node:node.exe
 0001:00017e65       __imp_load_?Length@Array@v8@@QEBAIXZ 0000000180018e65 f   node:node.exe
 0001:00017e71       __imp_load_?Has@Object@v8@@QEAA?AV?$Maybe@_N@2@V?$Local@VContext@v8@@@2@V?$Local@VValue@v8@@@2@@Z 0000000180018e71 f   node:node.exe
 0001:00017e7d       __imp_load_?Get@Object@v8@@QEAA?AV?$MaybeLocal@VValue@v8@@@2@V?$Local@VContext@v8@@@2@V?$Local@VValue@v8@@@2@@Z 0000000180018e7d f   node:node.exe
 0001:00017e89       __imp_load_?Get@Object@v8@@QEAA?AV?$Local@VValue@v8@@@2@I@Z 0000000180018e89 f   node:node.exe
 0001:00017e95       __imp_load_?GetSource@RegExp@v8@@QEBA?AV?$Local@VString@v8@@@2@XZ 0000000180018e95 f   node:node.exe
 0001:00017ea1       __imp_load_?ToString@Value@v8@@QEBA?AV?$Local@VString@v8@@@2@XZ 0000000180018ea1 f   node:node.exe
 0001:00017ead       __imp_load_?IsFunction@Value@v8@@QEBA_NXZ 0000000180018ead f   node:node.exe
 0001:00017eb9       __imp_load_?GetOwnPropertyNames@Object@v8@@QEAA?AV?$Local@VArray@v8@@@2@XZ 0000000180018eb9 f   node:node.exe
 0001:00017ec5       __imp_load_?Get@Object@v8@@QEAA?AV?$Local@VValue@v8@@@2@V32@@Z 0000000180018ec5 f   node:node.exe
 0001:00017ed1       __imp_load_?ClearWeak@V8@v8@@CAPEAXPEAPEAVObject@internal@2@@Z 0000000180018ed1 f   node:node.exe
 0001:00017edd       __imp_load_?MakeWeak@V8@v8@@CAXPEAPEAVObject@internal@2@PEAXP6AXAEBV?$WeakCallbackInfo@X@2@@ZW4WeakCallbackType@2@@Z 0000000180018edd f   node:node.exe
 0001:00017ee9       __imp_load_?SlowGetAlignedPointerFromInternalField@Object@v8@@AEAAPEAXH@Z 0000000180018ee9 f   node:node.exe
 0001:00017ef5       __imp_load_?InternalFieldCount@Object@v8@@QEAAHXZ 0000000180018ef5 f   node:node.exe
 0001:00017f01       __imp_load_?ThrowException@Isolate@v8@@QEAA?AV?$Local@VValue@v8@@@2@V32@@Z 0000000180018f01 f   node:node.exe
 0001:00017f0d       __imp_load_uv_rwlock_init  0000000180018f0d f   node:node.exe
 0001:00017f19       __imp_load_uv_rwlock_destroy 0000000180018f19 f   node:node.exe
 0001:00017f25       __imp_load_uv_rwlock_rdunlock 0000000180018f25 f   node:node.exe
 0001:00017f31       __imp_load_uv_queue_work   0000000180018f31 f   node:node.exe
 0001:00017f3d       __imp_load_uv_rwlock_rdlock 0000000180018f3d f   node:node.exe
 0001:00017f49       __imp_load_?New@Signature@v8@@SA?AV?$Local@VSignature@v8@@@2@PEAVIsolate@2@V?$Local@VFunctionTemplate@v8@@@2@@Z 0000000180018f49 f   node:node.exe
 0001:00017f55       __imp_load_?Uint32Value@Value@v8@@QEBA?AV?$Maybe@I@2@V?$Local@VContext@v8@@@2@@Z 0000000180018f55 f   node:node.exe
 0001:00017f61       __imp_load_?SetClassName@FunctionTemplate@v8@@QEAAXV?$Local@VString@v8@@@2@@Z 0000000180018f61 f   node:node.exe
 0001:00017f6d       __imp_load_?PrototypeTemplate@FunctionTemplate@v8@@QEAA?AV?$Local@VObjectTemplate@v8@@@2@XZ 0000000180018f6d f   node:node.exe
 0001:00017f79       __imp_load_?InstanceTemplate@FunctionTemplate@v8@@QEAA?AV?$Local@VObjectTemplate@v8@@@2@XZ 0000000180018f79 f   node:node.exe
 0001:00017f85       __imp_load_?GetFunction@FunctionTemplate@v8@@QEAA?AV?$Local@VFunction@v8@@@2@XZ 0000000180018f85 f   node:node.exe
 0001:00017f91       __imp_load_?SetAlignedPointerInInternalField@Object@v8@@QEAAXHPEAX@Z 0000000180018f91 f   node:node.exe
 0001:00017f9d       __imp_load_?Set@Template@v8@@QEAAXV?$Local@VName@v8@@@2@V?$Local@VData@v8@@@2@W4PropertyAttribute@2@@Z 0000000180018f9d f   node:node.exe
 0001:00017fa9       __imp_load_uv_rwlock_wrunlock 0000000180018fa9 f   node:node.exe
 0001:00017fb5       __imp_load_uv_rwlock_wrlock 0000000180018fb5 f   node:node.exe
 0001:00017fc1       __imp_load_?ToObject@Value@v8@@QEBA?AV?$Local@VObject@v8@@@2@XZ 0000000180018fc1 f   node:node.exe
 0001:00017fcd       __imp_load_?Length@Buffer@node@@YA_KV?$Local@VObject@v8@@@v8@@@Z 0000000180018fcd f   node:node.exe
 0001:00017fd9       __imp_load_?Data@Buffer@node@@YAPEADV?$Local@VObject@v8@@@v8@@@Z 0000000180018fd9 f   node:node.exe
 0001:00017fe5       __imp_load_?HasInstance@Buffer@node@@YA_NV?$Local@VValue@v8@@@v8@@@Z 0000000180018fe5 f   node:node.exe
 0001:00017ff4       ??0bad_alloc@std@@QEAA@AEBV01@@Z 0000000180018ff4 f i libcpmt:xthrow.obj
 0001:00018018       ??0length_error@std@@QEAA@AEBV01@@Z 0000000180019018 f i libcpmt:xthrow.obj
 0001:0001803c       ??0logic_error@std@@QEAA@AEBV01@@Z 000000018001903c f i libcpmt:xthrow.obj
 0001:00018060       ??0out_of_range@std@@QEAA@AEBV01@@Z 0000000180019060 f i libcpmt:xthrow.obj
 0001:00018084       ??1bad_alloc@std@@UEAA@XZ  0000000180019084 f i libcpmt:xthrow.obj
 0001:00018094       ??1length_error@std@@UEAA@XZ 0000000180019094 f i libcpmt:xthrow.obj
 0001:00018094       ??1out_of_range@std@@UEAA@XZ 0000000180019094 f i libcpmt:xthrow.obj
 0001:0001809c       ??_Gbad_alloc@std@@UEAAPEAXI@Z 000000018001909c f i libcpmt:xthrow.obj
 0001:0001809c       ??_Ebad_alloc@std@@UEAAPEAXI@Z 000000018001909c f i libcpmt:xthrow.obj
 0001:000180d8       ??_Glength_error@std@@UEAAPEAXI@Z 00000001800190d8 f i libcpmt:xthrow.obj
 0001:000180d8       ??_Elength_error@std@@UEAAPEAXI@Z 00000001800190d8 f i libcpmt:xthrow.obj
 0001:000180d8       ??_Gout_of_range@std@@UEAAPEAXI@Z 00000001800190d8 f i libcpmt:xthrow.obj
 0001:000180d8       ??_Elogic_error@std@@UEAAPEAXI@Z 00000001800190d8 f i libcpmt:xthrow.obj
 0001:000180d8       ??_Eout_of_range@std@@UEAAPEAXI@Z 00000001800190d8 f i libcpmt:xthrow.obj
 0001:000180d8       ??_Glogic_error@std@@UEAAPEAXI@Z 00000001800190d8 f i libcpmt:xthrow.obj
 0001:00018108       ?_Xbad_alloc@std@@YAXXZ    0000000180019108 f   libcpmt:xthrow.obj
 0001:0001814c       ?_Xlength_error@std@@YAXPEBD@Z 000000018001914c f   libcpmt:xthrow.obj
 0001:00018184       ?_Xout_of_range@std@@YAXPEBD@Z 0000000180019184 f   libcpmt:xthrow.obj
 0001:000181bc       ??4?$_Yarn@D@std@@QEAAAEAV01@PEBD@Z 00000001800191bc f i libcpmt:locale0.obj
 0001:00018234       ??_G_Locimp@locale@std@@MEAAPEAXI@Z 0000000180019234 f i libcpmt:locale0.obj
 0001:00018234       ??_E_Locimp@locale@std@@MEAAPEAXI@Z 0000000180019234 f i libcpmt:locale0.obj
 0001:0001828c       ?_Facet_Register@std@@YAXPEAV_Facet_base@1@@Z 000000018001928c f   libcpmt:locale0.obj
 0001:000182c0       ?_Getgloballocale@locale@std@@CAPEAV_Locimp@12@XZ 00000001800192c0 f   libcpmt:locale0.obj
 0001:000182c8       ?_Init@locale@std@@CAPEAV_Locimp@12@_N@Z 00000001800192c8 f   libcpmt:locale0.obj
 0001:00018368       ?_Locimp_dtor@_Locimp@locale@std@@CAXPEAV123@@Z 0000000180019368 f   libcpmt:locale0.obj
 0001:000183e0       ?_Locinfo_ctor@_Locinfo@std@@SAXPEAV12@PEBD@Z 00000001800193e0 f   libcpmt:locale0.obj
 0001:0001844c       ?_Locinfo_dtor@_Locinfo@std@@SAXPEAV12@@Z 000000018001944c f   libcpmt:locale0.obj
 0001:00018470       ?_New_Locimp@_Locimp@locale@std@@CAPEAV123@_N@Z 0000000180019470 f   libcpmt:locale0.obj
 0001:000184dc       ?_Setgloballocale@locale@std@@CAXPEAX@Z 00000001800194dc f   libcpmt:locale0.obj
 0001:00018510       _Deletegloballocale        0000000180019510 f   libcpmt:locale0.obj
 0001:00018570       ??$use_facet@V?$codecvt@DDH@std@@@std@@YAAEBV?$codecvt@DDH@0@AEBVlocale@0@@Z 0000000180019570 f i libcpmt:cerr.obj
 0001:000186a0       ??0?$basic_ostream@DU?$char_traits@D@std@@@std@@QEAA@PEAV?$basic_streambuf@DU?$char_traits@D@std@@@1@_N@Z 00000001800196a0 f i libcpmt:cerr.obj
 0001:0001871c       ??0?$basic_streambuf@DU?$char_traits@D@std@@@std@@IEAA@XZ 000000018001971c f i libcpmt:cerr.obj
 0001:000187c0       ??1?$basic_filebuf@DU?$char_traits@D@std@@@std@@UEAA@XZ 00000001800197c0 f i libcpmt:cerr.obj
 0001:00018880       ??1?$basic_ios@DU?$char_traits@D@std@@@std@@UEAA@XZ 0000000180019880 f i libcpmt:cerr.obj
 0001:00018890       ??_E?$basic_ostream@DU?$char_traits@D@std@@@std@@$4PPPPPPPM@A@EAAPEAXI@Z 0000000180019890 f i libcpmt:cerr.obj
 0001:0001889c       ??_E?$basic_filebuf@DU?$char_traits@D@std@@@std@@UEAAPEAXI@Z 000000018001989c f i libcpmt:cerr.obj
 0001:0001889c       ??_G?$basic_filebuf@DU?$char_traits@D@std@@@std@@UEAAPEAXI@Z 000000018001989c f i libcpmt:cerr.obj
 0001:000188cc       ??_G?$basic_ostream@DU?$char_traits@D@std@@@std@@UEAAPEAXI@Z 00000001800198cc f i libcpmt:cerr.obj
 0001:000188cc       ??_E?$basic_ostream@DU?$char_traits@D@std@@@std@@UEAAPEAXI@Z 00000001800198cc f i libcpmt:cerr.obj
 0001:00018930       ??_E?$basic_streambuf@DU?$char_traits@D@std@@@std@@UEAAPEAXI@Z 0000000180019930 f i libcpmt:cerr.obj
 0001:00018930       ??_G?$basic_streambuf@DU?$char_traits@D@std@@@std@@UEAAPEAXI@Z 0000000180019930 f i libcpmt:cerr.obj
 0001:000189a4       ??_E?$basic_ios@DU?$char_traits@D@std@@@std@@UEAAPEAXI@Z 00000001800199a4 f i libcpmt:cerr.obj
 0001:000189a4       ??_G?$basic_ios@DU?$char_traits@D@std@@@std@@UEAAPEAXI@Z 00000001800199a4 f i libcpmt:cerr.obj
 0001:000189a4       ??_Gios_base@std@@UEAAPEAXI@Z 00000001800199a4 f i libcpmt:cerr.obj
 0001:000189a4       ??_Eios_base@std@@UEAAPEAXI@Z 00000001800199a4 f i libcpmt:cerr.obj
 0001:000189e0       ?_Endwrite@?$basic_filebuf@DU?$char_traits@D@std@@@std@@IEAA_NXZ 00000001800199e0 f i libcpmt:cerr.obj
 0001:00018b7c       ?_Getcat@?$codecvt@DDH@std@@SA_KPEAPEBVfacet@locale@2@PEBV42@@Z 0000000180019b7c f i libcpmt:cerr.obj
 0001:00018c40       ?_Init@?$basic_filebuf@DU?$char_traits@D@std@@@std@@IEAAXPEAU_iobuf@@W4_Initfl@12@@Z 0000000180019c40 f i libcpmt:cerr.obj
 0001:00018cec       ?_Init@ios_base@std@@IEAAXXZ 0000000180019cec f i libcpmt:cerr.obj
 0001:00018d60       ?_Initcvt@?$basic_filebuf@DU?$char_traits@D@std@@@std@@IEAAXPEBV?$codecvt@DDH@2@@Z 0000000180019d60 f i libcpmt:cerr.obj
 0001:00018de8       ?_Lock@?$basic_filebuf@DU?$char_traits@D@std@@@std@@UEAAXXZ 0000000180019de8 f i libcpmt:cerr.obj
 0001:00018e04       ?_Unlock@?$basic_filebuf@DU?$char_traits@D@std@@@std@@UEAAXXZ 0000000180019e04 f i libcpmt:cerr.obj
 0001:00018e20       ?append@?$basic_string@DU?$char_traits@D@std@@V?$allocator@D@2@@std@@QEAAAEAV12@_KD@Z 0000000180019e20 f i libcpmt:cerr.obj
 0001:00018ee8       ?do_always_noconv@?$codecvt@DDH@std@@MEBA_NXZ 0000000180019ee8 f i libcpmt:cerr.obj
 0001:00018eec       ?do_in@?$codecvt@DDH@std@@MEBAHAEAHPEBD1AEAPEBDPEAD3AEAPEAD@Z 0000000180019eec f i libcpmt:cerr.obj
 0001:00018eec       ?do_out@?$codecvt@DDH@std@@MEBAHAEAHPEBD1AEAPEBDPEAD3AEAPEAD@Z 0000000180019eec f i libcpmt:cerr.obj
 0001:00018f08       ?do_length@?$codecvt@DDH@std@@MEBAHAEAHPEBD1_K@Z 0000000180019f08 f i libcpmt:cerr.obj
 0001:00018f1c       DllMain                    0000000180019f1c f i LIBCMT:dllmain.obj
 0001:00018f1c       ?do_encoding@codecvt_base@std@@MEBAHXZ 0000000180019f1c f i libcpmt:cerr.obj
 0001:00018f1c       ?do_max_length@codecvt_base@std@@MEBAHXZ 0000000180019f1c f i libcpmt:cerr.obj
 0001:00018f24       ?do_unshift@?$codecvt@DDH@std@@MEBAHAEAHPEAD1AEAPEAD@Z 0000000180019f24 f i libcpmt:cerr.obj
 0001:00018f30       ?imbue@?$basic_filebuf@DU?$char_traits@D@std@@@std@@MEAAXAEBVlocale@2@@Z 0000000180019f30 f i libcpmt:cerr.obj
 0001:00018f54       ?init@?$basic_ios@DU?$char_traits@D@std@@@std@@IEAAXPEAV?$basic_streambuf@DU?$char_traits@D@std@@@2@_N@Z 0000000180019f54 f i libcpmt:cerr.obj
 0001:00019004       ?overflow@?$basic_filebuf@DU?$char_traits@D@std@@@std@@MEAAHH@Z 000000018001a004 f i libcpmt:cerr.obj
 0001:0001924c       ?pbackfail@?$basic_streambuf@DU?$char_traits@D@std@@@std@@MEAAHH@Z 000000018001a24c f i libcpmt:cerr.obj
 0001:0001924c       ?overflow@?$basic_streambuf@DU?$char_traits@D@std@@@std@@MEAAHH@Z 000000018001a24c f i libcpmt:cerr.obj
 0001:0001924c       ?underflow@?$basic_streambuf@DU?$char_traits@D@std@@@std@@MEAAHXZ 000000018001a24c f i libcpmt:cerr.obj
 0001:00019250       ?pbackfail@?$basic_filebuf@DU?$char_traits@D@std@@@std@@MEAAHH@Z 000000018001a250 f i libcpmt:cerr.obj
 0001:00019320       ?seekoff@?$basic_filebuf@DU?$char_traits@D@std@@@std@@MEAA?AV?$fpos@H@2@_JHH@Z 000000018001a320 f i libcpmt:cerr.obj
 0001:0001940c       ?seekoff@?$basic_streambuf@DU?$char_traits@D@std@@@std@@MEAA?AV?$fpos@H@2@_JHH@Z 000000018001a40c f i libcpmt:cerr.obj
 0001:0001940c       ?seekpos@?$basic_streambuf@DU?$char_traits@D@std@@@std@@MEAA?AV?$fpos@H@2@V32@H@Z 000000018001a40c f i libcpmt:cerr.obj
 0001:00019424       ?seekpos@?$basic_filebuf@DU?$char_traits@D@std@@@std@@MEAA?AV?$fpos@H@2@V32@H@Z 000000018001a424 f i libcpmt:cerr.obj
 0001:00019528       ?setbuf@?$basic_filebuf@DU?$char_traits@D@std@@@std@@MEAAPEAV?$basic_streambuf@DU?$char_traits@D@std@@@2@PEAD_J@Z 000000018001a528 f i libcpmt:cerr.obj
 0001:0001957c       ?setbuf@?$basic_streambuf@DU?$char_traits@D@std@@@std@@MEAAPEAV12@PEAD_J@Z 000000018001a57c f i libcpmt:cerr.obj
 0001:00019580       ?sync@?$basic_filebuf@DU?$char_traits@D@std@@@std@@MEAAHXZ 000000018001a580 f i libcpmt:cerr.obj
 0001:000195c8       ?sync@?$basic_streambuf@DU?$char_traits@D@std@@@std@@MEAAHXZ 000000018001a5c8 f i libcpmt:cerr.obj
 0001:000195c8       __init_dummy               000000018001a5c8 f i LIBCMT:wsetloca.obj
 0001:000195c8       ?showmanyc@?$basic_streambuf@DU?$char_traits@D@std@@@std@@MEAA_JXZ 000000018001a5c8 f i libcpmt:cerr.obj
 0001:000195c8       __init_collate             000000018001a5c8 f i LIBCMT:initcoll.obj
 0001:000195cc       ?uflow@?$basic_filebuf@DU?$char_traits@D@std@@@std@@MEAAHXZ 000000018001a5cc f i libcpmt:cerr.obj
 0001:00019818       ?uflow@?$basic_streambuf@DU?$char_traits@D@std@@@std@@MEAAHXZ 000000018001a818 f i libcpmt:cerr.obj
 0001:00019850       ?underflow@?$basic_filebuf@DU?$char_traits@D@std@@@std@@MEAAHXZ 000000018001a850 f i libcpmt:cerr.obj
 0001:000198a8       ?xsgetn@?$basic_streambuf@DU?$char_traits@D@std@@@std@@MEAA_JPEAD_J@Z 000000018001a8a8 f i libcpmt:cerr.obj
 0001:00019960       ?xsputn@?$basic_streambuf@DU?$char_traits@D@std@@@std@@MEAA_JPEBD_J@Z 000000018001a960 f i libcpmt:cerr.obj
 0001:00019a1c       ??0_Init_locks@std@@QEAA@XZ 000000018001aa1c f   libcpmt:xlock.obj
 0001:00019a68       ??0_Lockit@std@@QEAA@H@Z   000000018001aa68 f   libcpmt:xlock.obj
 0001:00019aa8       ??1_Init_locks@std@@QEAA@XZ 000000018001aaa8 f   libcpmt:xlock.obj
 0001:00019ae4       ??1_Lockit@std@@QEAA@XZ    000000018001aae4 f   libcpmt:xlock.obj
 0001:00019b1c       _Getctype                  000000018001ab1c f   libcpmt:_tolower.obj
 0001:00019b98       _Tolower                   000000018001ab98 f   libcpmt:_tolower.obj
 0001:00019ccc       _Toupper                   000000018001accc f   libcpmt:_toupper.obj
 0001:00019e10       ??0_Init_cout@std@@QEAA@XZ 000000018001ae10 f i libcpmt:cout.obj
 0001:00019e7c       ??_U@YAPEAX_K@Z            000000018001ae7c f   libcpmt:newaop.obj
 0001:00019e84       ?_Atexit@@YAXP6AXXZ@Z      000000018001ae84 f   libcpmt:iosptrs.obj
 0001:00019ec4       ?_Addstd@ios_base@std@@SAXPEAV12@@Z 000000018001aec4 f   libcpmt:ios.obj
 0001:00019f34       ?_Ios_base_dtor@ios_base@std@@CAXPEAV12@@Z 000000018001af34 f   libcpmt:ios.obj
 0001:00019f98       ?_Tidy@ios_base@std@@AEAAXXZ 000000018001af98 f i libcpmt:ios.obj
 0001:0001a008       _Mtxdst                    000000018001b008 f   libcpmt:xmtx.obj
 0001:0001a010       _Mtxinit                   000000018001b010 f   libcpmt:xmtx.obj
 0001:0001a020       _Mtxlock                   000000018001b020 f   libcpmt:xmtx.obj
 0001:0001a028       _Mtxunlock                 000000018001b028 f   libcpmt:xmtx.obj
 0001:0001a040       __security_check_cookie    000000018001b040 f   LIBCMT:amdsecgs.obj
 0001:0001a070       memcpy                     000000018001b070 f   LIBCMT:memcpy.obj
 0001:0001a070       memmove                    000000018001b070 f   LIBCMT:memcpy.obj
 0001:0001a5d8       _wassert                   000000018001b5d8 f   LIBCMT:wassert.obj
 0001:0001af3c       __onexitinit               000000018001bf3c f   LIBCMT:onexit.obj
 0001:0001af80       _onexit                    000000018001bf80 f   LIBCMT:onexit.obj
 0001:0001b08c       atexit                     000000018001c08c f   LIBCMT:onexit.obj
 0001:0001b0a4       _purecall                  000000018001c0a4 f   LIBCMT:purevirt.obj
 0001:0001b0d0       ??3@YAXPEAX@Z              000000018001c0d0 f   LIBCMT:delete.obj
 0001:0001b0d8       ??8type_info@@QEBA_NAEBV0@@Z 000000018001c0d8 f   LIBCMT:typinfo.obj
 0001:0001b0f8       ??_Etype_info@@UEAAPEAXI@Z 000000018001c0f8 f i LIBCMT:typinfo.obj
 0001:0001b0f8       ??_Gtype_info@@UEAAPEAXI@Z 000000018001c0f8 f i LIBCMT:typinfo.obj
 0001:0001b134       ??2@YAPEAX_K@Z             000000018001c134 f   LIBCMT:new.obj
 0001:0001b1a0       malloc                     000000018001c1a0 f   LIBCMT:malloc.obj
 0001:0001b258       rand                       000000018001c258 f   LIBCMT:rand.obj
 0001:0001b284       _set_abort_behavior        000000018001c284 f   LIBCMT:abort.obj
 0001:0001b2a0       abort                      000000018001c2a0 f   LIBCMT:abort.obj
 0001:0001b2f8       _call_reportfault          000000018001c2f8 f   LIBCMT:invarg.obj
 0001:0001b3ec       _initp_misc_invarg         000000018001c3ec f   LIBCMT:invarg.obj
 0001:0001b3f4       _invalid_parameter         000000018001c3f4 f   LIBCMT:invarg.obj
 0001:0001b45c       _invalid_parameter_noinfo  000000018001c45c f   LIBCMT:invarg.obj
 0001:0001b47c       _invoke_watson             000000018001c47c f   LIBCMT:invarg.obj
 0001:0001b4b8       free                       000000018001c4b8 f   LIBCMT:free.obj
 0001:0001b4f8       ??_V@YAXPEAX@Z             000000018001c4f8 f   LIBCMT:delete2.obj
 0001:0001b500       _sleep                     000000018001c500 f   LIBCMT:slbeep.obj
 0001:0001b514       _time64                    000000018001c514 f   LIBCMT:time64.obj
 0001:0001b574       ??0_LocaleUpdate@@QEAA@PEAUlocaleinfo_struct@@@Z 000000018001c574 f i LIBCMT:stricmp.obj
 0001:0001b61c       __ascii_stricmp            000000018001c61c f   LIBCMT:stricmp.obj
 0001:0001b658       _stricmp                   000000018001c658 f   LIBCMT:stricmp.obj
 0001:0001b6a0       _stricmp_l                 000000018001c6a0 f   LIBCMT:stricmp.obj
 0001:0001b754       _CRT_INIT                  000000018001c754 f   LIBCMT:dllcrt0.obj
 0001:0001b8b4       _DllMainCRTStartup         000000018001c8b4 f   LIBCMT:dllcrt0.obj
 0001:0001ba30       strlen                     000000018001ca30 f   LIBCMT:strlen.obj
 0001:0001bad8       _CxxThrowException         000000018001cad8 f   LIBCMT:throw.obj
 0001:0001bba0       ?_GetEstablisherFrame@@YAPEA_KPEA_KPEAU_xDISPATCHER_CONTEXT@@PEBU_s_FuncInfo@@0@Z 000000018001cba0 f   LIBCMT:trnsctrl.obj
 0001:0001bc6c       ?_GetRangeOfTrysToCheck@@YAPEBU_s_TryBlockMapEntry@@PEA_KPEBU_s_FuncInfo@@HHPEAI2PEAU_xDISPATCHER_CONTEXT@@@Z 000000018001cc6c f   LIBCMT:trnsctrl.obj
 0001:0001bd98       ?__FrameUnwindToEmptyState@@YAXPEA_KPEAU_xDISPATCHER_CONTEXT@@PEBU_s_FuncInfo@@@Z 000000018001cd98 f   LIBCMT:trnsctrl.obj
 0001:0001be2c       ?__SehTransFilter@@YAHPEAU_EXCEPTION_POINTERS@@PEAUEHExceptionRecord@@PEA_KPEAU_CONTEXT@@PEAU_xDISPATCHER_CONTEXT@@PEBU_s_FuncInfo@@PEAH@Z 000000018001ce2c f   LIBCMT:trnsctrl.obj
 0001:0001bed0       _CallSETranslator          000000018001ced0 f   LIBCMT:trnsctrl.obj
 0001:0001bf24       _CreateFrameInfo           000000018001cf24 f   LIBCMT:trnsctrl.obj
 0001:0001bf68       _FindAndUnlinkFrame        000000018001cf68 f   LIBCMT:trnsctrl.obj
 0001:0001bfc8       _GetImageBase              000000018001cfc8 f   LIBCMT:trnsctrl.obj
 0001:0001bfe0       _GetThrowImageBase         000000018001cfe0 f   LIBCMT:trnsctrl.obj
 0001:0001bff8       _IsExceptionObjectToBeDestroyed 000000018001cff8 f   LIBCMT:trnsctrl.obj
 0001:0001c02c       _SetImageBase              000000018001d02c f   LIBCMT:trnsctrl.obj
 0001:0001c048       _SetThrowImageBase         000000018001d048 f   LIBCMT:trnsctrl.obj
 0001:0001c064       _UnwindNestedFrames        000000018001d064 f   LIBCMT:trnsctrl.obj
 0001:0001c188       __CxxFrameHandler3         000000018001d188 f   LIBCMT:trnsctrl.obj
 0001:0001c210       _fpmath                    000000018001d210 f   LIBCMT:fpinit.obj
 0001:0001c218       _cfltcvt_init              000000018001d218 f   LIBCMT:fpinit.obj
 0001:0001c2a0       ??0__non_rtti_object@std@@QEAA@AEBV01@@Z 000000018001d2a0 f   LIBCMT:stdexcpt.obj
 0001:0001c2c4       ??0__non_rtti_object@std@@QEAA@PEBD@Z 000000018001d2c4 f   LIBCMT:stdexcpt.obj
 0001:0001c2e8       ??0bad_cast@std@@QEAA@AEBV01@@Z 000000018001d2e8 f   LIBCMT:stdexcpt.obj
 0001:0001c30c       ??0bad_cast@std@@QEAA@PEBD@Z 000000018001d30c f   LIBCMT:stdexcpt.obj
 0001:0001c338       ??0bad_typeid@std@@QEAA@AEBV01@@Z 000000018001d338 f   LIBCMT:stdexcpt.obj
 0001:0001c35c       ??0bad_typeid@std@@QEAA@PEBD@Z 000000018001d35c f   LIBCMT:stdexcpt.obj
 0001:0001c388       ??0exception@std@@QEAA@AEBQEBD@Z 000000018001d388 f   LIBCMT:stdexcpt.obj
 0001:0001c3b8       ??0exception@std@@QEAA@AEBQEBDH@Z 000000018001d3b8 f   LIBCMT:stdexcpt.obj
 0001:0001c3d4       ??0exception@std@@QEAA@AEBV01@@Z 000000018001d3d4 f   LIBCMT:stdexcpt.obj
 0001:0001c400       ??1__non_rtti_object@std@@UEAA@XZ 000000018001d400 f   LIBCMT:stdexcpt.obj
 0001:0001c400       ??1bad_cast@std@@UEAA@XZ   000000018001d400 f   LIBCMT:stdexcpt.obj
 0001:0001c400       ??1exception@std@@UEAA@XZ  000000018001d400 f   LIBCMT:stdexcpt.obj
 0001:0001c410       ??4exception@std@@QEAAAEAV01@AEBV01@@Z 000000018001d410 f   LIBCMT:stdexcpt.obj
 0001:0001c454       ??_G__non_rtti_object@std@@UEAAPEAXI@Z 000000018001d454 f i LIBCMT:stdexcpt.obj
 0001:0001c454       ??_Eexception@std@@UEAAPEAXI@Z 000000018001d454 f i LIBCMT:stdexcpt.obj
 0001:0001c454       ??_Gbad_cast@std@@UEAAPEAXI@Z 000000018001d454 f i LIBCMT:stdexcpt.obj
 0001:0001c454       ??_Gbad_typeid@std@@UEAAPEAXI@Z 000000018001d454 f i LIBCMT:stdexcpt.obj
 0001:0001c454       ??_E__non_rtti_object@std@@UEAAPEAXI@Z 000000018001d454 f i LIBCMT:stdexcpt.obj
 0001:0001c454       ??_Ebad_cast@std@@UEAAPEAXI@Z 000000018001d454 f i LIBCMT:stdexcpt.obj
 0001:0001c454       ??_Ebad_typeid@std@@UEAAPEAXI@Z 000000018001d454 f i LIBCMT:stdexcpt.obj
 0001:0001c454       ??_Gexception@std@@UEAAPEAXI@Z 000000018001d454 f i LIBCMT:stdexcpt.obj
 0001:0001c490       ?_Copy_str@exception@std@@AEAAXPEBD@Z 000000018001d490 f   LIBCMT:stdexcpt.obj
 0001:0001c4ec       ?_Tidy@exception@std@@AEAAXXZ 000000018001d4ec f   LIBCMT:stdexcpt.obj
 0001:0001c514       ?what@exception@std@@UEBAPEBDXZ 000000018001d514 f   LIBCMT:stdexcpt.obj
 0001:0001c528       setlocale                  000000018001d528 f   LIBCMT:setlocal.obj
 0001:0001c798       __initstdio                000000018001d798 f   LIBCMT:_file.obj
 0001:0001c830       __endstdio                 000000018001d830 f   LIBCMT:_file.obj
 0001:0001c860       __iob_func                 000000018001d860 f   LIBCMT:_file.obj
 0001:0001c868       _lock_file                 000000018001d868 f   LIBCMT:_file.obj
 0001:0001c8d0       _lock_file2                000000018001d8d0 f   LIBCMT:_file.obj
 0001:0001c904       _unlock_file               000000018001d904 f   LIBCMT:_file.obj
 0001:0001c954       _unlock_file2              000000018001d954 f   LIBCMT:_file.obj
 0001:0001c974       _fclose_nolock             000000018001d974 f   LIBCMT:fclose.obj
 0001:0001c9f0       fclose                     000000018001d9f0 f   LIBCMT:fclose.obj
 0001:0001ca58       _fflush_nolock             000000018001da58 f   LIBCMT:fflush.obj
 0001:0001caa4       _flush                     000000018001daa4 f   LIBCMT:fflush.obj
 0001:0001cb20       _flushall                  000000018001db20 f   LIBCMT:fflush.obj
 0001:0001cb2c       fflush                     000000018001db2c f   LIBCMT:fflush.obj
 0001:0001cc58       fgetc                      000000018001dc58 f   LIBCMT:fgetc.obj
 0001:0001cd58       fgetpos                    000000018001dd58 f   LIBCMT:fgetpos.obj
 0001:0001cda4       fputc                      000000018001dda4 f   LIBCMT:fputc.obj
 0001:0001ceb4       fsetpos                    000000018001deb4 f   LIBCMT:fsetpos.obj
 0001:0001ceec       _fseeki64                  000000018001deec f   LIBCMT:fseeki64.obj
 0001:0001cf60       _fseeki64_nolock           000000018001df60 f   LIBCMT:fseeki64.obj
 0001:0001d014       _fwrite_nolock             000000018001e014 f   LIBCMT:fwrite.obj
 0001:0001d1a4       fwrite                     000000018001e1a4 f   LIBCMT:fwrite.obj
 0001:0001d234       setvbuf                    000000018001e234 f   LIBCMT:setvbuf.obj
 0001:0001d34c       _ungetc_nolock             000000018001e34c f   LIBCMT:ungetc.obj
 0001:0001d454       ungetc                     000000018001e454 f   LIBCMT:ungetc.obj
 0001:0001d4b4       memcpy_s                   000000018001e4b4 f   LIBCMT:memcpy_s.obj
 0001:0001d550       memset                     000000018001e550 f   LIBCMT:memset.obj
 0001:0001d77c       __GSHandlerCheck_EH        000000018001e77c f   LIBCMT:gshandlereh.obj
 0001:0001d80c       _lock                      000000018001e80c f   LIBCMT:mlock.obj
 0001:0001d850       _mtdeletelocks             000000018001e850 f   LIBCMT:mlock.obj
 0001:0001d8d8       _mtinitlocknum             000000018001e8d8 f   LIBCMT:mlock.obj
 0001:0001d998       _mtinitlocks               000000018001e998 f   LIBCMT:mlock.obj
 0001:0001d9fc       _unlock                    000000018001e9fc f   LIBCMT:mlock.obj
 0001:0001da14       __pctype_func              000000018001ea14 f   LIBCMT:ctype.obj
 0001:0001da50       isdigit                    000000018001ea50 f i LIBCMT:_ctype.obj
 0001:0001dacc       islower                    000000018001eacc f i LIBCMT:_ctype.obj
 0001:0001db48       isupper                    000000018001eb48 f i LIBCMT:_ctype.obj
 0001:0001dbc4       _wcsdup                    000000018001ebc4 f   LIBCMT:wcsdup.obj
 0001:0001dc3c       ___lc_codepage_func        000000018001ec3c f   LIBCMT:initctyp.obj
 0001:0001dc74       ___lc_locale_name_func     000000018001ec74 f   LIBCMT:initctyp.obj
 0001:0001dcb0       __init_ctype               000000018001ecb0 f   LIBCMT:initctyp.obj
 0001:0001e3c0       __crtLCMapStringA          000000018001f3c0 f   LIBCMT:a_map.obj
 0001:0001e458       _calloc_crt                000000018001f458 f   LIBCMT:crtheap.obj
 0001:0001e4d8       _malloc_crt                000000018001f4d8 f   LIBCMT:crtheap.obj
 0001:0001e554       _realloc_crt               000000018001f554 f   LIBCMT:crtheap.obj
 0001:0001e5d8       __doserrno                 000000018001f5d8 f   LIBCMT:dosmap.obj
 0001:0001e5f8       _dosmaperr                 000000018001f5f8 f   LIBCMT:dosmap.obj
 0001:0001e648       _errno                     000000018001f648 f   LIBCMT:dosmap.obj
 0001:0001e668       _get_errno_from_oserr      000000018001f668 f   LIBCMT:dosmap.obj
 0001:0001e734       _ismbblead                 000000018001f734 f   LIBCMT:ismbbyte.obj
 0001:0001e760       strcmp                     000000018001f760 f   LIBCMT:strcmp.obj
 0001:0001e7c8       __GSHandlerCheck           000000018001f7c8 f   LIBCMT:gshandler.obj
 0001:0001e7e8       __GSHandlerCheckCommon     000000018001f7e8 f   LIBCMT:gshandler.obj
 0001:0001e84c       __crtCaptureCurrentContext 000000018001f84c f   LIBCMT:winapisupp.obj
 0001:0001e8bc       __crtCapturePreviousContext 000000018001f8bc f   LIBCMT:winapisupp.obj
 0001:0001e930       __crtFlsAlloc              000000018001f930 f   LIBCMT:winapisupp.obj
 0001:0001e94c       __crtFlsFree               000000018001f94c f   LIBCMT:winapisupp.obj
 0001:0001e968       __crtFlsGetValue           000000018001f968 f   LIBCMT:winapisupp.obj
 0001:0001e984       __crtFlsSetValue           000000018001f984 f   LIBCMT:winapisupp.obj
 0001:0001e9a0       __crtInitializeCriticalSectionEx 000000018001f9a0 f   LIBCMT:winapisupp.obj
 0001:0001e9cc       __crtIsPackagedApp         000000018001f9cc f   LIBCMT:winapisupp.obj
 0001:0001ea18       __crtLoadWinApiPointers    000000018001fa18 f   LIBCMT:winapisupp.obj
 0001:0001ee14       __crtSleep                 000000018001fe14 f   LIBCMT:winapisupp.obj
 0001:0001ee1c       __crtTerminateProcess      000000018001fe1c f   LIBCMT:winapisupp.obj
 0001:0001ee3c       __crtUnhandledException    000000018001fe3c f   LIBCMT:winapisupp.obj
 0001:0001ee5c       wcslen                     000000018001fe5c f   LIBCMT:wcslen.obj
 0001:0001ee78       _tolower_l                 000000018001fe78 f   LIBCMT:tolower.obj
 0001:0001efcc       tolower                    000000018001ffcc f   LIBCMT:tolower.obj
 0001:0001f000       memcmp                     0000000180020000 f   LIBCMT:memcmp.obj
 0001:0001f0c8       GetTableIndexFromLcid      00000001800200c8 f   LIBCMT:winapinls.obj
 0001:0001f10c       GetTableIndexFromLocaleName 000000018002010c f   LIBCMT:winapinls.obj
 0001:0001f198       __crtDownlevelLCIDToLocaleName 0000000180020198 f   LIBCMT:winapinls.obj
 0001:0001f248       __crtDownlevelLocaleNameToLCID 0000000180020248 f   LIBCMT:winapinls.obj
 0001:0001f288       __crtEnumSystemLocalesEx   0000000180020288 f   LIBCMT:winapinls.obj
 0001:0001f2cc       __crtGetLocaleInfoEx       00000001800202cc f   LIBCMT:winapinls.obj
 0001:0001f31c       __crtGetUserDefaultLocaleName 000000018002031c f   LIBCMT:winapinls.obj
 0001:0001f360       __crtIsValidLocaleName     0000000180020360 f   LIBCMT:winapinls.obj
 0001:0001f394       __crtLCMapStringEx         0000000180020394 f   LIBCMT:winapinls.obj
 0001:0001f424       __wcsnicmp_ascii           0000000180020424 f   LIBCMT:winapinls.obj
 0001:0001f47c       __crtLCMapStringW          000000018002047c f   LIBCMT:w_map.obj
 0001:0001f4c8       __raise_securityfailure    00000001800204c8 f   LIBCMT:gs_report.obj
 0001:0001f514       __report_gsfailure         0000000180020514 f   LIBCMT:gs_report.obj
 0001:0001f5e8       __report_rangecheckfailure 00000001800205e8 f   LIBCMT:gs_report.obj
 0001:0001f5fc       __report_securityfailure   00000001800205fc f   LIBCMT:gs_report.obj
 0001:0001f698       __isa_available_init       0000000180020698 f   LIBCMT:cpu_disp.obj
 0001:0001f83c       wcscat_s                   000000018002083c f   LIBCMT:wcscat_s.obj
 0001:0001f8c4       wcscpy_s                   00000001800208c4 f   LIBCMT:wcscpy_s.obj
 0001:0001f930       wcsncat_s                  0000000180020930 f   LIBCMT:wcsncat_s.obj
 0001:0001fa18       __crtCorExitProcess        0000000180020a18 f   LIBCMT:crt0dat.obj
 0001:0001fa5c       __crtExitProcess           0000000180020a5c f   LIBCMT:crt0dat.obj
 0001:0001fa74       __freeCrtMemory            0000000180020a74 f   LIBCMT:crt0dat.obj
 0001:0001fbbc       _amsg_exit                 0000000180020bbc f   LIBCMT:crt0dat.obj
 0001:0001fbe4       _cexit                     0000000180020be4 f   LIBCMT:crt0dat.obj
 0001:0001fbf4       _cinit                     0000000180020bf4 f   LIBCMT:crt0dat.obj
 0001:0001fc8c       _exit                      0000000180020c8c f   LIBCMT:crt0dat.obj
 0001:0001fc98       _init_pointers             0000000180020c98 f   LIBCMT:crt0dat.obj
 0001:0001fd44       _initterm_e                0000000180020d44 f   LIBCMT:crt0dat.obj
 0001:0001fd80       _lockexit                  0000000180020d80 f   LIBCMT:crt0dat.obj
 0001:0001fd8c       _unlockexit                0000000180020d8c f   LIBCMT:crt0dat.obj
 0001:0001ff30       _set_error_mode            0000000180020f30 f   LIBCMT:errmode.obj
 0001:0001ff70       _itow_s                    0000000180020f70 f   LIBCMT:xtows.obj
 0001:000200a8       fwprintf                   00000001800210a8 f   LIBCMT:fwprintf.obj
 0001:0002013c       _vswprintf_c_l             000000018002113c f   LIBCMT:vswprnc.obj
 0001:00020174       _vswprintf_helper          0000000180021174 f   LIBCMT:vswprnc.obj
 0001:00020290       __get_sigabrt              0000000180021290 f   LIBCMT:winsig.obj
 0001:000202a0       _initp_misc_winsig         00000001800212a0 f   LIBCMT:winsig.obj
 0001:000202c0       raise                      00000001800212c0 f   LIBCMT:winsig.obj
 0001:000204f4       __crtMessageBoxW           00000001800214f4 f   LIBCMT:crtmboxw.obj
 0001:00020768       _FF_MSGBANNER              0000000180021768 f   LIBCMT:crt0msg.obj
 0001:000207ac       _GET_RTERRMSG              00000001800217ac f   LIBCMT:crt0msg.obj
 0001:000207dc       _NMSG_WRITE                00000001800217dc f   LIBCMT:crt0msg.obj
 0001:00020a4c       _msize                     0000000180021a4c f   LIBCMT:msize.obj
 0001:00020a88       __C_specific_handler       0000000180021a88 f   LIBCMT:chandler.obj
 0001:00020c6c       __getlocaleinfo            0000000180021c6c f   LIBCMT:inithelp.obj
 0001:00020e54       _initp_misc_purevirt       0000000180021e54 f   LIBCMT:inithelp.obj
 0001:00020e5c       ?_Type_info_dtor@type_info@@CAXPEAV1@@Z 0000000180021e5c f   LIBCMT:typname.obj
 0001:00020ec8       _callnewh                  0000000180021ec8 f   LIBCMT:handler.obj
 0001:00020efc       _initp_heap_handler        0000000180021efc f   LIBCMT:handler.obj
 0001:00020f04       _heap_init                 0000000180021f04 f   LIBCMT:heapinit.obj
 0001:00020f24       _heap_term                 0000000180021f24 f   LIBCMT:heapinit.obj
 0001:00020f30       _freefls                   0000000180021f30 f   LIBCMT:tidtable.obj
 0001:00021064       _freeptd                   0000000180022064 f   LIBCMT:tidtable.obj
 0001:000210a0       _getptd                    00000001800220a0 f   LIBCMT:tidtable.obj
 0001:000210c4       _getptd_noexit             00000001800220c4 f   LIBCMT:tidtable.obj
 0001:00021148       _initptd                   0000000180022148 f   LIBCMT:tidtable.obj
 0001:0002120c       _mtinit                    000000018002220c f   LIBCMT:tidtable.obj
 0001:0002128c       _mtterm                    000000018002228c f   LIBCMT:tidtable.obj
 0001:000212b0       __crt_debugger_hook        00000001800222b0 f   LIBCMT:dbghook.obj
 0001:000212b8       _flsbuf                    00000001800222b8 f   LIBCMT:_flsbuf.obj
 0001:00021444       __addlocaleref             0000000180022444 f   LIBCMT:localref.obj
 0001:000214d0       __freetlocinfo             00000001800224d0 f   LIBCMT:localref.obj
 0001:00021668       __removelocaleref          0000000180022668 f   LIBCMT:localref.obj
 0001:0002170c       __updatetlocinfo           000000018002270c f   LIBCMT:localref.obj
 0001:00021784       _updatetlocinfoEx_nolock   0000000180022784 f   LIBCMT:localref.obj
 0001:000217e8       __initmbctable             00000001800227e8 f   LIBCMT:mbctype.obj
 0001:00021b04       __updatetmbcinfo           0000000180022b04 f   LIBCMT:mbctype.obj
 0001:00021bc0       _setmbcp                   0000000180022bc0 f   LIBCMT:mbctype.obj
 0001:00021e04       _setmbcp_nolock            0000000180022e04 f   LIBCMT:mbctype.obj
 0001:000220b4       _locterm                   00000001800230b4 f   LIBCMT:wsetloca.obj
 0001:000220fc       __copy_locale_name         00000001800230fc f   LIBCMT:wsetloca.obj
 0001:00022180       __lc_lctowcs               0000000180023180 f   LIBCMT:wsetloca.obj
 0001:00022224       __lc_wcstolc               0000000180023224 f   LIBCMT:wsetloca.obj
 0001:00022498       _expandlocale              0000000180023498 f   LIBCMT:wsetloca.obj
 0001:0002286c       _wcscats                   000000018002386c f   LIBCMT:wsetloca.obj
 0001:000228d4       _wsetlocale                00000001800238d4 f   LIBCMT:wsetloca.obj
 0001:000231c0       _XcptFilter                00000001800241c0 f   LIBCMT:winxfltr.obj
 0001:0002338c       __CppXcptFilter            000000018002438c f   LIBCMT:winxfltr.obj
 0001:000233a0       _ioinit                    00000001800243a0 f   LIBCMT:ioinit.obj
 0001:000236d0       _ioterm                    00000001800246d0 f   LIBCMT:ioinit.obj
 0001:00023744       _setargv                   0000000180024744 f   LIBCMT:stdargv.obj
 0001:00023a00       _setenvp                   0000000180024a00 f   LIBCMT:stdenvp.obj
 0001:00023b34       __security_init_cookie     0000000180024b34 f   LIBCMT:gs_support.obj
 0001:00023be0       __crtGetEnvironmentStringsA 0000000180024be0 f   LIBCMT:a_env.obj
 0001:00023cd4       _RTC_Initialize            0000000180024cd4 f   LIBCMT:initsect.obj
 0001:00023d0c       _RTC_Terminate             0000000180024d0c f   LIBCMT:initsect.obj
 0001:00023d44       __DestructExceptionObject  0000000180024d44 f   LIBCMT:frame.obj
 0001:00023db4       ??0bad_exception@std@@QEAA@AEBV01@@Z 0000000180024db4 f i LIBCMT:frame.obj
 0001:00023dd8       ??1bad_exception@std@@UEAA@XZ 0000000180024dd8 f i LIBCMT:frame.obj
 0001:00023de8       ??_Ebad_exception@std@@UEAAPEAXI@Z 0000000180024de8 f i LIBCMT:frame.obj
 0001:00023de8       ??_Gbad_exception@std@@UEAAPEAXI@Z 0000000180024de8 f i LIBCMT:frame.obj
 0001:000246dc       __AdjustPointer            00000001800256dc f   LIBCMT:frame.obj
 0001:00024700       __BuildCatchObject         0000000180025700 f   LIBCMT:frame.obj
 0001:000247b8       __BuildCatchObjectHelper   00000001800257b8 f   LIBCMT:frame.obj
 0001:00024a08       __CxxCallCatchBlock        0000000180025a08 f   LIBCMT:frame.obj
 0001:00024c0c       __FrameUnwindFilter        0000000180025c0c f   LIBCMT:frame.obj
 0001:00024c60       __FrameUnwindToState       0000000180025c60 f   LIBCMT:frame.obj
 0001:00024df4       __InternalCxxFrameHandler  0000000180025df4 f   LIBCMT:frame.obj
 0001:00025018       __TypeMatch                0000000180026018 f   LIBCMT:frame.obj
 0001:00025148       ?__GetCurrentState@@YAHPEA_KPEAU_xDISPATCHER_CONTEXT@@PEBU_s_FuncInfo@@@Z 0000000180026148 f   LIBCMT:ehstate.obj
 0001:00025170       ?__GetUnwindTryBlock@@YAHPEA_KPEAU_xDISPATCHER_CONTEXT@@PEBU_s_FuncInfo@@@Z 0000000180026170 f   LIBCMT:ehstate.obj
 0001:0002519c       ?__SetState@@YAXPEA_KPEAU_xDISPATCHER_CONTEXT@@PEBU_s_FuncInfo@@H@Z 000000018002619c f   LIBCMT:ehstate.obj
 0001:000251a8       ?__SetUnwindTryBlock@@YAXPEA_KPEAU_xDISPATCHER_CONTEXT@@PEBU_s_FuncInfo@@H@Z 00000001800261a8 f   LIBCMT:ehstate.obj
 0001:000251e4       ?__StateFromControlPc@@YAHPEBU_s_FuncInfo@@PEAU_xDISPATCHER_CONTEXT@@@Z 00000001800261e4 f   LIBCMT:ehstate.obj
 0001:000251ec       ?__StateFromIp@@YAHPEBU_s_FuncInfo@@PEAU_xDISPATCHER_CONTEXT@@_J@Z 00000001800261ec f   LIBCMT:ehstate.obj
 0001:00025278       ?_inconsistency@@YAXXZ     0000000180026278 f   LIBCMT:hooks.obj
 0001:00025298       ?terminate@@YAXXZ          0000000180026298 f   LIBCMT:hooks.obj
 0001:000252b8       _initp_eh_hooks            00000001800262b8 f   LIBCMT:hooks.obj
 0001:000252d8       _cfltcvt                   00000001800262d8 f   LIBCMT:cvt.obj
 0001:000252fc       _cfltcvt_l                 00000001800262fc f   LIBCMT:cvt.obj
 0001:0002537c       _cftoa_l                   000000018002637c f   LIBCMT:cvt.obj
 0001:00025928       _cftoe_l                   0000000180026928 f   LIBCMT:cvt.obj
 0001:00025b84       _cftof_l                   0000000180026b84 f   LIBCMT:cvt.obj
 0001:00025c58       _cftog_l                   0000000180026c58 f   LIBCMT:cvt.obj
 0001:00025d8c       _cropzeros                 0000000180026d8c f   LIBCMT:cvt.obj
 0001:00025d94       _cropzeros_l               0000000180026d94 f   LIBCMT:cvt.obj
 0001:00025e2c       _fassign                   0000000180026e2c f   LIBCMT:cvt.obj
 0001:00025e34       _fassign_l                 0000000180026e34 f   LIBCMT:cvt.obj
 0001:00025e74       _forcdecpt                 0000000180026e74 f   LIBCMT:cvt.obj
 0001:00025e7c       _forcdecpt_l               0000000180026e7c f   LIBCMT:cvt.obj
 0001:00025efc       _positive                  0000000180026efc f   LIBCMT:cvt.obj
 0001:00025f10       _initp_misc_cfltcvt_tab    0000000180026f10 f   LIBCMT:cmiscdat.obj
 0001:00025f4c       strcpy_s                   0000000180026f4c f   LIBCMT:strcpy_s.obj
 0001:00025fb0       _mbstowcs_l_helper         0000000180026fb0 f   LIBCMT:mbstowcs.obj
 0001:0002618c       _mbstowcs_s_l              000000018002718c f   LIBCMT:mbstowcs.obj
 0001:000262bc       mbstowcs_s                 00000001800272bc f   LIBCMT:mbstowcs.obj
 0001:000262dc       _wcstombs_l_helper         00000001800272dc f   LIBCMT:wcstombs.obj
 0001:0002660c       _wcstombs_s_l              000000018002760c f   LIBCMT:wcstombs.obj
 0001:000266f8       _fcloseall                 00000001800276f8 f   LIBCMT:closeall.obj
 0001:000267a0       _fileno                    00000001800277a0 f   LIBCMT:fileno.obj
 0001:000267c8       _close                     00000001800277c8 f   LIBCMT:close.obj
 0001:0002688c       _close_nolock              000000018002788c f   LIBCMT:close.obj
 0001:00026948       _freebuf                   0000000180027948 f   LIBCMT:_freebuf.obj
 0001:00026980       _commit                    0000000180027980 f   LIBCMT:commit.obj
 0001:00026a58       _write                     0000000180027a58 f   LIBCMT:write.obj
 0001:00026b3c       _write_nolock              0000000180027b3c f   LIBCMT:write.obj
 0001:00027330       _filbuf                    0000000180028330 f   LIBCMT:_filbuf.obj
 0001:00027474       _ftelli64                  0000000180028474 f   LIBCMT:ftelli64.obj
 0001:000274d0       _ftelli64_nolock           00000001800284d0 f   LIBCMT:ftelli64.obj
 0001:000277e4       _lseeki64                  00000001800287e4 f   LIBCMT:lseeki64.obj
 0001:000278cc       _lseeki64_nolock           00000001800288cc f   LIBCMT:lseeki64.obj
 0001:00027960       _getbuf                    0000000180028960 f   LIBCMT:_getbuf.obj
 0001:000279b4       _isctype_l                 00000001800289b4 f   LIBCMT:isctype.obj
 0001:00027a90       calloc                     0000000180028a90 f   LIBCMT:calloc.obj
 0001:00027c4c       __crtGetStringTypeA        0000000180028c4c f   LIBCMT:a_str.obj
 0001:00027ce0       _alloca_probe              0000000180028ce0 f   LIBCMT:chkstk.obj
 0001:00027ce0       __chkstk                   0000000180028ce0 f   LIBCMT:chkstk.obj
 0001:00027d30       realloc                    0000000180028d30 f   LIBCMT:realloc.obj
 0001:00027e04       _calloc_impl               0000000180028e04 f   LIBCMT:calloc_impl.obj
 0001:00027ea0       _wcsicmp                   0000000180028ea0 f   LIBCMT:wcsicmp.obj
 0001:00027f24       _wcsicmp_l                 0000000180028f24 f   LIBCMT:wcsicmp.obj
 0001:00028014       _isleadbyte_l              0000000180029014 f i LIBCMT:_wctype.obj
 0001:00028058       isleadbyte                 0000000180029058 f i LIBCMT:_wctype.obj
 0001:000280a0       wcsnlen                    00000001800290a0 f   LIBCMT:wcslen_s.obj
 0001:000280c0       _FindPESection             00000001800290c0 f   LIBCMT:pesect.obj
 0001:00028110       _IsNonwritableInCurrentImage 0000000180029110 f   LIBCMT:pesect.obj
 0001:00028160       _ValidateImageBase         0000000180029160 f   LIBCMT:pesect.obj
 0001:00028190       _initp_misc_rand_s         0000000180029190 f   LIBCMT:rand_s.obj
 0001:00028198       _ftbuf                     0000000180029198 f   LIBCMT:_sftbuf.obj
 0001:000281d0       _stbuf                     00000001800291d0 f   LIBCMT:_sftbuf.obj
 0001:000282a0       _woutput_l                 00000001800292a0 f   LIBCMT:woutput.obj
 0001:00028e60       wcsncpy_s                  0000000180029e60 f   LIBCMT:wcsncpy_s.obj
 0001:00028f40       _local_unwind              0000000180029f40 f   LIBCMT:jmpuwind.obj
 0001:00028f70       _NLG_Notify                0000000180029f70 f   LIBCMT:jmpuwind.obj
 0001:00028f90       __NLG_Dispatch2            0000000180029f90 f   LIBCMT:jmpuwind.obj
 0001:00028fa0       __NLG_Return2              0000000180029fa0 f   LIBCMT:jmpuwind.obj
 0001:00028fa4       strncpy_s                  0000000180029fa4 f   LIBCMT:strncpy_s.obj
 0001:000291cc       __crtGetLocaleInfoA        000000018002a1cc f   LIBCMT:a_loc.obj
 0001:00029250       _get_fpsr                  000000018002a250 f   LIBCMT:fpsr.obj
 0001:00029260       _set_fpsr                  000000018002a260 f   LIBCMT:fpsr.obj
 0001:0002926a       _fclrf                     000000018002a26a f   LIBCMT:fpsr.obj
 0001:0002927e       _frnd                      000000018002a27e f   LIBCMT:fpsr.obj
 0001:000292a0       _isatty                    000000018002a2a0 f   LIBCMT:isatty.obj
 0001:00029300       _get_printf_count_output   000000018002a300 f   LIBCMT:printf.obj
 0001:00029318       _wctomb_s_l                000000018002a318 f   LIBCMT:wctomb.obj
 0001:000294a4       wctomb_s                   000000018002a4a4 f   LIBCMT:wctomb.obj
 0001:000294b8       __free_lconv_mon           000000018002a4b8 f   LIBCMT:initmon.obj
 0001:000295c4       __init_monetary            000000018002a5c4 f   LIBCMT:initmon.obj
 0001:00029ac4       __free_lconv_num           000000018002aac4 f   LIBCMT:initnum.obj
 0001:00029b30       __init_numeric             000000018002ab30 f   LIBCMT:initnum.obj
 0001:00029df8       __free_lc_time             000000018002adf8 f   LIBCMT:inittime.obj
 0001:0002a1f4       __init_time                000000018002b1f4 f   LIBCMT:inittime.obj
 0001:0002ae10       wcscmp                     000000018002be10 f   LIBCMT:wcscmp.obj
 0001:0002ae4c       wcscspn                    000000018002be4c f   LIBCMT:wcscspn.obj
 0001:0002ae8c       wcsncmp                    000000018002be8c f   LIBCMT:wcsncmp.obj
 0001:0002aeb8       wcspbrk                    000000018002beb8 f   LIBCMT:wcspbrk.obj
 0001:0002b64c       __get_qualified_locale     000000018002c64c f   LIBCMT:getqloc.obj
 0001:0002bfe0       __get_qualified_locale_downlevel 000000018002cfe0 f   LIBCMT:getqloc_downlevel.obj
 0001:0002c278       ?_ValidateWrite@@YAHPEAXI@Z 000000018002d278 f   LIBCMT:validate.obj
 0001:0002c278       ?_ValidateRead@@YAHPEBXI@Z 000000018002d278 f   LIBCMT:validate.obj
 0001:0002c278       ?_ValidateExecute@@YAHP6A_JXZ@Z 000000018002d278 f   LIBCMT:validate.obj
 0001:0002c2a0       _CallSettingFrame          000000018002d2a0 f   LIBCMT:handlers.obj
 0001:0002c2e0       _GetNextInstrOffset        000000018002d2e0 f   LIBCMT:handlers.obj
 0001:0002c2e8       strrchr                    000000018002d2e8 f   LIBCMT:strrchr.obj
 0001:0002c42c       _fptostr                   000000018002d42c f   LIBCMT:_fptostr.obj
 0001:0002c4f8       __crt_atoflt_l             000000018002d4f8 f   LIBCMT:atodbl.obj
 0001:0002c5c8       _atodbl_l                  000000018002d5c8 f   LIBCMT:atodbl.obj
 0001:0002c690       _atoflt_l                  000000018002d690 f   LIBCMT:atodbl.obj
 0001:0002c698       __dtold                    000000018002d698 f   LIBCMT:cfout.obj
 0001:0002c768       _fltout2                   000000018002d768 f   LIBCMT:cfout.obj
 0001:0002c820       _fptrap                    000000018002d820 f   LIBCMT:crt0fp.obj
 0001:0002c82c       __lock_fhandle             000000018002d82c f   LIBCMT:osfinfo.obj
 0001:0002c8c4       _free_osfhnd               000000018002d8c4 f   LIBCMT:osfinfo.obj
 0001:0002c970       _get_osfhandle             000000018002d970 f   LIBCMT:osfinfo.obj
 0001:0002c9e4       _unlock_fhandle            000000018002d9e4 f   LIBCMT:osfinfo.obj
 0001:0002ca10       _mbtowc_l                  000000018002da10 f   LIBCMT:mbtowc.obj
 0001:0002cb64       mbtowc                     000000018002db64 f   LIBCMT:mbtowc.obj
 0001:0002cb6c       _putwch_nolock             000000018002db6c f   LIBCMT:putwch.obj
 0001:0002cbc8       _read                      000000018002dbc8 f   LIBCMT:read.obj
 0001:0002cce4       _read_nolock               000000018002dce4 f   LIBCMT:read.obj
 0001:0002d554       _towlower_l                000000018002e554 f   LIBCMT:towlower.obj
 0001:0002d620       iswctype                   000000018002e620 f   LIBCMT:iswctype.obj
 0001:0002d688       _fputwc_nolock             000000018002e688 f   LIBCMT:fputwc.obj
 0001:0002da64       wcstol                     000000018002ea64 f   LIBCMT:wcstol.obj
 0001:0002da6c       _wtol                      000000018002ea6c f   LIBCMT:wtox.obj
 0001:0002da78       wcschr                     000000018002ea78 f   LIBCMT:wcschr.obj
 0001:0002db04       _wcsnicmp                  000000018002eb04 f   LIBCMT:wcsnicmp.obj
 0001:0002db9c       _wcsnicmp_l                000000018002eb9c f   LIBCMT:wcsnicmp.obj
 0001:0002dcb4       _ld12tod                   000000018002ecb4 f   LIBCMT:intrncvt.obj
 0001:0002e26c       _ld12tof                   000000018002f26c f   LIBCMT:intrncvt.obj
 0001:0002e824       __strgtold12_l             000000018002f824 f   LIBCMT:strgtold.obj
 0001:0002f088       $I10_OUTPUT                0000000180030088 f   LIBCMT:x10fout.obj
 0001:0002fb60       __termconout               0000000180030b60 f   LIBCMT:initcon.obj
 0001:0002fb80       __initconout               0000000180030b80 f   LIBCMT:initcon.obj
 0001:0002fbbc       _flswbuf                   0000000180030bbc f   LIBCMT:_flswbuf.obj
 0001:0002fd4c       _wchartodigit              0000000180030d4c f   LIBCMT:wchtodig.obj
 0001:0002fee4       __mtold12                  0000000180030ee4 f   LIBCMT:mantold.obj
 0001:00030110       IsProcessorFeaturePresent  0000000180031110 f   kernel32:KERNEL32.dll
 0001:00030116       RtlUnwindEx                0000000180031116 f   kernel32:KERNEL32.dll
 0001:0003011c       __delayLoadHelper2         000000018003111c f   DelayImp:delayhlp.obj
 0001:00030844       __RTDynamicCast            0000000180031844 f   LIBCMT:rtti.obj
 0002:00000000       __imp_GetModuleHandleA     0000000180033000     kernel32:KERNEL32.dll
 0002:00000008       __imp_CreateFileW          0000000180033008     kernel32:KERNEL32.dll
 0002:00000010       __imp_ReadConsoleW         0000000180033010     kernel32:KERNEL32.dll
 0002:00000018       __imp_SetStdHandle         0000000180033018     kernel32:KERNEL32.dll
 0002:00000020       __imp_FreeLibrary          0000000180033020     kernel32:KERNEL32.dll
 0002:00000028       __imp_HeapReAlloc          0000000180033028     kernel32:KERNEL32.dll
 0002:00000030       __imp_SetFilePointerEx     0000000180033030     kernel32:KERNEL32.dll
 0002:00000038       __imp_ReadFile             0000000180033038     kernel32:KERNEL32.dll
 0002:00000040       __imp_GetConsoleMode       0000000180033040     kernel32:KERNEL32.dll
 0002:00000048       __imp_GetConsoleCP         0000000180033048     kernel32:KERNEL32.dll
 0002:00000050       __imp_FlushFileBuffers     0000000180033050     kernel32:KERNEL32.dll
 0002:00000058       __imp_CloseHandle          0000000180033058     kernel32:KERNEL32.dll
 0002:00000060       __imp_FreeEnvironmentStringsW 0000000180033060     kernel32:KERNEL32.dll
 0002:00000068       __imp_GetEnvironmentStringsW 0000000180033068     kernel32:KERNEL32.dll
 0002:00000070       __imp_GetCurrentProcessId  0000000180033070     kernel32:KERNEL32.dll
 0002:00000078       __imp_QueryPerformanceCounter 0000000180033078     kernel32:KERNEL32.dll
 0002:00000080       __imp_GetModuleFileNameA   0000000180033080     kernel32:KERNEL32.dll
 0002:00000088       __imp_GetOEMCP             0000000180033088     kernel32:KERNEL32.dll
 0002:00000090       __imp_GetACP               0000000180033090     kernel32:KERNEL32.dll
 0002:00000098       __imp_IsValidCodePage      0000000180033098     kernel32:KERNEL32.dll
 0002:000000a0       __imp_GetProcessHeap       00000001800330a0     kernel32:KERNEL32.dll
 0002:000000a8       __imp_HeapSize             00000001800330a8     kernel32:KERNEL32.dll
 0002:000000b0       __imp_WriteFile            00000001800330b0     kernel32:KERNEL32.dll
 0002:000000b8       __imp_LoadLibraryExW       00000001800330b8     kernel32:KERNEL32.dll
 0002:000000c0       __imp_OutputDebugStringW   00000001800330c0     kernel32:KERNEL32.dll
 0002:000000c8       __imp_ExitProcess          00000001800330c8     kernel32:KERNEL32.dll
 0002:000000d0       __imp_WideCharToMultiByte  00000001800330d0     kernel32:KERNEL32.dll
 0002:000000d8       __imp_EncodePointer        00000001800330d8     kernel32:KERNEL32.dll
 0002:000000e0       __imp_DecodePointer        00000001800330e0     kernel32:KERNEL32.dll
 0002:000000e8       __imp_EnterCriticalSection 00000001800330e8     kernel32:KERNEL32.dll
 0002:000000f0       __imp_LeaveCriticalSection 00000001800330f0     kernel32:KERNEL32.dll
 0002:000000f8       __imp_DeleteCriticalSection 00000001800330f8     kernel32:KERNEL32.dll
 0002:00000100       __imp_MultiByteToWideChar  0000000180033100     kernel32:KERNEL32.dll
 0002:00000108       __imp_GetStringTypeW       0000000180033108     kernel32:KERNEL32.dll
 0002:00000110       __imp_GetStdHandle         0000000180033110     kernel32:KERNEL32.dll
 0002:00000118       __imp_GetFileType          0000000180033118     kernel32:KERNEL32.dll
 0002:00000120       __imp_GetModuleFileNameW   0000000180033120     kernel32:KERNEL32.dll
 0002:00000128       __imp_GetModuleHandleExW   0000000180033128     kernel32:KERNEL32.dll
 0002:00000130       __imp_WriteConsoleW        0000000180033130     kernel32:KERNEL32.dll
 0002:00000138       __imp_HeapAlloc            0000000180033138     kernel32:KERNEL32.dll
 0002:00000140       __imp_IsProcessorFeaturePresent 0000000180033140     kernel32:KERNEL32.dll
 0002:00000148       __imp_IsDebuggerPresent    0000000180033148     kernel32:KERNEL32.dll
 0002:00000150       __imp_GetLastError         0000000180033150     kernel32:KERNEL32.dll
 0002:00000158       __imp_HeapFree             0000000180033158     kernel32:KERNEL32.dll
 0002:00000160       __imp_Sleep                0000000180033160     kernel32:KERNEL32.dll
 0002:00000168       __imp_GetSystemTimeAsFileTime 0000000180033168     kernel32:KERNEL32.dll
 0002:00000170       __imp_GetCommandLineA      0000000180033170     kernel32:KERNEL32.dll
 0002:00000178       __imp_GetCurrentThreadId   0000000180033178     kernel32:KERNEL32.dll
 0002:00000180       __imp_RtlPcToFileHeader    0000000180033180     kernel32:KERNEL32.dll
 0002:00000188       __imp_RaiseException       0000000180033188     kernel32:KERNEL32.dll
 0002:00000190       __imp_RtlLookupFunctionEntry 0000000180033190     kernel32:KERNEL32.dll
 0002:00000198       __imp_RtlUnwindEx          0000000180033198     kernel32:KERNEL32.dll
 0002:000001a0       __imp_GetCPInfo            00000001800331a0     kernel32:KERNEL32.dll
 0002:000001a8       __imp_RtlCaptureContext    00000001800331a8     kernel32:KERNEL32.dll
 0002:000001b0       __imp_RtlVirtualUnwind     00000001800331b0     kernel32:KERNEL32.dll
 0002:000001b8       __imp_UnhandledExceptionFilter 00000001800331b8     kernel32:KERNEL32.dll
 0002:000001c0       __imp_SetUnhandledExceptionFilter 00000001800331c0     kernel32:KERNEL32.dll
 0002:000001c8       __imp_SetLastError         00000001800331c8     kernel32:KERNEL32.dll
 0002:000001d0       __imp_InitializeCriticalSectionAndSpinCount 00000001800331d0     kernel32:KERNEL32.dll
 0002:000001d8       __imp_GetCurrentProcess    00000001800331d8     kernel32:KERNEL32.dll
 0002:000001e0       __imp_TerminateProcess     00000001800331e0     kernel32:KERNEL32.dll
 0002:000001e8       __imp_TlsAlloc             00000001800331e8     kernel32:KERNEL32.dll
 0002:000001f0       __imp_TlsGetValue          00000001800331f0     kernel32:KERNEL32.dll
 0002:000001f8       __imp_TlsSetValue          00000001800331f8     kernel32:KERNEL32.dll
 0002:00000200       __imp_TlsFree              0000000180033200     kernel32:KERNEL32.dll
 0002:00000208       __imp_GetStartupInfoW      0000000180033208     kernel32:KERNEL32.dll
 0002:00000210       __imp_GetModuleHandleW     0000000180033210     kernel32:KERNEL32.dll
 0002:00000218       __imp_GetProcAddress       0000000180033218     kernel32:KERNEL32.dll
 0002:00000220       __imp_LCMapStringW         0000000180033220     kernel32:KERNEL32.dll
 0002:00000228       __imp_GetLocaleInfoW       0000000180033228     kernel32:KERNEL32.dll
 0002:00000230       __imp_IsValidLocale        0000000180033230     kernel32:KERNEL32.dll
 0002:00000238       __imp_GetUserDefaultLCID   0000000180033238     kernel32:KERNEL32.dll
 0002:00000240       __imp_EnumSystemLocalesW   0000000180033240     kernel32:KERNEL32.dll
 0002:00000248       __imp_LoadLibraryExA       0000000180033248     kernel32:KERNEL32.dll
 0002:00000250       \177KERNEL32_NULL_THUNK_DATA 0000000180033250     kernel32:KERNEL32.dll
 0002:00000258       __imp_?create@Producer@RdKafka@@SAPEAV12@PEAVConf@2@AEAV?$basic_string@DU?$char_traits@D@std@@V?$allocator@D@2@@std@@@Z 0000000180033258     librdkafkacpp:librdkafkacpp.dll
 0002:00000260       __imp_?destroy@TopicPartition@RdKafka@@SAXAEAV?$vector@PEAVTopicPartition@RdKafka@@V?$allocator@PEAVTopicPartition@RdKafka@@@std@@@std@@@Z 0000000180033260     librdkafkacpp:librdkafkacpp.dll
 0002:00000268       __imp_?create@KafkaConsumer@RdKafka@@SAPEAV12@PEAVConf@2@AEAV?$basic_string@DU?$char_traits@D@std@@V?$allocator@D@2@@std@@@Z 0000000180033268     librdkafkacpp:librdkafkacpp.dll
 0002:00000270       __imp_?create@TopicPartition@RdKafka@@SAPEAV12@AEBV?$basic_string@DU?$char_traits@D@std@@V?$allocator@D@2@@std@@H@Z 0000000180033270     librdkafkacpp:librdkafkacpp.dll
 0002:00000278       __imp_?create@Topic@RdKafka@@SAPEAV12@PEAVHandle@2@AEBV?$basic_string@DU?$char_traits@D@std@@V?$allocator@D@2@@std@@PEAVConf@2@AEAV45@@Z 0000000180033278     librdkafkacpp:librdkafkacpp.dll
 0002:00000280       __imp_?OFFSET_INVALID@Topic@RdKafka@@2_JB 0000000180033280     librdkafkacpp:librdkafkacpp.dll
 0002:00000288       __imp_?create@TopicPartition@RdKafka@@SAPEAV12@AEBV?$basic_string@DU?$char_traits@D@std@@V?$allocator@D@2@@std@@H_J@Z 0000000180033288     librdkafkacpp:librdkafkacpp.dll
 0002:00000290       __imp_??_7DeliveryReportCb@RdKafka@@6B@ 0000000180033290     librdkafkacpp:librdkafkacpp.dll
 0002:00000298       __imp_??_7OffsetCommitCb@RdKafka@@6B@ 0000000180033298     librdkafkacpp:librdkafkacpp.dll
 0002:000002a0       __imp_??_7PartitionerCb@RdKafka@@6B@ 00000001800332a0     librdkafkacpp:librdkafkacpp.dll
 0002:000002a8       __imp_??_7EventCb@RdKafka@@6B@ 00000001800332a8     librdkafkacpp:librdkafkacpp.dll
 0002:000002b0       __imp_??_7RebalanceCb@RdKafka@@6B@ 00000001800332b0     librdkafkacpp:librdkafkacpp.dll
 0002:000002b8       __imp_?PARTITION_UA@Topic@RdKafka@@2HB 00000001800332b8     librdkafkacpp:librdkafkacpp.dll
 0002:000002c0       __imp_?err2str@RdKafka@@YA?AV?$basic_string@DU?$char_traits@D@std@@V?$allocator@D@2@@std@@W4ErrorCode@1@@Z 00000001800332c0     librdkafkacpp:librdkafkacpp.dll
 0002:000002c8       __imp_?create@Conf@RdKafka@@SAPEAV12@W4ConfType@12@@Z 00000001800332c8     librdkafkacpp:librdkafkacpp.dll
 0002:000002d0       __imp_?version_str@RdKafka@@YA?AV?$basic_string@DU?$char_traits@D@std@@V?$allocator@D@2@@std@@XZ 00000001800332d0     librdkafkacpp:librdkafkacpp.dll
 0002:000002d8       __imp_?wait_destroyed@RdKafka@@YAHH@Z 00000001800332d8     librdkafkacpp:librdkafkacpp.dll
 0002:000002e0       \177librdkafkacpp_NULL_THUNK_DATA 00000001800332e0     librdkafkacpp:librdkafkacpp.dll
 0002:000002e8       __xc_a                     00000001800332e8     LIBCMT:crt0init.obj
 0002:00000410       _register_kafka_           0000000180033410     binding.obj
 0002:00000418       __xc_z                     0000000180033418     LIBCMT:crt0init.obj
 0002:00000420       __xi_a                     0000000180033420     LIBCMT:crt0init.obj
 0002:00000448       __xi_z                     0000000180033448     LIBCMT:crt0init.obj
 0002:00000450       __xp_a                     0000000180033450     LIBCMT:crt0init.obj
 0002:00000470       __xp_z                     0000000180033470     LIBCMT:crt0init.obj
 0002:00000478       __xt_a                     0000000180033478     LIBCMT:crt0init.obj
 0002:00000480       __xt_z                     0000000180033480     LIBCMT:crt0init.obj
 0002:000004d0       __sz_node_exe              00000001800334d0     node:node.exe
 0002:00000e80       ??_C@_0BC@CIJDGCDI@permission?5denied?$AA@ 0000000180033e80     libcpmt:syserror.obj
 0002:00000e98       ??_C@_0M@MIDIAGJP@file?5exists?$AA@ 0000000180033e98     libcpmt:syserror.obj
 0002:00000ea8       ??_C@_0P@FDINDDOK@no?5such?5device?$AA@ 0000000180033ea8     libcpmt:syserror.obj
 0002:00000eb8       ??_C@_0BC@EJHOMAAK@filename?5too?5long?$AA@ 0000000180033eb8     libcpmt:syserror.obj
 0002:00000ed0       ??_C@_0BI@NGCEHDD@device?5or?5resource?5busy?$AA@ 0000000180033ed0     libcpmt:syserror.obj
 0002:00000ee8       ??_C@_08GLNPIFBN@io?5error?$AA@ 0000000180033ee8     libcpmt:syserror.obj
 0002:00000ef8       ??_C@_0BE@JIDOCPHM@directory?5not?5empty?$AA@ 0000000180033ef8     libcpmt:syserror.obj
 0002:00000f10       ??_C@_0BB@FCMFBGOM@invalid?5argument?$AA@ 0000000180033f10     libcpmt:syserror.obj
 0002:00000f28       ??_C@_0BD@IJDJKDEA@no?5space?5on?5device?$AA@ 0000000180033f28     libcpmt:syserror.obj
 0002:00000f40       ??_C@_0BK@NDOCBPGE@no?5such?5file?5or?5directory?$AA@ 0000000180033f40     libcpmt:syserror.obj
 0002:00000f60       ??_C@_0BH@KEFGLDAF@function?5not?5supported?$AA@ 0000000180033f60     libcpmt:syserror.obj
 0002:00000f78       ??_C@_0BC@NJECKMKE@no?5lock?5available?$AA@ 0000000180033f78     libcpmt:syserror.obj
 0002:00000f90       ??_C@_0BC@ENOOLCNF@not?5enough?5memory?$AA@ 0000000180033f90     libcpmt:syserror.obj
 0002:00000fa8       ??_C@_0BP@LKNGHENJ@resource?5unavailable?5try?5again?$AA@ 0000000180033fa8     libcpmt:syserror.obj
 0002:00000fc8       ??_C@_0BC@PPHBOELF@cross?5device?5link?$AA@ 0000000180033fc8     libcpmt:syserror.obj
 0002:00000fe0       ??_C@_0BD@MOLBPMEA@operation?5canceled?$AA@ 0000000180033fe0     libcpmt:syserror.obj
 0002:00000ff8       ??_C@_0BE@GHAFMPAH@too?5many?5files?5open?$AA@ 0000000180033ff8     libcpmt:syserror.obj
 0002:00001010       ??_C@_0BC@FNODOBAE@permission_denied?$AA@ 0000000180034010     libcpmt:syserror.obj
 0002:00001028       ??_C@_0P@LNDJPBFK@address_in_use?$AA@ 0000000180034028     libcpmt:syserror.obj
 0002:00001038       ??_C@_0BG@IPMGOJF@address_not_available?$AA@ 0000000180034038     libcpmt:syserror.obj
 0002:00001050       ??_C@_0BN@LCBDHODA@address_family_not_supported?$AA@ 0000000180034050     libcpmt:syserror.obj
 0002:00001070       ??_C@_0BP@FOJJHMCC@connection_already_in_progress?$AA@ 0000000180034070     libcpmt:syserror.obj
 0002:00001090       ??_C@_0BE@DLHHIBGN@bad_file_descriptor?$AA@ 0000000180034090     libcpmt:syserror.obj
 0002:000010a8       ??_C@_0BD@OJMJDIGI@connection_aborted?$AA@ 00000001800340a8     libcpmt:syserror.obj
 0002:000010c0       ??_C@_0BD@NGKCIFEP@connection_refused?$AA@ 00000001800340c0     libcpmt:syserror.obj
 0002:000010d8       ??_C@_0BB@JOANDNCK@connection_reset?$AA@ 00000001800340d8     libcpmt:syserror.obj
 0002:000010f0       ??_C@_0BN@JLJNLKLK@destination_address_required?$AA@ 00000001800340f0     libcpmt:syserror.obj
 0002:00001110       ??_C@_0M@IJGMGFGP@bad_address?$AA@ 0000000180034110     libcpmt:syserror.obj
 0002:00001120       ??_C@_0BB@KKNHPPIN@host_unreachable?$AA@ 0000000180034120     libcpmt:syserror.obj
 0002:00001138       ??_C@_0BG@DJGBJIIK@operation_in_progress?$AA@ 0000000180034138     libcpmt:syserror.obj
 0002:00001150       ??_C@_0M@EGEKIIMP@interrupted?$AA@ 0000000180034150     libcpmt:syserror.obj
 0002:00001160       ??_C@_0BB@FFIHMIPJ@invalid_argument?$AA@ 0000000180034160     libcpmt:syserror.obj
 0002:00001178       ??_C@_0BC@FIFLCHLO@already_connected?$AA@ 0000000180034178     libcpmt:syserror.obj
 0002:00001190       ??_C@_0BE@GJJJJDDA@too_many_files_open?$AA@ 0000000180034190     libcpmt:syserror.obj
 0002:000011a8       ??_C@_0N@HPMLKHPL@message_size?$AA@ 00000001800341a8     libcpmt:syserror.obj
 0002:000011b8       ??_C@_0BC@LEEIKBAL@filename_too_long?$AA@ 00000001800341b8     libcpmt:syserror.obj
 0002:000011d0       ??_C@_0N@FCPALPJK@network_down?$AA@ 00000001800341d0     libcpmt:syserror.obj
 0002:000011e0       ??_C@_0O@EHNDLHIG@network_reset?$AA@ 00000001800341e0     libcpmt:syserror.obj
 0002:000011f0       ??_C@_0BE@JFNJIDNF@network_unreachable?$AA@ 00000001800341f0     libcpmt:syserror.obj
 0002:00001208       ??_C@_0BA@FDIJKJCL@no_buffer_space?$AA@ 0000000180034208     libcpmt:syserror.obj
 0002:00001218       ??_C@_0BD@JHIHCGKP@no_protocol_option?$AA@ 0000000180034218     libcpmt:syserror.obj
 0002:00001230       ??_C@_0O@GBCLHHD@not_connected?$AA@ 0000000180034230     libcpmt:syserror.obj
 0002:00001240       ??_C@_0N@IMHKKLEM@not_a_socket?$AA@ 0000000180034240     libcpmt:syserror.obj
 0002:00001250       ??_C@_0BI@ICEIDKLJ@operation_not_supported?$AA@ 0000000180034250     libcpmt:syserror.obj
 0002:00001268       ??_C@_0BH@KAPBAIJF@protocol_not_supported?$AA@ 0000000180034268     libcpmt:syserror.obj
 0002:00001280       ??_C@_0BE@GAOJJFPC@wrong_protocol_type?$AA@ 0000000180034280     libcpmt:syserror.obj
 0002:00001298       ??_C@_09NCHNLHPG@timed_out?$AA@ 0000000180034298     libcpmt:syserror.obj
 0002:000012a8       ??_C@_0BG@GDGHKFDH@operation_would_block?$AA@ 00000001800342a8     libcpmt:syserror.obj
 0002:000012c0       ??_C@_0BN@LKKBCCDB@address?5family?5not?5supported?$AA@ 00000001800342c0     libcpmt:syserror.obj
 0002:000012e0       ??_C@_0P@LDMLAFHI@address?5in?5use?$AA@ 00000001800342e0     libcpmt:syserror.obj
 0002:000012f0       ??_C@_0BG@DHPCNBJB@address?5not?5available?$AA@ 00000001800342f0     libcpmt:syserror.obj
 0002:00001308       ??_C@_0BC@DFIBIBIL@already?5connected?$AA@ 0000000180034308     libcpmt:syserror.obj
 0002:00001320       ??_C@_0BH@CAKOHOMI@argument?5list?5too?5long?$AA@ 0000000180034320     libcpmt:syserror.obj
 0002:00001338       ??_C@_0BH@CGIMPKIM@argument?5out?5of?5domain?$AA@ 0000000180034338     libcpmt:syserror.obj
 0002:00001350       ??_C@_0M@KGHGGJGL@bad?5address?$AA@ 0000000180034350     libcpmt:syserror.obj
 0002:00001360       ??_C@_0BE@MPJPGCEO@bad?5file?5descriptor?$AA@ 0000000180034360     libcpmt:syserror.obj
 0002:00001378       ??_C@_0M@PMMIEFCP@bad?5message?$AA@ 0000000180034378     libcpmt:syserror.obj
 0002:00001388       ??_C@_0M@KPHOFDBE@broken?5pipe?$AA@ 0000000180034388     libcpmt:syserror.obj
 0002:00001398       ??_C@_0BD@MGNDDEGM@connection?5aborted?$AA@ 0000000180034398     libcpmt:syserror.obj
 0002:000013b0       ??_C@_0BP@KAIHPOGN@connection?5already?5in?5progress?$AA@ 00000001800343b0     libcpmt:syserror.obj
 0002:000013d0       ??_C@_0BD@PJLIIJEL@connection?5refused?$AA@ 00000001800343d0     libcpmt:syserror.obj
 0002:000013e8       ??_C@_0BB@IECNJNOI@connection?5reset?$AA@ 00000001800343e8     libcpmt:syserror.obj
 0002:00001400       ??_C@_0BN@KDMIFEIP@destination?5address?5required?$AA@ 0000000180034400     libcpmt:syserror.obj
 0002:00001420       ??_C@_0BI@BNCLIGPB@executable?5format?5error?$AA@ 0000000180034420     libcpmt:syserror.obj
 0002:00001438       ??_C@_0P@DNAJLBJK@file?5too?5large?$AA@ 0000000180034438     libcpmt:syserror.obj
 0002:00001448       ??_C@_0BB@DHFDFGDM@host?5unreachable?$AA@ 0000000180034448     libcpmt:syserror.obj
 0002:00001460       ??_C@_0BD@JPHBMONG@identifier?5removed?$AA@ 0000000180034460     libcpmt:syserror.obj
 0002:00001478       ??_C@_0BG@CDNPAGJK@illegal?5byte?5sequence?$AA@ 0000000180034478     libcpmt:syserror.obj
 0002:00001490       ??_C@_0CD@BNPLBMNA@inappropriate?5io?5control?5operati@ 0000000180034490     libcpmt:syserror.obj
 0002:000014b8       ??_C@_0N@OHAFKDEK@invalid?5seek?$AA@ 00000001800344b8     libcpmt:syserror.obj
 0002:000014c8       ??_C@_0P@FLLDBIDK@is?5a?5directory?$AA@ 00000001800344c8     libcpmt:syserror.obj
 0002:000014d8       ??_C@_0N@IFLPBIOP@message?5size?$AA@ 00000001800344d8     libcpmt:syserror.obj
 0002:000014e8       ??_C@_0N@KIIEAAIO@network?5down?$AA@ 00000001800344e8     libcpmt:syserror.obj
 0002:000014f8       ??_C@_0O@FNPDBHEE@network?5reset?$AA@ 00000001800344f8     libcpmt:syserror.obj
 0002:00001508       ??_C@_0BE@IFNCKGE@network?5unreachable?$AA@ 0000000180034508     libcpmt:syserror.obj
 0002:00001520       ??_C@_0BA@PFFCAOFK@no?5buffer?5space?$AA@ 0000000180034520     libcpmt:syserror.obj
 0002:00001530       ??_C@_0BB@IEPBLJHK@no?5child?5process?$AA@ 0000000180034530     libcpmt:syserror.obj
 0002:00001548       ??_C@_07PLECNNKG@no?5link?$AA@ 0000000180034548     libcpmt:syserror.obj
 0002:00001550       ??_C@_0BF@PBGGPKKE@no?5message?5available?$AA@ 0000000180034550     libcpmt:syserror.obj
 0002:00001568       ??_C@_0L@EDOLMPAK@no?5message?$AA@ 0000000180034568     libcpmt:syserror.obj
 0002:00001578       ??_C@_0BD@EAMBFIDF@no?5protocol?5option?$AA@ 0000000180034578     libcpmt:syserror.obj
 0002:00001590       ??_C@_0BE@MKFDAFMP@no?5stream?5resources?$AA@ 0000000180034590     libcpmt:syserror.obj
 0002:000015a8       ??_C@_0BK@IMCPHCBI@no?5such?5device?5or?5address?$AA@ 00000001800345a8     libcpmt:syserror.obj
 0002:000015c8       ??_C@_0BA@ENLPPKBN@no?5such?5process?$AA@ 00000001800345c8     libcpmt:syserror.obj
 0002:000015d8       ??_C@_0BA@DOCPFFJG@not?5a?5directory?$AA@ 00000001800345d8     libcpmt:syserror.obj
 0002:000015e8       ??_C@_0N@POEIPGGF@not?5a?5socket?$AA@ 00000001800345e8     libcpmt:syserror.obj
 0002:000015f8       ??_C@_0N@LGAPMMPI@not?5a?5stream?$AA@ 00000001800345f8     libcpmt:syserror.obj
 0002:00001608       ??_C@_0O@GLMIBBEG@not?5connected?$AA@ 0000000180034608     libcpmt:syserror.obj
 0002:00001618       ??_C@_0O@NHEDABJP@not?5supported?$AA@ 0000000180034618     libcpmt:syserror.obj
 0002:00001628       ??_C@_0BG@KDKHOPCO@operation?5in?5progress?$AA@ 0000000180034628     libcpmt:syserror.obj
 0002:00001640       ??_C@_0BI@OHIEJAAB@operation?5not?5permitted?$AA@ 0000000180034640     libcpmt:syserror.obj
 0002:00001658       ??_C@_0BI@LNEGIFLN@operation?5not?5supported?$AA@ 0000000180034658     libcpmt:syserror.obj
 0002:00001670       ??_C@_0BG@OEMDKMEE@operation?5would?5block?$AA@ 0000000180034670     libcpmt:syserror.obj
 0002:00001688       ??_C@_0L@BLPOFLNJ@owner?5dead?$AA@ 0000000180034688     libcpmt:syserror.obj
 0002:00001698       ??_C@_0P@FNPOCJBE@protocol?5error?$AA@ 0000000180034698     libcpmt:syserror.obj
 0002:000016a8       ??_C@_0BH@JPPPLHJB@protocol?5not?5supported?$AA@ 00000001800346a8     libcpmt:syserror.obj
 0002:000016c0       ??_C@_0BG@EICBIHDP@read?5only?5file?5system?$AA@ 00000001800346c0     libcpmt:syserror.obj
 0002:000016d8       ??_C@_0BO@BJBOMOEJ@resource?5deadlock?5would?5occur?$AA@ 00000001800346d8     libcpmt:syserror.obj
 0002:000016f8       ??_C@_0BE@GOIPJJHG@result?5out?5of?5range?$AA@ 00000001800346f8     libcpmt:syserror.obj
 0002:00001710       ??_C@_0BG@MPLKFPAE@state?5not?5recoverable?$AA@ 0000000180034710     libcpmt:syserror.obj
 0002:00001728       ??_C@_0P@DIIFGFCG@stream?5timeout?$AA@ 0000000180034728     libcpmt:syserror.obj
 0002:00001738       ??_C@_0P@IPFDMIFL@text?5file?5busy?$AA@ 0000000180034738     libcpmt:syserror.obj
 0002:00001748       ??_C@_09KJPPMAOI@timed?5out?$AA@ 0000000180034748     libcpmt:syserror.obj
 0002:00001758       ??_C@_0BO@HACHBEKI@too?5many?5files?5open?5in?5system?$AA@ 0000000180034758     libcpmt:syserror.obj
 0002:00001778       ??_C@_0P@HCOMKFCC@too?5many?5links?$AA@ 0000000180034778     libcpmt:syserror.obj
 0002:00001788       ??_C@_0BO@EFGOJEF@too?5many?5symbolic?5link?5levels?$AA@ 0000000180034788     libcpmt:syserror.obj
 0002:000017a8       ??_C@_0BA@KGKGOOJA@value?5too?5large?$AA@ 00000001800347a8     libcpmt:syserror.obj
 0002:000017b8       ??_C@_0BE@MIEJDDNH@wrong?5protocol?5type?$AA@ 00000001800347b8     libcpmt:syserror.obj
 0002:000017d8       ??_7bad_alloc@std@@6B@     00000001800347d8     libcpmt:xthrow.obj
 0002:000017e8       ??_C@_0P@GHFPNOJB@bad?5allocation?$AA@ 00000001800347e8     libcpmt:xthrow.obj
 0002:00001800       ??_7logic_error@std@@6B@   0000000180034800     libcpmt:xthrow.obj
 0002:00001818       ??_7length_error@std@@6B@  0000000180034818     libcpmt:xthrow.obj
 0002:00001830       ??_7out_of_range@std@@6B@  0000000180034830     libcpmt:xthrow.obj
 0002:00001898       ??_7_Facet_base@std@@6B@   0000000180034898     libcpmt:locale0.obj
 0002:000018b8       ??_7_Locimp@locale@std@@6B@ 00000001800348b8     libcpmt:locale0.obj
 0002:000018d0       ??_C@_01NBENCBCI@?$CK?$AA@ 00000001800348d0     libcpmt:locale0.obj
 0002:000018d4       ??_C@_01GFHCPBMG@C?$AA@    00000001800348d4     libcpmt:locale0.obj
 0002:000019f8       ??_7?$ctype@D@std@@6B@     00000001800349f8     libcpmt:cerr.obj
 0002:00001a58       ??_7ios_base@std@@6B@      0000000180034a58     libcpmt:cerr.obj
 0002:00001a68       ??_7?$basic_ios@DU?$char_traits@D@std@@@std@@6B@ 0000000180034a68     libcpmt:cerr.obj
 0002:00001a78       ??_7?$basic_streambuf@DU?$char_traits@D@std@@@std@@6B@ 0000000180034a78     libcpmt:cerr.obj
 0002:00001af8       ??_7?$basic_ostream@DU?$char_traits@D@std@@@std@@6B@ 0000000180034af8     libcpmt:cerr.obj
 0002:00001b00       ??_8?$basic_ostream@DU?$char_traits@D@std@@@std@@7B@ 0000000180034b00     libcpmt:cerr.obj
 0002:00001b10       ??_7?$basic_filebuf@DU?$char_traits@D@std@@@std@@6B@ 0000000180034b10     libcpmt:cerr.obj
 0002:00001b90       ??_7?$codecvt@DDH@std@@6B@ 0000000180034b90     libcpmt:cerr.obj
 0002:00001be0       ??_C@_08EPJLHIJG@bad?5cast?$AA@ 0000000180034be0     libcpmt:cerr.obj
 0002:00001bf0       ?_BADOFF@std@@3_JB         0000000180034bf0     libcpmt:ios.obj
 0002:00001bf8       ??_C@_11LOCGONAA@?$AA?$AA@ 0000000180034bf8     libcpmt:wlocale.obj
 0002:00001bfc       ??_C@_01JOAMLHOP@?9?$AA@   0000000180034bfc     libcpmt:wlocale.obj
 0002:00001ce0       __real@0000000000000000    0000000180034ce0     libcpmt:xprec.obj
 0002:00001d88       ??_C@_17LGKOMLJ@?$AA?4?$AA?4?$AA?4?$AA?$AA@ 0000000180034d88     LIBCMT:wassert.obj
 0002:00001d90       ??_C@_13LBAGMAIH@?$AA?6?$AA?$AA@ 0000000180034d90     LIBCMT:wassert.obj
 0002:00001d94       ??_C@_15IABLJNFO@?$AA?6?$AA?6?$AA?$AA@ 0000000180034d94     LIBCMT:wassert.obj
 0002:00001da0       ??_C@_1CE@OJBNHDMO@?$AAA?$AAs?$AAs?$AAe?$AAr?$AAt?$AAi?$AAo?$AAn?$AA?5?$AAf?$AAa?$AAi?$AAl?$AAe?$AAd?$AA?$CB?$AA?$AA@ 0000000180034da0     LIBCMT:wassert.obj
 0002:00001dc8       ??_C@_1BE@PHKBBGE@?$AAP?$AAr?$AAo?$AAg?$AAr?$AAa?$AAm?$AA?3?$AA?5?$AA?$AA@ 0000000180034dc8     LIBCMT:wassert.obj
 0002:00001de0       ??_C@_1CO@EAEJAADC@?$AA?$DM?$AAp?$AAr?$AAo?$AAg?$AAr?$AAa?$AAm?$AA?5?$AAn?$AAa?$AAm?$AAe?$AA?5?$AAu?$AAn?$AAk?$AAn?$AAo?$AAw?$AAn?$AA?$DO?$AA?$AA@ 0000000180034de0     LIBCMT:wassert.obj
 0002:00001e10       ??_C@_1O@HEMHKNDC@?$AAF?$AAi?$AAl?$AAe?$AA?3?$AA?5?$AA?$AA@ 0000000180034e10     LIBCMT:wassert.obj
 0002:00001e20       ??_C@_1O@KCAFKHJE@?$AAL?$AAi?$AAn?$AAe?$AA?3?$AA?5?$AA?$AA@ 0000000180034e20     LIBCMT:wassert.obj
 0002:00001e30       ??_C@_1BK@PEDCIPMA@?$AAE?$AAx?$AAp?$AAr?$AAe?$AAs?$AAs?$AAi?$AAo?$AAn?$AA?3?$AA?5?$AA?$AA@ 0000000180034e30     LIBCMT:wassert.obj
 0002:00001e50       ??_C@_1OA@EGMLFBHJ@?$AAF?$AAo?$AAr?$AA?5?$AAi?$AAn?$AAf?$AAo?$AAr?$AAm?$AAa?$AAt?$AAi?$AAo?$AAn?$AA?5?$AAo?$AAn?$AA?5?$AAh?$AAo?$AAw?$AA?5?$AAy?$AAo?$AAu?$AAr?$AA?5?$AAp?$AAr?$AAo?$AAg@ 0000000180034e50     LIBCMT:wassert.obj
 0002:00001f30       ??_C@_1HK@POCJMFGK@?$AA?$CI?$AAP?$AAr?$AAe?$AAs?$AAs?$AA?5?$AAR?$AAe?$AAt?$AAr?$AAy?$AA?5?$AAt?$AAo?$AA?5?$AAd?$AAe?$AAb?$AAu?$AAg?$AA?5?$AAt?$AAh?$AAe?$AA?5?$AAa?$AAp?$AAp?$AAl?$AAi?$AAc@ 0000000180034f30     LIBCMT:wassert.obj
 0002:00001fb0       ??_C@_1EK@MBDPDCGA@?$AAM?$AAi?$AAc?$AAr?$AAo?$AAs?$AAo?$AAf?$AAt?$AA?5?$AAV?$AAi?$AAs?$AAu?$AAa?$AAl?$AA?5?$AAC?$AA?$CL?$AA?$CL?$AA?5?$AAR?$AAu?$AAn?$AAt?$AAi?$AAm?$AAe?$AA?5?$AAL?$AAi?$AAb@ 0000000180034fb0     LIBCMT:wassert.obj
 0002:00001ffc       ??_C@_06MEIMCGCF@_hypot?$AA@ 0000000180034ffc     LIBCMT:hypot.obj
 0002:00002010       ??_7type_info@@6B@         0000000180035010     LIBCMT:typinfo.obj
 0002:00002018       _pRawDllMain               0000000180035018     LIBCMT:dllcrt0.obj
 0002:00002018       _pDefaultRawDllMain        0000000180035018     LIBCMT:dllcrt0.obj
 0002:000020f8       _FPinit                    00000001800350f8     LIBCMT:fpinit.obj
 0002:00002108       ??_7exception@std@@6B@     0000000180035108     LIBCMT:stdexcpt.obj
 0002:00002118       ??_C@_0BC@EOODALEL@Unknown?5exception?$AA@ 0000000180035118     LIBCMT:stdexcpt.obj
 0002:00002138       ??_7bad_cast@std@@6B@      0000000180035138     LIBCMT:stdexcpt.obj
 0002:00002150       ??_7bad_typeid@std@@6B@    0000000180035150     LIBCMT:stdexcpt.obj
 0002:00002168       ??_7__non_rtti_object@std@@6B@ 0000000180035168     LIBCMT:stdexcpt.obj
 0002:00002180       __newctype                 0000000180035180     LIBCMT:ctype.obj
 0002:00002480       _wctype                    0000000180035480     LIBCMT:ctype.obj
 0002:00002690       __newclmap                 0000000180035690     LIBCMT:ctype.obj
 0002:00002810       __newcumap                 0000000180035810     LIBCMT:ctype.obj
 0002:00002990       ??_C@_1BK@MGMFAEKH@?$AAk?$AAe?$AAr?$AAn?$AAe?$AAl?$AA3?$AA2?$AA?4?$AAd?$AAl?$AAl?$AA?$AA@ 0000000180035990     LIBCMT:winapisupp.obj
 0002:000029b0       ??_C@_08KNHFBNJ@FlsAlloc?$AA@ 00000001800359b0     LIBCMT:winapisupp.obj
 0002:000029c0       ??_C@_07PEJMOBNF@FlsFree?$AA@ 00000001800359c0     LIBCMT:winapisupp.obj
 0002:000029c8       ??_C@_0M@GDNOONDI@FlsGetValue?$AA@ 00000001800359c8     LIBCMT:winapisupp.obj
 0002:000029d8       ??_C@_0M@JCPCPOEF@FlsSetValue?$AA@ 00000001800359d8     LIBCMT:winapisupp.obj
 0002:000029e8       ??_C@_0BM@HCFOFFN@InitializeCriticalSectionEx?$AA@ 00000001800359e8     LIBCMT:winapisupp.obj
 0002:00002a08       ??_C@_0P@DLHPPCNH@CreateEventExW?$AA@ 0000000180035a08     LIBCMT:winapisupp.obj
 0002:00002a18       ??_C@_0BD@KIEEOEEH@CreateSemaphoreExW?$AA@ 0000000180035a18     LIBCMT:winapisupp.obj
 0002:00002a30       ??_C@_0BI@BKLFFAPO@SetThreadStackGuarantee?$AA@ 0000000180035a30     LIBCMT:winapisupp.obj
 0002:00002a48       ??_C@_0BG@OGFAJCKC@CreateThreadpoolTimer?$AA@ 0000000180035a48     LIBCMT:winapisupp.obj
 0002:00002a60       ??_C@_0BD@LPLEMMDI@SetThreadpoolTimer?$AA@ 0000000180035a60     LIBCMT:winapisupp.obj
 0002:00002a78       ??_C@_0CA@FMNJENH@WaitForThreadpoolTimerCallbacks?$AA@ 0000000180035a78     LIBCMT:winapisupp.obj
 0002:00002a98       ??_C@_0BF@DCFCCNOC@CloseThreadpoolTimer?$AA@ 0000000180035a98     LIBCMT:winapisupp.obj
 0002:00002ab0       ??_C@_0BF@FLABGKKM@CreateThreadpoolWait?$AA@ 0000000180035ab0     LIBCMT:winapisupp.obj
 0002:00002ac8       ??_C@_0BC@MGCOHNA@SetThreadpoolWait?$AA@ 0000000180035ac8     LIBCMT:winapisupp.obj
 0002:00002ae0       ??_C@_0BE@OCIOMIMP@CloseThreadpoolWait?$AA@ 0000000180035ae0     LIBCMT:winapisupp.obj
 0002:00002af8       ??_C@_0BJ@LKGHFHBO@FlushProcessWriteBuffers?$AA@ 0000000180035af8     LIBCMT:winapisupp.obj
 0002:00002b18       ??_C@_0BP@KALKKPMO@FreeLibraryWhenCallbackReturns?$AA@ 0000000180035b18     LIBCMT:winapisupp.obj
 0002:00002b38       ??_C@_0BK@DFNBACLA@GetCurrentProcessorNumber?$AA@ 0000000180035b38     LIBCMT:winapisupp.obj
 0002:00002b58       ??_C@_0BP@KHGALBC@GetLogicalProcessorInformation?$AA@ 0000000180035b58     LIBCMT:winapisupp.obj
 0002:00002b78       ??_C@_0BE@FKKLLFLM@CreateSymbolicLinkW?$AA@ 0000000180035b78     LIBCMT:winapisupp.obj
 0002:00002b90       ??_C@_0BJ@OHNKDLIJ@SetDefaultDllDirectories?$AA@ 0000000180035b90     LIBCMT:winapisupp.obj
 0002:00002bb0       ??_C@_0BE@LJANKFHF@EnumSystemLocalesEx?$AA@ 0000000180035bb0     LIBCMT:winapisupp.obj
 0002:00002bc8       ??_C@_0BA@IHGNDAEB@CompareStringEx?$AA@ 0000000180035bc8     LIBCMT:winapisupp.obj
 0002:00002bd8       ??_C@_0BA@EPCJIIPD@GetDateFormatEx?$AA@ 0000000180035bd8     LIBCMT:winapisupp.obj
 0002:00002be8       ??_C@_0BA@ONOKGCMP@GetLocaleInfoEx?$AA@ 0000000180035be8     LIBCMT:winapisupp.obj
 0002:00002bf8       ??_C@_0BA@CIJJKCJJ@GetTimeFormatEx?$AA@ 0000000180035bf8     LIBCMT:winapisupp.obj
 0002:00002c08       ??_C@_0BJ@PBCCBIPI@GetUserDefaultLocaleName?$AA@ 0000000180035c08     LIBCMT:winapisupp.obj
 0002:00002c28       ??_C@_0BC@CELBKLLA@IsValidLocaleName?$AA@ 0000000180035c28     LIBCMT:winapisupp.obj
 0002:00002c40       ??_C@_0O@KKBNKAPF@LCMapStringEx?$AA@ 0000000180035c40     LIBCMT:winapisupp.obj
 0002:00002c50       ??_C@_0BE@JOGNEJCI@GetCurrentPackageId?$AA@ 0000000180035c50     LIBCMT:winapisupp.obj
 0002:00002c68       ??_C@_0P@CDHHOHKP@GetTickCount64?$AA@ 0000000180035c68     LIBCMT:winapisupp.obj
 0002:00002c78       ??_C@_0BO@KPCLFDJJ@GetFileInformationByHandleExW?$AA@ 0000000180035c78     LIBCMT:winapisupp.obj
 0002:00002c98       ??_C@_0BM@MHIDLABK@SetFileInformationByHandleW?$AA@ 0000000180035c98     LIBCMT:winapisupp.obj
 0002:00002cc0       LcidToLocaleNameTable      0000000180035cc0     LIBCMT:winapinls.obj
 0002:00003b00       LocaleNameToIndexTable     0000000180036b00     LIBCMT:winapinls.obj
 0002:00004940       ??_C@_15EMKDOKLE@?$AAa?$AAr?$AA?$AA@ 0000000180037940     LIBCMT:winapinls.obj
 0002:00004948       ??_C@_15KNPADPLH@?$AAb?$AAg?$AA?$AA@ 0000000180037948     LIBCMT:winapinls.obj
 0002:00004950       ??_C@_15EDMHLDMO@?$AAc?$AAa?$AA?$AA@ 0000000180037950     LIBCMT:winapinls.obj
 0002:00004958       ??_C@_1O@BPEAJADD@?$AAz?$AAh?$AA?9?$AAC?$AAH?$AAS?$AA?$AA@ 0000000180037958     LIBCMT:winapinls.obj
 0002:00004968       ??_C@_15LJNHCMNK@?$AAc?$AAs?$AA?$AA@ 0000000180037968     LIBCMT:winapinls.obj
 0002:00004970       ??_C@_15FOMCIDHG@?$AAd?$AAa?$AA?$AA@ 0000000180037970     LIBCMT:winapinls.obj
 0002:00004978       ??_C@_15NBKABECB@?$AAd?$AAe?$AA?$AA@ 0000000180037978     LIBCMT:winapinls.obj
 0002:00004980       ??_C@_15GHPEIIAO@?$AAe?$AAl?$AA?$AA@ 0000000180037980     LIBCMT:winapinls.obj
 0002:00004988       ??_C@_15MNPNEAIF@?$AAe?$AAn?$AA?$AA@ 0000000180037988     LIBCMT:winapinls.obj
 0002:00004990       ??_C@_15GPIOMPMH@?$AAe?$AAs?$AA?$AA@ 0000000180037990     LIBCMT:winapinls.obj
 0002:00004998       ??_C@_15NGLOAKJC@?$AAf?$AAi?$AA?$AA@ 0000000180037998     LIBCMT:winapinls.obj
 0002:000049a0       ??_C@_15FBKGNKAM@?$AAf?$AAr?$AA?$AA@ 00000001800379a0     LIBCMT:winapinls.obj
 0002:000049a8       ??_C@_15KGGCNEFK@?$AAh?$AAe?$AA?$AA@ 00000001800379a8     LIBCMT:winapinls.obj
 0002:000049b0       ??_C@_15PGHLIDMF@?$AAh?$AAu?$AA?$AA@ 00000001800379b0     LIBCMT:winapinls.obj
 0002:000049b8       ??_C@_15BIEMAPLM@?$AAi?$AAs?$AA?$AA@ 00000001800379b8     LIBCMT:winapinls.obj
 0002:000049c0       ??_C@_15IFJLDHAF@?$AAi?$AAt?$AA?$AA@ 00000001800379c0     LIBCMT:winapinls.obj
 0002:000049c8       ??_C@_15GEMIOCAG@?$AAj?$AAa?$AA?$AA@ 00000001800379c8     LIBCMT:winapinls.obj
 0002:000049d0       ??_C@_15EPELEGJA@?$AAk?$AAo?$AA?$AA@ 00000001800379d0     LIBCMT:winapinls.obj
 0002:000049d8       ??_C@_15NDDHIMN@?$AAn?$AAl?$AA?$AA@ 00000001800379d8     LIBCMT:winapinls.obj
 0002:000049e0       ??_C@_15BPIGNHCD@?$AAn?$AAo?$AA?$AA@ 00000001800379e0     LIBCMT:winapinls.obj
 0002:000049e8       ??_C@_15DEOPBLCG@?$AAp?$AAl?$AA?$AA@ 00000001800379e8     LIBCMT:winapinls.obj
 0002:000049f0       ??_C@_15KBECGEFG@?$AAp?$AAt?$AA?$AA@ 00000001800379f0     LIBCMT:winapinls.obj
 0002:000049f8       ??_C@_15GLJCBFMD@?$AAr?$AAo?$AA?$AA@ 00000001800379f8     LIBCMT:winapinls.obj
 0002:00004a00       ??_C@_15FEDGKCDI@?$AAr?$AAu?$AA?$AA@ 0000000180037a00     LIBCMT:winapinls.obj
 0002:00004a08       ??_C@_15GLKMLLHM@?$AAh?$AAr?$AA?$AA@ 0000000180037a08     LIBCMT:winapinls.obj
 0002:00004a10       ??_C@_15CPKMFBDB@?$AAs?$AAk?$AA?$AA@ 0000000180037a10     LIBCMT:winapinls.obj
 0002:00004a18       ??_C@_15BAAIOGMK@?$AAs?$AAq?$AA?$AA@ 0000000180037a18     LIBCMT:winapinls.obj
 0002:00004a20       ??_C@_15INNPNOHD@?$AAs?$AAv?$AA?$AA@ 0000000180037a20     LIBCMT:winapinls.obj
 0002:00004a28       ??_C@_15CABMMOGH@?$AAt?$AAh?$AA?$AA@ 0000000180037a28     LIBCMT:winapinls.obj
 0002:00004a30       ??_C@_15BPLIHJJM@?$AAt?$AAr?$AA?$AA@ 0000000180037a30     LIBCMT:winapinls.obj
 0002:00004a38       ??_C@_15NEOEKKDJ@?$AAu?$AAr?$AA?$AA@ 0000000180037a38     LIBCMT:winapinls.obj
 0002:00004a40       ??_C@_15NFICGAJK@?$AAi?$AAd?$AA?$AA@ 0000000180037a40     LIBCMT:winapinls.obj
 0002:00004a48       ??_C@_15PJPFLCCM@?$AAu?$AAk?$AA?$AA@ 0000000180037a48     LIBCMT:winapinls.obj
 0002:00004a50       ??_C@_15HPJPHDM@?$AAb?$AAe?$AA?$AA@ 0000000180037a50     LIBCMT:winapinls.obj
 0002:00004a58       ??_C@_15LCHLGJII@?$AAs?$AAl?$AA?$AA@ 0000000180037a58     LIBCMT:winapinls.obj
 0002:00004a60       ??_C@_15PCFJPHHO@?$AAe?$AAt?$AA?$AA@ 0000000180037a60     LIBCMT:winapinls.obj
 0002:00004a68       ??_C@_15HPFPGODN@?$AAl?$AAv?$AA?$AA@ 0000000180037a68     LIBCMT:winapinls.obj
 0002:00004a70       ??_C@_15NFFGKGLG@?$AAl?$AAt?$AA?$AA@ 0000000180037a70     LIBCMT:winapinls.obj
 0002:00004a78       ??_C@_15BDAKCCHN@?$AAf?$AAa?$AA?$AA@ 0000000180037a78     LIBCMT:winapinls.obj
 0002:00004a80       ??_C@_15NFGIAIAJ@?$AAv?$AAi?$AA?$AA@ 0000000180037a80     LIBCMT:winapinls.obj
 0002:00004a88       ??_C@_15LMKNDMHN@?$AAh?$AAy?$AA?$AA@ 0000000180037a88     LIBCMT:winapinls.obj
 0002:00004a90       ??_C@_15IJBHMCFL@?$AAa?$AAz?$AA?$AA@ 0000000180037a90     LIBCMT:winapinls.obj
 0002:00004a98       ??_C@_15EKOFJABL@?$AAe?$AAu?$AA?$AA@ 0000000180037a98     LIBCMT:winapinls.obj
 0002:00004aa0       ??_C@_15BGHADCNK@?$AAm?$AAk?$AA?$AA@ 0000000180037aa0     LIBCMT:winapinls.obj
 0002:00004aa8       ??_C@_15JDNICKHM@?$AAa?$AAf?$AA?$AA@ 0000000180037aa8     LIBCMT:winapinls.obj
 0002:00004ab0       ??_C@_15KPJEDBKD@?$AAk?$AAa?$AA?$AA@ 0000000180037ab0     LIBCMT:winapinls.obj
 0002:00004ab8       ??_C@_15PDNFFFEO@?$AAf?$AAo?$AA?$AA@ 0000000180037ab8     LIBCMT:winapinls.obj
 0002:00004ac0       ??_C@_15OMLEGLOC@?$AAh?$AAi?$AA?$AA@ 0000000180037ac0     LIBCMT:winapinls.obj
 0002:00004ac8       ??_C@_15IDNNENKK@?$AAm?$AAs?$AA?$AA@ 0000000180037ac8     LIBCMT:winapinls.obj
 0002:00004ad0       ??_C@_15MACJNBMH@?$AAk?$AAk?$AA?$AA@ 0000000180037ad0     LIBCMT:winapinls.obj
 0002:00004ad8       ??_C@_15DKDJEOND@?$AAk?$AAy?$AA?$AA@ 0000000180037ad8     LIBCMT:winapinls.obj
 0002:00004ae0       ??_C@_15DFGDLJBG@?$AAs?$AAw?$AA?$AA@ 0000000180037ae0     LIBCMT:winapinls.obj
 0002:00004ae8       ??_C@_15BBFAICNG@?$AAu?$AAz?$AA?$AA@ 0000000180037ae8     LIBCMT:winapinls.obj
 0002:00004af0       ??_C@_15DKNDCGEA@?$AAt?$AAt?$AA?$AA@ 0000000180037af0     LIBCMT:winapinls.obj
 0002:00004af8       ??_C@_15MGIFMDPL@?$AAp?$AAa?$AA?$AA@ 0000000180037af8     LIBCMT:winapinls.obj
 0002:00004b00       ??_C@_15HCNDBBA@?$AAg?$AAu?$AA?$AA@ 0000000180037b00     LIBCMT:winapinls.obj
 0002:00004b08       ??_C@_15FNBEIBON@?$AAt?$AAa?$AA?$AA@ 0000000180037b08     LIBCMT:winapinls.obj
 0002:00004b10       ??_C@_15NCHGBGLK@?$AAt?$AAe?$AA?$AA@ 0000000180037b10     LIBCMT:winapinls.obj
 0002:00004b18       ??_C@_15PHPHCBPF@?$AAk?$AAn?$AA?$AA@ 0000000180037b18     LIBCMT:winapinls.obj
 0002:00004b20       ??_C@_15DLGBCKMP@?$AAm?$AAr?$AA?$AA@ 0000000180037b20     LIBCMT:winapinls.obj
 0002:00004b28       ??_C@_15EABBLBFF@?$AAs?$AAa?$AA?$AA@ 0000000180037b28     LIBCMT:winapinls.obj
 0002:00004b30       ??_C@_15CBKOMCOI@?$AAm?$AAn?$AA?$AA@ 0000000180037b30     LIBCMT:winapinls.obj
 0002:00004b38       ??_C@_15CKDMCJAF@?$AAg?$AAl?$AA?$AA@ 0000000180037b38     LIBCMT:winapinls.obj
 0002:00004b40       ??_C@_17CNJFBPG@?$AAk?$AAo?$AAk?$AA?$AA@ 0000000180037b40     LIBCMT:winapinls.obj
 0002:00004b48       ??_C@_17FFBJICPL@?$AAs?$AAy?$AAr?$AA?$AA@ 0000000180037b48     LIBCMT:winapinls.obj
 0002:00004b50       ??_C@_17KPNDCPAF@?$AAd?$AAi?$AAv?$AA?$AA@ 0000000180037b50     LIBCMT:winapinls.obj
 0002:00004b58       ??_C@_1M@OKAHONE@?$AAa?$AAr?$AA?9?$AAS?$AAA?$AA?$AA@ 0000000180037b58     LIBCMT:winapinls.obj
 0002:00004b68       ??_C@_1M@FFFIGIGK@?$AAb?$AAg?$AA?9?$AAB?$AAG?$AA?$AA@ 0000000180037b68     LIBCMT:winapinls.obj
 0002:00004b78       ??_C@_1M@BJNKEDC@?$AAc?$AAa?$AA?9?$AAE?$AAS?$AA?$AA@ 0000000180037b78     LIBCMT:winapinls.obj
 0002:00004b88       ??_C@_1M@CLNBBOPM@?$AAz?$AAh?$AA?9?$AAT?$AAW?$AA?$AA@ 0000000180037b88     LIBCMT:winapinls.obj
 0002:00004b98       ??_C@_1M@IJJHFJHA@?$AAc?$AAs?$AA?9?$AAC?$AAZ?$AA?$AA@ 0000000180037b98     LIBCMT:winapinls.obj
 0002:00004ba8       ??_C@_1M@CLPEOBGI@?$AAd?$AAa?$AA?9?$AAD?$AAK?$AA?$AA@ 0000000180037ba8     LIBCMT:winapinls.obj
 0002:00004bb8       ??_C@_1M@MCMADGCB@?$AAd?$AAe?$AA?9?$AAD?$AAE?$AA?$AA@ 0000000180037bb8     LIBCMT:winapinls.obj
 0002:00004bc8       ??_C@_1M@OOCKEMAM@?$AAe?$AAl?$AA?9?$AAG?$AAR?$AA?$AA@ 0000000180037bc8     LIBCMT:winapinls.obj
 0002:00004bd8       ??_C@_1M@BMHNFIME@?$AAe?$AAn?$AA?9?$AAU?$AAS?$AA?$AA@ 0000000180037bd8     LIBCMT:winapinls.obj
 0002:00004be8       ??_C@_1M@DDNJFGID@?$AAf?$AAi?$AA?9?$AAF?$AAI?$AA?$AA@ 0000000180037be8     LIBCMT:winapinls.obj
 0002:00004bf8       ??_C@_1M@GLIPPMAC@?$AAf?$AAr?$AA?9?$AAF?$AAR?$AA?$AA@ 0000000180037bf8     LIBCMT:winapinls.obj
 0002:00004c08       ??_C@_1M@GFMCHPE@?$AAh?$AAe?$AA?9?$AAI?$AAL?$AA?$AA@ 0000000180037c08     LIBCMT:winapinls.obj
 0002:00004c18       ??_C@_1M@MHLPGNKM@?$AAh?$AAu?$AA?9?$AAH?$AAU?$AA?$AA@ 0000000180037c18     LIBCMT:winapinls.obj
 0002:00004c28       ??_C@_1M@LPDDNNPN@?$AAi?$AAs?$AA?9?$AAI?$AAS?$AA?$AA@ 0000000180037c28     LIBCMT:winapinls.obj
 0002:00004c38       ??_C@_1M@MADIPODN@?$AAi?$AAt?$AA?9?$AAI?$AAT?$AA?$AA@ 0000000180037c38     LIBCMT:winapinls.obj
 0002:00004c48       ??_C@_1M@HPNHIDJI@?$AAj?$AAa?$AA?9?$AAJ?$AAP?$AA?$AA@ 0000000180037c48     LIBCMT:winapinls.obj
 0002:00004c58       ??_C@_1M@JLOOOEGK@?$AAk?$AAo?$AA?9?$AAK?$AAR?$AA?$AA@ 0000000180037c58     LIBCMT:winapinls.obj
 0002:00004c68       ??_C@_1M@IHBJJGG@?$AAn?$AAl?$AA?9?$AAN?$AAL?$AA?$AA@ 0000000180037c68     LIBCMT:winapinls.obj
 0002:00004c78       ??_C@_1M@EANAGDL@?$AAn?$AAb?$AA?9?$AAN?$AAO?$AA?$AA@ 0000000180037c78     LIBCMT:winapinls.obj
 0002:00004c88       ??_C@_1M@NEIEMEGP@?$AAp?$AAl?$AA?9?$AAP?$AAL?$AA?$AA@ 0000000180037c88     LIBCMT:winapinls.obj
 0002:00004c98       ??_C@_1M@BOCFIGEP@?$AAp?$AAt?$AA?9?$AAB?$AAR?$AA?$AA@ 0000000180037c98     LIBCMT:winapinls.obj
 0002:00004ca8       ??_C@_1M@IMPFOPBG@?$AAr?$AAo?$AA?9?$AAR?$AAO?$AA?$AA@ 0000000180037ca8     LIBCMT:winapinls.obj
 0002:00004cb8       ??_C@_1M@IDNNEJMM@?$AAr?$AAu?$AA?9?$AAR?$AAU?$AA?$AA@ 0000000180037cb8     LIBCMT:winapinls.obj
 0002:00004cc8       ??_C@_1M@LILEEOGM@?$AAh?$AAr?$AA?9?$AAH?$AAR?$AA?$AA@ 0000000180037cc8     LIBCMT:winapinls.obj
 0002:00004cd8       ??_C@_1M@FKIFEHPB@?$AAs?$AAk?$AA?9?$AAS?$AAK?$AA?$AA@ 0000000180037cd8     LIBCMT:winapinls.obj
 0002:00004ce8       ??_C@_1M@LJMAMNPJ@?$AAs?$AAq?$AA?9?$AAA?$AAL?$AA?$AA@ 0000000180037ce8     LIBCMT:winapinls.obj
 0002:00004cf8       ??_C@_1M@GIAKDKJK@?$AAs?$AAv?$AA?9?$AAS?$AAE?$AA?$AA@ 0000000180037cf8     LIBCMT:winapinls.obj
 0002:00004d08       ??_C@_1M@MKJKIKCL@?$AAt?$AAh?$AA?9?$AAT?$AAH?$AA?$AA@ 0000000180037d08     LIBCMT:winapinls.obj
 0002:00004d18       ??_C@_1M@MFLCCMPB@?$AAt?$AAr?$AA?9?$AAT?$AAR?$AA?$AA@ 0000000180037d18     LIBCMT:winapinls.obj
 0002:00004d28       ??_C@_1M@OIJHDKJN@?$AAu?$AAr?$AA?9?$AAP?$AAK?$AA?$AA@ 0000000180037d28     LIBCMT:winapinls.obj
 0002:00004d38       ??_C@_1M@LHIPCIEK@?$AAi?$AAd?$AA?9?$AAI?$AAD?$AA?$AA@ 0000000180037d38     LIBCMT:winapinls.obj
 0002:00004d48       ??_C@_1M@MFMOBGI@?$AAu?$AAk?$AA?9?$AAU?$AAA?$AA?$AA@ 0000000180037d48     LIBCMT:winapinls.obj
 0002:00004d58       ??_C@_1M@OBGLJIPL@?$AAb?$AAe?$AA?9?$AAB?$AAY?$AA?$AA@ 0000000180037d58     LIBCMT:winapinls.obj
 0002:00004d68       ??_C@_1M@BCFAJEAD@?$AAs?$AAl?$AA?9?$AAS?$AAI?$AA?$AA@ 0000000180037d68     LIBCMT:winapinls.obj
 0002:00004d78       ??_C@_1M@FKFFEDDN@?$AAe?$AAt?$AA?9?$AAE?$AAE?$AA?$AA@ 0000000180037d78     LIBCMT:winapinls.obj
 0002:00004d88       ??_C@_1M@KGKKAACI@?$AAl?$AAv?$AA?9?$AAL?$AAV?$AA?$AA@ 0000000180037d88     LIBCMT:winapinls.obj
 0002:00004d98       ??_C@_1M@IFGBIJO@?$AAl?$AAt?$AA?9?$AAL?$AAT?$AA?$AA@ 0000000180037d98     LIBCMT:winapinls.obj
 0002:00004da8       ??_C@_1M@FGEAHEDM@?$AAf?$AAa?$AA?9?$AAI?$AAR?$AA?$AA@ 0000000180037da8     LIBCMT:winapinls.obj
 0002:00004db8       ??_C@_1M@KBMAIBFN@?$AAv?$AAi?$AA?9?$AAV?$AAN?$AA?$AA@ 0000000180037db8     LIBCMT:winapinls.obj
 0002:00004dc8       ??_C@_1M@GPCBKDJK@?$AAh?$AAy?$AA?9?$AAA?$AAM?$AA?$AA@ 0000000180037dc8     LIBCMT:winapinls.obj
 0002:00004dd8       ??_C@_1BG@BECMDDJB@?$AAa?$AAz?$AA?9?$AAA?$AAZ?$AA?9?$AAL?$AAa?$AAt?$AAn?$AA?$AA@ 0000000180037dd8     LIBCMT:winapinls.obj
 0002:00004df0       ??_C@_1M@MAOFCAEA@?$AAe?$AAu?$AA?9?$AAE?$AAS?$AA?$AA@ 0000000180037df0     LIBCMT:winapinls.obj
 0002:00004e00       ??_C@_1M@IGHABKPI@?$AAm?$AAk?$AA?9?$AAM?$AAK?$AA?$AA@ 0000000180037e00     LIBCMT:winapinls.obj
 0002:00004e10       ??_C@_1M@IAIGNEJG@?$AAt?$AAn?$AA?9?$AAZ?$AAA?$AA?$AA@ 0000000180037e10     LIBCMT:winapinls.obj
 0002:00004e20       ??_C@_1M@IIJCOJFA@?$AAx?$AAh?$AA?9?$AAZ?$AAA?$AA?$AA@ 0000000180037e20     LIBCMT:winapinls.obj
 0002:00004e30       ??_C@_1M@LGPJHNJH@?$AAz?$AAu?$AA?9?$AAZ?$AAA?$AA?$AA@ 0000000180037e30     LIBCMT:winapinls.obj
 0002:00004e40       ??_C@_1M@HOKAOIO@?$AAa?$AAf?$AA?9?$AAZ?$AAA?$AA?$AA@ 0000000180037e40     LIBCMT:winapinls.obj
 0002:00004e50       ??_C@_1M@DPCLHLIE@?$AAk?$AAa?$AA?9?$AAG?$AAE?$AA?$AA@ 0000000180037e50     LIBCMT:winapinls.obj
 0002:00004e60       ??_C@_1M@BLKMHJBI@?$AAf?$AAo?$AA?9?$AAF?$AAO?$AA?$AA@ 0000000180037e60     LIBCMT:winapinls.obj
 0002:00004e70       ??_C@_1M@LGGJAPPB@?$AAh?$AAi?$AA?9?$AAI?$AAN?$AA?$AA@ 0000000180037e70     LIBCMT:winapinls.obj
 0002:00004e80       ??_C@_1M@FIKPIHFE@?$AAm?$AAt?$AA?9?$AAM?$AAT?$AA?$AA@ 0000000180037e80     LIBCMT:winapinls.obj
 0002:00004e90       ??_C@_1M@HEGGPBFA@?$AAs?$AAe?$AA?9?$AAN?$AAO?$AA?$AA@ 0000000180037e90     LIBCMT:winapinls.obj
 0002:00004ea0       ??_C@_1M@EIBJEEPA@?$AAm?$AAs?$AA?9?$AAM?$AAY?$AA?$AA@ 0000000180037ea0     LIBCMT:winapinls.obj
 0002:00004eb0       ??_C@_1M@FHLBGMPP@?$AAk?$AAk?$AA?9?$AAK?$AAZ?$AA?$AA@ 0000000180037eb0     LIBCMT:winapinls.obj
 0002:00004ec0       ??_C@_1M@NGJJLCGI@?$AAk?$AAy?$AA?9?$AAK?$AAG?$AA?$AA@ 0000000180037ec0     LIBCMT:winapinls.obj
 0002:00004ed0       ??_C@_1M@GIENNBFC@?$AAs?$AAw?$AA?9?$AAK?$AAE?$AA?$AA@ 0000000180037ed0     LIBCMT:winapinls.obj
 0002:00004ee0       ??_C@_1BG@NDGMJIMJ@?$AAu?$AAz?$AA?9?$AAU?$AAZ?$AA?9?$AAL?$AAa?$AAt?$AAn?$AA?$AA@ 0000000180037ee0     LIBCMT:winapinls.obj
 0002:00004ef8       ??_C@_1M@IDCCIHBC@?$AAt?$AAt?$AA?9?$AAR?$AAU?$AA?$AA@ 0000000180037ef8     LIBCMT:winapinls.obj
 0002:00004f08       ??_C@_1M@LOICPMOJ@?$AAb?$AAn?$AA?9?$AAI?$AAN?$AA?$AA@ 0000000180037f08     LIBCMT:winapinls.obj
 0002:00004f18       ??_C@_1M@KPKKNEAH@?$AAp?$AAa?$AA?9?$AAI?$AAN?$AA?$AA@ 0000000180037f18     LIBCMT:winapinls.obj
 0002:00004f28       ??_C@_1M@PJGPPBOG@?$AAg?$AAu?$AA?9?$AAI?$AAN?$AA?$AA@ 0000000180037f28     LIBCMT:winapinls.obj
 0002:00004f38       ??_C@_1M@KMKMOPHI@?$AAt?$AAa?$AA?9?$AAI?$AAN?$AA?$AA@ 0000000180037f38     LIBCMT:winapinls.obj
 0002:00004f48       ??_C@_1M@KFEHEPAC@?$AAt?$AAe?$AA?9?$AAI?$AAN?$AA?$AA@ 0000000180037f48     LIBCMT:winapinls.obj
 0002:00004f58       ??_C@_1M@CDCLMGHI@?$AAk?$AAn?$AA?9?$AAI?$AAN?$AA?$AA@ 0000000180037f58     LIBCMT:winapinls.obj
 0002:00004f68       ??_C@_1M@MIODLDKF@?$AAm?$AAl?$AA?9?$AAI?$AAN?$AA?$AA@ 0000000180037f68     LIBCMT:winapinls.obj
 0002:00004f78       ??_C@_1M@PBIEACPO@?$AAm?$AAr?$AA?9?$AAI?$AAN?$AA?$AA@ 0000000180037f78     LIBCMT:winapinls.obj
 0002:00004f88       ??_C@_1M@NIDEAGPH@?$AAs?$AAa?$AA?9?$AAI?$AAN?$AA?$AA@ 0000000180037f88     LIBCMT:winapinls.obj
 0002:00004f98       ??_C@_1M@FHIHCBIO@?$AAm?$AAn?$AA?9?$AAM?$AAN?$AA?$AA@ 0000000180037f98     LIBCMT:winapinls.obj
 0002:00004fa8       ??_C@_1M@JAIJPENP@?$AAc?$AAy?$AA?9?$AAG?$AAB?$AA?$AA@ 0000000180037fa8     LIBCMT:winapinls.obj
 0002:00004fb8       ??_C@_1M@PHGFBEPN@?$AAg?$AAl?$AA?9?$AAE?$AAS?$AA?$AA@ 0000000180037fb8     LIBCMT:winapinls.obj
 0002:00004fc8       ??_C@_1O@KPIPDNCP@?$AAk?$AAo?$AAk?$AA?9?$AAI?$AAN?$AA?$AA@ 0000000180037fc8     LIBCMT:winapinls.obj
 0002:00004fd8       ??_C@_1O@KNHJLDJA@?$AAs?$AAy?$AAr?$AA?9?$AAS?$AAY?$AA?$AA@ 0000000180037fd8     LIBCMT:winapinls.obj
 0002:00004fe8       ??_C@_1O@MKEKBLAH@?$AAd?$AAi?$AAv?$AA?9?$AAM?$AAV?$AA?$AA@ 0000000180037fe8     LIBCMT:winapinls.obj
 0002:00004ff8       ??_C@_1O@OHDCKDDF@?$AAq?$AAu?$AAz?$AA?9?$AAB?$AAO?$AA?$AA@ 0000000180037ff8     LIBCMT:winapinls.obj
 0002:00005008       ??_C@_1M@LEPJNLFD@?$AAn?$AAs?$AA?9?$AAZ?$AAA?$AA?$AA@ 0000000180038008     LIBCMT:winapinls.obj
 0002:00005018       ??_C@_1M@OMLEIIJB@?$AAm?$AAi?$AA?9?$AAN?$AAZ?$AA?$AA@ 0000000180038018     LIBCMT:winapinls.obj
 0002:00005028       ??_C@_1M@PMPEAILG@?$AAa?$AAr?$AA?9?$AAI?$AAQ?$AA?$AA@ 0000000180038028     LIBCMT:winapinls.obj
 0002:00005038       ??_C@_1M@BIBDDEMK@?$AAz?$AAh?$AA?9?$AAC?$AAN?$AA?$AA@ 0000000180038038     LIBCMT:winapinls.obj
 0002:00005048       ??_C@_1M@CNKPNOEE@?$AAd?$AAe?$AA?9?$AAC?$AAH?$AA?$AA@ 0000000180038048     LIBCMT:winapinls.obj
 0002:00005058       ??_C@_1M@LKMGMLKO@?$AAe?$AAn?$AA?9?$AAG?$AAB?$AA?$AA@ 0000000180038058     LIBCMT:winapinls.obj
 0002:00005068       ??_C@_1M@PGKJFFGL@?$AAe?$AAs?$AA?9?$AAM?$AAX?$AA?$AA@ 0000000180038068     LIBCMT:winapinls.obj
 0002:00005078       ??_C@_1M@DNNANBDC@?$AAf?$AAr?$AA?9?$AAB?$AAE?$AA?$AA@ 0000000180038078     LIBCMT:winapinls.obj
 0002:00005088       ??_C@_1M@HLGMDFHM@?$AAi?$AAt?$AA?9?$AAC?$AAH?$AA?$AA@ 0000000180038088     LIBCMT:winapinls.obj
 0002:00005098       ??_C@_1M@CLLBGJH@?$AAn?$AAl?$AA?9?$AAB?$AAE?$AA?$AA@ 0000000180038098     LIBCMT:winapinls.obj
 0002:000050a8       ??_C@_1M@BODBOGLF@?$AAn?$AAn?$AA?9?$AAN?$AAO?$AA?$AA@ 00000001800380a8     LIBCMT:winapinls.obj
 0002:000050b8       ??_C@_1M@HFFAHKAD@?$AAp?$AAt?$AA?9?$AAP?$AAT?$AA?$AA@ 00000001800380b8     LIBCMT:winapinls.obj
 0002:000050c8       ??_C@_1BG@LNOAKHIE@?$AAs?$AAr?$AA?9?$AAS?$AAP?$AA?9?$AAL?$AAa?$AAt?$AAn?$AA?$AA@ 00000001800380c8     LIBCMT:winapinls.obj
 0002:000050e0       ??_C@_1M@HBMHBGAK@?$AAs?$AAv?$AA?9?$AAF?$AAI?$AA?$AA@ 00000001800380e0     LIBCMT:winapinls.obj
 0002:000050f0       ??_C@_1BG@DGCJGJBE@?$AAa?$AAz?$AA?9?$AAA?$AAZ?$AA?9?$AAC?$AAy?$AAr?$AAl?$AA?$AA@ 00000001800380f0     LIBCMT:winapinls.obj
 0002:00005108       ??_C@_1M@KEJDAAHB@?$AAs?$AAe?$AA?9?$AAS?$AAE?$AA?$AA@ 0000000180038108     LIBCMT:winapinls.obj
 0002:00005118       ??_C@_1M@HEIBJJAD@?$AAm?$AAs?$AA?9?$AAB?$AAN?$AA?$AA@ 0000000180038118     LIBCMT:winapinls.obj
 0002:00005128       ??_C@_1BG@PBGJMCEM@?$AAu?$AAz?$AA?9?$AAU?$AAZ?$AA?9?$AAC?$AAy?$AAr?$AAl?$AA?$AA@ 0000000180038128     LIBCMT:winapinls.obj
 0002:00005140       ??_C@_1O@LAOBCMDF@?$AAq?$AAu?$AAz?$AA?9?$AAE?$AAC?$AA?$AA@ 0000000180038140     LIBCMT:winapinls.obj
 0002:00005150       ??_C@_1M@POEEMAIO@?$AAa?$AAr?$AA?9?$AAE?$AAG?$AA?$AA@ 0000000180038150     LIBCMT:winapinls.obj
 0002:00005160       ??_C@_1M@EFAKDEDL@?$AAz?$AAh?$AA?9?$AAH?$AAK?$AA?$AA@ 0000000180038160     LIBCMT:winapinls.obj
 0002:00005170       ??_C@_1M@HKKIJHGI@?$AAd?$AAe?$AA?9?$AAA?$AAT?$AA?$AA@ 0000000180038170     LIBCMT:winapinls.obj
 0002:00005180       ??_C@_1M@KBFBEHJF@?$AAe?$AAn?$AA?9?$AAA?$AAU?$AA?$AA@ 0000000180038180     LIBCMT:winapinls.obj
 0002:00005190       ??_C@_1M@MNPLFAAH@?$AAe?$AAs?$AA?9?$AAE?$AAS?$AA?$AA@ 0000000180038190     LIBCMT:winapinls.obj
 0002:000051a0       ??_C@_1M@HJOOJFMA@?$AAf?$AAr?$AA?9?$AAC?$AAA?$AA?$AA@ 00000001800381a0     LIBCMT:winapinls.obj
 0002:000051b0       ??_C@_1BG@JPOFPNAB@?$AAs?$AAr?$AA?9?$AAS?$AAP?$AA?9?$AAC?$AAy?$AAr?$AAl?$AA?$AA@ 00000001800381b0     LIBCMT:winapinls.obj
 0002:000051c8       ??_C@_1M@LNFOCMOB@?$AAs?$AAe?$AA?9?$AAF?$AAI?$AA?$AA@ 00000001800381c8     LIBCMT:winapinls.obj
 0002:000051d8       ??_C@_1O@MGJBOAMB@?$AAq?$AAu?$AAz?$AA?9?$AAP?$AAE?$AA?$AA@ 00000001800381d8     LIBCMT:winapinls.obj
 0002:000051e8       ??_C@_1M@GJINLBOK@?$AAa?$AAr?$AA?9?$AAL?$AAY?$AA?$AA@ 00000001800381e8     LIBCMT:winapinls.obj
 0002:000051f8       ??_C@_1M@GGMNHJNL@?$AAz?$AAh?$AA?9?$AAS?$AAG?$AA?$AA@ 00000001800381f8     LIBCMT:winapinls.obj
 0002:00005208       ??_C@_1M@HOIKODND@?$AAd?$AAe?$AA?9?$AAL?$AAU?$AA?$AA@ 0000000180038208     LIBCMT:winapinls.obj
 0002:00005218       ??_C@_1M@DDOCCGFG@?$AAe?$AAn?$AA?9?$AAC?$AAA?$AA?$AA@ 0000000180038218     LIBCMT:winapinls.obj
 0002:00005228       ??_C@_1M@BNOEMJLF@?$AAe?$AAs?$AA?9?$AAG?$AAT?$AA?$AA@ 0000000180038228     LIBCMT:winapinls.obj
 0002:00005238       ??_C@_1M@EOGNKEK@?$AAf?$AAr?$AA?9?$AAC?$AAH?$AA?$AA@ 0000000180038238     LIBCMT:winapinls.obj
 0002:00005248       ??_C@_1M@FLIDJFHL@?$AAh?$AAr?$AA?9?$AAB?$AAA?$AA?$AA@ 0000000180038248     LIBCMT:winapinls.obj
 0002:00005258       ??_C@_1O@FMCELNAJ@?$AAs?$AAm?$AAj?$AA?9?$AAN?$AAO?$AA?$AA@ 0000000180038258     LIBCMT:winapinls.obj
 0002:00005268       ??_C@_1M@JHGLJMGJ@?$AAa?$AAr?$AA?9?$AAD?$AAZ?$AA?$AA@ 0000000180038268     LIBCMT:winapinls.obj
 0002:00005278       ??_C@_1M@JKKFDCNP@?$AAz?$AAh?$AA?9?$AAM?$AAO?$AA?$AA@ 0000000180038278     LIBCMT:winapinls.obj
 0002:00005288       ??_C@_1M@GEEFALPE@?$AAd?$AAe?$AA?9?$AAL?$AAI?$AA?$AA@ 0000000180038288     LIBCMT:winapinls.obj
 0002:00005298       ??_C@_1M@IGEOFBG@?$AAe?$AAn?$AA?9?$AAN?$AAZ?$AA?$AA@ 0000000180038298     LIBCMT:winapinls.obj
 0002:000052a8       ??_C@_1M@KDBONEHP@?$AAe?$AAs?$AA?9?$AAC?$AAR?$AA?$AA@ 00000001800382a8     LIBCMT:winapinls.obj
 0002:000052b8       ??_C@_1M@FHMDOHNN@?$AAf?$AAr?$AA?9?$AAL?$AAU?$AA?$AA@ 00000001800382b8     LIBCMT:winapinls.obj
 0002:000052c8       ??_C@_1BG@NFKKMAFG@?$AAb?$AAs?$AA?9?$AAB?$AAA?$AA?9?$AAL?$AAa?$AAt?$AAn?$AA?$AA@ 00000001800382c8     LIBCMT:winapinls.obj
 0002:000052e0       ??_C@_1O@IMNBEMCI@?$AAs?$AAm?$AAj?$AA?9?$AAS?$AAE?$AA?$AA@ 00000001800382e0     LIBCMT:winapinls.obj
 0002:000052f0       ??_C@_1M@DHHMBNDP@?$AAa?$AAr?$AA?9?$AAM?$AAA?$AA?$AA@ 00000001800382f0     LIBCMT:winapinls.obj
 0002:00005300       ??_C@_1M@BNBLJCGH@?$AAe?$AAn?$AA?9?$AAI?$AAE?$AA?$AA@ 0000000180038300     LIBCMT:winapinls.obj
 0002:00005310       ??_C@_1M@GEPAFMDL@?$AAe?$AAs?$AA?9?$AAP?$AAA?$AA?$AA@ 0000000180038310     LIBCMT:winapinls.obj
 0002:00005320       ??_C@_1M@OJONDMDL@?$AAf?$AAr?$AA?9?$AAM?$AAC?$AA?$AA@ 0000000180038320     LIBCMT:winapinls.obj
 0002:00005330       ??_C@_1BG@OBCNFJB@?$AAs?$AAr?$AA?9?$AAB?$AAA?$AA?9?$AAL?$AAa?$AAt?$AAn?$AA?$AA@ 0000000180038330     LIBCMT:winapinls.obj
 0002:00005348       ??_C@_1O@KEMEEGPO@?$AAs?$AAm?$AAa?$AA?9?$AAN?$AAO?$AA?$AA@ 0000000180038348     LIBCMT:winapinls.obj
 0002:00005358       ??_C@_1M@ELMGFODK@?$AAa?$AAr?$AA?9?$AAT?$AAN?$AA?$AA@ 0000000180038358     LIBCMT:winapinls.obj
 0002:00005368       ??_C@_1M@BHDLHFAF@?$AAe?$AAn?$AA?9?$AAZ?$AAA?$AA?$AA@ 0000000180038368     LIBCMT:winapinls.obj
 0002:00005378       ??_C@_1M@BMGIGLIF@?$AAe?$AAs?$AA?9?$AAD?$AAO?$AA?$AA@ 0000000180038378     LIBCMT:winapinls.obj
 0002:00005388       ??_C@_1BG@CMBHIPBE@?$AAs?$AAr?$AA?9?$AAB?$AAA?$AA?9?$AAC?$AAy?$AAr?$AAl?$AA?$AA@ 0000000180038388     LIBCMT:winapinls.obj
 0002:000053a0       ??_C@_1O@HEDBLHNP@?$AAs?$AAm?$AAa?$AA?9?$AAS?$AAE?$AA?$AA@ 00000001800383a0     LIBCMT:winapinls.obj
 0002:000053b0       ??_C@_1M@DAGCADIM@?$AAa?$AAr?$AA?9?$AAO?$AAM?$AA?$AA@ 00000001800383b0     LIBCMT:winapinls.obj
 0002:000053c0       ??_C@_1M@FODLMICG@?$AAe?$AAn?$AA?9?$AAJ?$AAM?$AA?$AA@ 00000001800383c0     LIBCMT:winapinls.obj
 0002:000053d0       ??_C@_1M@DNMLCIHB@?$AAe?$AAs?$AA?9?$AAV?$AAE?$AA?$AA@ 00000001800383d0     LIBCMT:winapinls.obj
 0002:000053e0       ??_C@_1O@EOKHMKJK@?$AAs?$AAm?$AAs?$AA?9?$AAF?$AAI?$AA?$AA@ 00000001800383e0     LIBCMT:winapinls.obj
 0002:000053f0       ??_C@_1M@CAFJMKOF@?$AAa?$AAr?$AA?9?$AAY?$AAE?$AA?$AA@ 00000001800383f0     LIBCMT:winapinls.obj
 0002:00005400       ??_C@_1M@CBFHIJLI@?$AAe?$AAn?$AA?9?$AAC?$AAB?$AA?$AA@ 0000000180038400     LIBCMT:winapinls.obj
 0002:00005410       ??_C@_1M@BGNFLDN@?$AAe?$AAs?$AA?9?$AAC?$AAO?$AA?$AA@ 0000000180038410     LIBCMT:winapinls.obj
 0002:00005420       ??_C@_1O@JMPHMAMC@?$AAs?$AAm?$AAn?$AA?9?$AAF?$AAI?$AA?$AA@ 0000000180038420     LIBCMT:winapinls.obj
 0002:00005430       ??_C@_1M@JLANABKE@?$AAa?$AAr?$AA?9?$AAS?$AAY?$AA?$AA@ 0000000180038430     LIBCMT:winapinls.obj
 0002:00005440       ??_C@_1M@HPKGCFGN@?$AAe?$AAn?$AA?9?$AAB?$AAZ?$AA?$AA@ 0000000180038440     LIBCMT:winapinls.obj
 0002:00005450       ??_C@_1M@OLJCMLGM@?$AAe?$AAs?$AA?9?$AAP?$AAE?$AA?$AA@ 0000000180038450     LIBCMT:winapinls.obj
 0002:00005460       ??_C@_1M@MKKGFKLE@?$AAa?$AAr?$AA?9?$AAJ?$AAO?$AA?$AA@ 0000000180038460     LIBCMT:winapinls.obj
 0002:00005470       ??_C@_1M@EKPGLDNI@?$AAe?$AAn?$AA?9?$AAT?$AAT?$AA?$AA@ 0000000180038470     LIBCMT:winapinls.obj
 0002:00005480       ??_C@_1M@OONGHFHE@?$AAe?$AAs?$AA?9?$AAA?$AAR?$AA?$AA@ 0000000180038480     LIBCMT:winapinls.obj
 0002:00005490       ??_C@_1M@OOJFGBHE@?$AAa?$AAr?$AA?9?$AAL?$AAB?$AA?$AA@ 0000000180038490     LIBCMT:winapinls.obj
 0002:000054a0       ??_C@_1M@GCEJHNEG@?$AAe?$AAn?$AA?9?$AAZ?$AAW?$AA?$AA@ 00000001800384a0     LIBCMT:winapinls.obj
 0002:000054b0       ??_C@_1M@JNOCAHJI@?$AAe?$AAs?$AA?9?$AAE?$AAC?$AA?$AA@ 00000001800384b0     LIBCMT:winapinls.obj
 0002:000054c0       ??_C@_1M@JEFHPGGB@?$AAa?$AAr?$AA?9?$AAK?$AAW?$AA?$AA@ 00000001800384c0     LIBCMT:winapinls.obj
 0002:000054d0       ??_C@_1M@MLKIBJOJ@?$AAe?$AAn?$AA?9?$AAP?$AAH?$AA?$AA@ 00000001800384d0     LIBCMT:winapinls.obj
 0002:000054e0       ??_C@_1M@BDNIPEND@?$AAe?$AAs?$AA?9?$AAC?$AAL?$AA?$AA@ 00000001800384e0     LIBCMT:winapinls.obj
 0002:000054f0       ??_C@_1M@MPNMEKBD@?$AAa?$AAr?$AA?9?$AAA?$AAE?$AA?$AA@ 00000001800384f0     LIBCMT:winapinls.obj
 0002:00005500       ??_C@_1M@KBJALCPI@?$AAe?$AAs?$AA?9?$AAU?$AAY?$AA?$AA@ 0000000180038500     LIBCMT:winapinls.obj
 0002:00005510       ??_C@_1M@LLCCOAGA@?$AAa?$AAr?$AA?9?$AAB?$AAH?$AA?$AA@ 0000000180038510     LIBCMT:winapinls.obj
 0002:00005520       ??_C@_1M@PBFNCDEL@?$AAe?$AAs?$AA?9?$AAP?$AAY?$AA?$AA@ 0000000180038520     LIBCMT:winapinls.obj
 0002:00005530       ??_C@_1M@EDGINPNP@?$AAa?$AAr?$AA?9?$AAQ?$AAA?$AA?$AA@ 0000000180038530     LIBCMT:winapinls.obj
 0002:00005540       ??_C@_1M@MKDBIIJI@?$AAe?$AAs?$AA?9?$AAB?$AAO?$AA?$AA@ 0000000180038540     LIBCMT:winapinls.obj
 0002:00005550       ??_C@_1M@CPKKEBLD@?$AAe?$AAs?$AA?9?$AAS?$AAV?$AA?$AA@ 0000000180038550     LIBCMT:winapinls.obj
 0002:00005560       ??_C@_1M@NDBGMMJL@?$AAe?$AAs?$AA?9?$AAH?$AAN?$AA?$AA@ 0000000180038560     LIBCMT:winapinls.obj
 0002:00005570       ??_C@_1M@JIJIBHDP@?$AAe?$AAs?$AA?9?$AAN?$AAI?$AA?$AA@ 0000000180038570     LIBCMT:winapinls.obj
 0002:00005580       ??_C@_1M@CGFMKEEK@?$AAe?$AAs?$AA?9?$AAP?$AAR?$AA?$AA@ 0000000180038580     LIBCMT:winapinls.obj
 0002:00005590       ??_C@_1O@ICJHKIIK@?$AAz?$AAh?$AA?9?$AAC?$AAH?$AAT?$AA?$AA@ 0000000180038590     LIBCMT:winapinls.obj
 0002:000055a0       ??_C@_15CLNEJCE@?$AAs?$AAr?$AA?$AA@ 00000001800385a0     LIBCMT:winapinls.obj
 0002:000055a8       ??_C@_1M@KAHEKEIG@?$AAa?$AAf?$AA?9?$AAz?$AAa?$AA?$AA@ 00000001800385a8     LIBCMT:winapinls.obj
 0002:000055b8       ??_C@_1M@GIECOABL@?$AAa?$AAr?$AA?9?$AAa?$AAe?$AA?$AA@ 00000001800385b8     LIBCMT:winapinls.obj
 0002:000055c8       ??_C@_1M@BMLMEKGI@?$AAa?$AAr?$AA?9?$AAb?$AAh?$AA?$AA@ 00000001800385c8     LIBCMT:winapinls.obj
 0002:000055d8       ??_C@_1M@DAPFDGGB@?$AAa?$AAr?$AA?9?$AAd?$AAz?$AA?$AA@ 00000001800385d8     LIBCMT:winapinls.obj
 0002:000055e8       ??_C@_1M@FJNKGKIG@?$AAa?$AAr?$AA?9?$AAe?$AAg?$AA?$AA@ 00000001800385e8     LIBCMT:winapinls.obj
 0002:000055f8       ??_C@_1M@FLGKKCLO@?$AAa?$AAr?$AA?9?$AAi?$AAq?$AA?$AA@ 00000001800385f8     LIBCMT:winapinls.obj
 0002:00005608       ??_C@_1M@GNDIPALM@?$AAa?$AAr?$AA?9?$AAj?$AAo?$AA?$AA@ 0000000180038608     LIBCMT:winapinls.obj
 0002:00005618       ??_C@_1M@DDMJFMGJ@?$AAa?$AAr?$AA?9?$AAk?$AAw?$AA?$AA@ 0000000180038618     LIBCMT:winapinls.obj
 0002:00005628       ??_C@_1M@EJALMLHM@?$AAa?$AAr?$AA?9?$AAl?$AAb?$AA?$AA@ 0000000180038628     LIBCMT:winapinls.obj
 0002:00005638       ??_C@_1M@MOBDBLOC@?$AAa?$AAr?$AA?9?$AAl?$AAy?$AA?$AA@ 0000000180038638     LIBCMT:winapinls.obj
 0002:00005648       ??_C@_1M@JAOCLHDH@?$AAa?$AAr?$AA?9?$AAm?$AAa?$AA?$AA@ 0000000180038648     LIBCMT:winapinls.obj
 0002:00005658       ??_C@_1M@JHPMKJIE@?$AAa?$AAr?$AA?9?$AAo?$AAm?$AA?$AA@ 0000000180038658     LIBCMT:winapinls.obj
 0002:00005668       ??_C@_1M@OEPGHFNH@?$AAa?$AAr?$AA?9?$AAq?$AAa?$AA?$AA@ 0000000180038668     LIBCMT:winapinls.obj
 0002:00005678       ??_C@_1M@KJDONENM@?$AAa?$AAr?$AA?9?$AAs?$AAa?$AA?$AA@ 0000000180038678     LIBCMT:winapinls.obj
 0002:00005688       ??_C@_1M@DMJDKLKM@?$AAa?$AAr?$AA?9?$AAs?$AAy?$AA?$AA@ 0000000180038688     LIBCMT:winapinls.obj
 0002:00005698       ??_C@_1M@OMFIPEDC@?$AAa?$AAr?$AA?9?$AAt?$AAn?$AA?$AA@ 0000000180038698     LIBCMT:winapinls.obj
 0002:000056a8       ??_C@_1M@IHMHGAON@?$AAa?$AAr?$AA?9?$AAy?$AAe?$AA?$AA@ 00000001800386a8     LIBCMT:winapinls.obj
 0002:000056b8       ??_C@_1BG@KDCPGJGB@?$AAa?$AAz?$AA?9?$AAa?$AAz?$AA?9?$AAc?$AAy?$AAr?$AAl?$AA?$AA@ 00000001800386b8     LIBCMT:winapinls.obj
 0002:000056d0       ??_C@_1BG@IBCKDDOE@?$AAa?$AAz?$AA?9?$AAa?$AAz?$AA?9?$AAl?$AAa?$AAt?$AAn?$AA?$AA@ 00000001800386d0     LIBCMT:winapinls.obj
 0002:000056e8       ??_C@_1M@EGPFDCPD@?$AAb?$AAe?$AA?9?$AAb?$AAy?$AA?$AA@ 00000001800386e8     LIBCMT:winapinls.obj
 0002:000056f8       ??_C@_1M@PCMGMCGC@?$AAb?$AAg?$AA?9?$AAb?$AAg?$AA?$AA@ 00000001800386f8     LIBCMT:winapinls.obj
 0002:00005708       ??_C@_1M@BJBMFGOB@?$AAb?$AAn?$AA?9?$AAi?$AAn?$AA?$AA@ 0000000180038708     LIBCMT:winapinls.obj
 0002:00005718       ??_C@_1BG@EAKMMACD@?$AAb?$AAs?$AA?9?$AAb?$AAa?$AA?9?$AAl?$AAa?$AAt?$AAn?$AA?$AA@ 0000000180038718     LIBCMT:winapinls.obj
 0002:00005730       ??_C@_1M@KGADAODK@?$AAc?$AAa?$AA?9?$AAe?$AAs?$AA?$AA@ 0000000180038730     LIBCMT:winapinls.obj
 0002:00005740       ??_C@_1M@COAJPDHI@?$AAc?$AAs?$AA?9?$AAc?$AAz?$AA?$AA@ 0000000180038740     LIBCMT:winapinls.obj
 0002:00005750       ??_C@_1M@DHBHFONH@?$AAc?$AAy?$AA?9?$AAg?$AAb?$AA?$AA@ 0000000180038750     LIBCMT:winapinls.obj
 0002:00005760       ??_C@_1M@IMGKELGA@?$AAd?$AAa?$AA?9?$AAd?$AAk?$AA?$AA@ 0000000180038760     LIBCMT:winapinls.obj
 0002:00005770       ??_C@_1M@NNDGDNGA@?$AAd?$AAe?$AA?9?$AAa?$AAt?$AA?$AA@ 0000000180038770     LIBCMT:winapinls.obj
 0002:00005780       ??_C@_1M@IKDBHEEM@?$AAd?$AAe?$AA?9?$AAc?$AAh?$AA?$AA@ 0000000180038780     LIBCMT:winapinls.obj
 0002:00005790       ??_C@_1M@GFFOJMCJ@?$AAd?$AAe?$AA?9?$AAd?$AAe?$AA?$AA@ 0000000180038790     LIBCMT:winapinls.obj
 0002:000057a0       ??_C@_1M@MDNLKBPM@?$AAd?$AAe?$AA?9?$AAl?$AAi?$AA?$AA@ 00000001800387a0     LIBCMT:winapinls.obj
 0002:000057b0       ??_C@_1M@NJBEEJNL@?$AAd?$AAe?$AA?9?$AAl?$AAu?$AA?$AA@ 00000001800387b0     LIBCMT:winapinls.obj
 0002:000057c0       ??_C@_1O@GNNELBAP@?$AAd?$AAi?$AAv?$AA?9?$AAm?$AAv?$AA?$AA@ 00000001800387c0     LIBCMT:winapinls.obj
 0002:000057d0       ??_C@_1M@EJLEOGAE@?$AAe?$AAl?$AA?9?$AAg?$AAr?$AA?$AA@ 00000001800387d0     LIBCMT:winapinls.obj
 0002:000057e0       ??_C@_1M@GMPONJN@?$AAe?$AAn?$AA?9?$AAa?$AAu?$AA?$AA@ 00000001800387e0     LIBCMT:winapinls.obj
 0002:000057f0       ??_C@_1M@NIDIIPGF@?$AAe?$AAn?$AA?9?$AAb?$AAz?$AA?$AA@ 00000001800387f0     LIBCMT:winapinls.obj
 0002:00005800       ??_C@_1M@JEHMIMFO@?$AAe?$AAn?$AA?9?$AAc?$AAa?$AA?$AA@ 0000000180038800     LIBCMT:winapinls.obj
 0002:00005810       ??_C@_1M@IGMJCDLA@?$AAe?$AAn?$AA?9?$AAc?$AAb?$AA?$AA@ 0000000180038810     LIBCMT:winapinls.obj
 0002:00005820       ??_C@_1M@BNFIGBKG@?$AAe?$AAn?$AA?9?$AAg?$AAb?$AA?$AA@ 0000000180038820     LIBCMT:winapinls.obj
 0002:00005830       ??_C@_1M@LKIFDIGP@?$AAe?$AAn?$AA?9?$AAi?$AAe?$AA?$AA@ 0000000180038830     LIBCMT:winapinls.obj
 0002:00005840       ??_C@_1M@PJKFGCCO@?$AAe?$AAn?$AA?9?$AAj?$AAm?$AA?$AA@ 0000000180038840     LIBCMT:winapinls.obj
 0002:00005850       ??_C@_1M@KPPKEPBO@?$AAe?$AAn?$AA?9?$AAn?$AAz?$AA?$AA@ 0000000180038850     LIBCMT:winapinls.obj
 0002:00005860       ??_C@_1M@GMDGLDOB@?$AAe?$AAn?$AA?9?$AAp?$AAh?$AA?$AA@ 0000000180038860     LIBCMT:winapinls.obj
 0002:00005870       ??_C@_1M@ONGIBJNA@?$AAe?$AAn?$AA?9?$AAt?$AAt?$AA?$AA@ 0000000180038870     LIBCMT:winapinls.obj
 0002:00005880       ??_C@_1M@LLODPCMM@?$AAe?$AAn?$AA?9?$AAu?$AAs?$AA?$AA@ 0000000180038880     LIBCMT:winapinls.obj
 0002:00005890       ??_C@_1M@LAKFNPAN@?$AAe?$AAn?$AA?9?$AAz?$AAa?$AA?$AA@ 0000000180038890     LIBCMT:winapinls.obj
 0002:000058a0       ??_C@_1M@MFNHNHEO@?$AAe?$AAn?$AA?9?$AAz?$AAw?$AA?$AA@ 00000001800388a0     LIBCMT:winapinls.obj
 0002:000058b0       ??_C@_1M@EJEINPHM@?$AAe?$AAs?$AA?9?$AAa?$AAr?$AA?$AA@ 00000001800388b0     LIBCMT:winapinls.obj
 0002:000058c0       ??_C@_1M@GNKPCCJA@?$AAe?$AAs?$AA?9?$AAb?$AAo?$AA?$AA@ 00000001800388c0     LIBCMT:winapinls.obj
 0002:000058d0       ??_C@_1M@LEEGFONL@?$AAe?$AAs?$AA?9?$AAc?$AAl?$AA?$AA@ 00000001800388d0     LIBCMT:winapinls.obj
 0002:000058e0       ??_C@_1M@KGPDPBDF@?$AAe?$AAs?$AA?9?$AAc?$AAo?$AA?$AA@ 00000001800388e0     LIBCMT:winapinls.obj
 0002:000058f0       ??_C@_1M@EIAHOHH@?$AAe?$AAs?$AA?9?$AAc?$AAr?$AA?$AA@ 00000001800388f0     LIBCMT:winapinls.obj
 0002:00005900       ??_C@_1M@LLPGMBIN@?$AAe?$AAs?$AA?9?$AAd?$AAo?$AA?$AA@ 0000000180038900     LIBCMT:winapinls.obj
 0002:00005910       ??_C@_1M@DKHMKNJA@?$AAe?$AAs?$AA?9?$AAe?$AAc?$AA?$AA@ 0000000180038910     LIBCMT:winapinls.obj
 0002:00005920       ??_C@_1M@GKGFPKAP@?$AAe?$AAs?$AA?9?$AAe?$AAs?$AA?$AA@ 0000000180038920     LIBCMT:winapinls.obj
 0002:00005930       ??_C@_1M@LKHKGDLN@?$AAe?$AAs?$AA?9?$AAg?$AAt?$AA?$AA@ 0000000180038930     LIBCMT:winapinls.obj
 0002:00005940       ??_C@_1M@HEIIGGJD@?$AAe?$AAs?$AA?9?$AAh?$AAn?$AA?$AA@ 0000000180038940     LIBCMT:winapinls.obj
 0002:00005950       ??_C@_1M@FBDHPPGD@?$AAe?$AAs?$AA?9?$AAm?$AAx?$AA?$AA@ 0000000180038950     LIBCMT:winapinls.obj
 0002:00005960       ??_C@_1M@DPAGLNDH@?$AAe?$AAs?$AA?9?$AAn?$AAi?$AA?$AA@ 0000000180038960     LIBCMT:winapinls.obj
 0002:00005970       ??_C@_1M@MDGOPGDD@?$AAe?$AAs?$AA?9?$AAp?$AAa?$AA?$AA@ 0000000180038970     LIBCMT:winapinls.obj
 0002:00005980       ??_C@_1M@EMAMGBGE@?$AAe?$AAs?$AA?9?$AAp?$AAe?$AA?$AA@ 0000000180038980     LIBCMT:winapinls.obj
 0002:00005990       ??_C@_1M@IBMCAOEC@?$AAe?$AAs?$AA?9?$AAp?$AAr?$AA?$AA@ 0000000180038990     LIBCMT:winapinls.obj
 0002:000059a0       ??_C@_1M@FGMDIJED@?$AAe?$AAs?$AA?9?$AAp?$AAy?$AA?$AA@ 00000001800389a0     LIBCMT:winapinls.obj
 0002:000059b0       ??_C@_1M@IIDEOLLL@?$AAe?$AAs?$AA?9?$AAs?$AAv?$AA?$AA@ 00000001800389b0     LIBCMT:winapinls.obj
 0002:000059c0       ??_C@_1M@GAOBIPA@?$AAe?$AAs?$AA?9?$AAu?$AAy?$AA?$AA@ 00000001800389c0     LIBCMT:winapinls.obj
 0002:000059d0       ??_C@_1M@JKFFICHJ@?$AAe?$AAs?$AA?9?$AAv?$AAe?$AA?$AA@ 00000001800389d0     LIBCMT:winapinls.obj
 0002:000059e0       ??_C@_1M@PNMLOJDF@?$AAe?$AAt?$AA?9?$AAe?$AAe?$AA?$AA@ 00000001800389e0     LIBCMT:winapinls.obj
 0002:000059f0       ??_C@_1M@GHHLIKEI@?$AAe?$AAu?$AA?9?$AAe?$AAs?$AA?$AA@ 00000001800389f0     LIBCMT:winapinls.obj
 0002:00005a00       ??_C@_1M@PBNONODE@?$AAf?$AAa?$AA?9?$AAi?$AAr?$AA?$AA@ 0000000180038a00     LIBCMT:winapinls.obj
 0002:00005a10       ??_C@_1M@JEEHPMIL@?$AAf?$AAi?$AA?9?$AAf?$AAi?$AA?$AA@ 0000000180038a10     LIBCMT:winapinls.obj
 0002:00005a20       ??_C@_1M@LMDCNDBA@?$AAf?$AAo?$AA?9?$AAf?$AAo?$AA?$AA@ 0000000180038a20     LIBCMT:winapinls.obj
 0002:00005a30       ??_C@_1M@JKEOHLDK@?$AAf?$AAr?$AA?9?$AAb?$AAe?$AA?$AA@ 0000000180038a30     LIBCMT:winapinls.obj
 0002:00005a40       ??_C@_1M@NOHADPMI@?$AAf?$AAr?$AA?9?$AAc?$AAa?$AA?$AA@ 0000000180038a40     LIBCMT:winapinls.obj
 0002:00005a50       ??_C@_1M@KDHIHAEC@?$AAf?$AAr?$AA?9?$AAc?$AAh?$AA?$AA@ 0000000180038a50     LIBCMT:winapinls.obj
 0002:00005a60       ??_C@_1M@MMBBFGAK@?$AAf?$AAr?$AA?9?$AAf?$AAr?$AA?$AA@ 0000000180038a60     LIBCMT:winapinls.obj
 0002:00005a70       ??_C@_1M@PAFNENNF@?$AAf?$AAr?$AA?9?$AAl?$AAu?$AA?$AA@ 0000000180038a70     LIBCMT:winapinls.obj
 0002:00005a80       ??_C@_1M@EOHDJGDD@?$AAf?$AAr?$AA?9?$AAm?$AAc?$AA?$AA@ 0000000180038a80     LIBCMT:winapinls.obj
 0002:00005a90       ??_C@_1M@FAPLLOPF@?$AAg?$AAl?$AA?9?$AAe?$AAs?$AA?$AA@ 0000000180038a90     LIBCMT:winapinls.obj
 0002:00005aa0       ??_C@_1M@FOPBFLOO@?$AAg?$AAu?$AA?9?$AAi?$AAn?$AA?$AA@ 0000000180038aa0     LIBCMT:winapinls.obj
 0002:00005ab0       ??_C@_1M@KBMCINPM@?$AAh?$AAe?$AA?9?$AAi?$AAl?$AA?$AA@ 0000000180038ab0     LIBCMT:winapinls.obj
 0002:00005ac0       ??_C@_1M@BBPHKFPJ@?$AAh?$AAi?$AA?9?$AAi?$AAn?$AA?$AA@ 0000000180038ac0     LIBCMT:winapinls.obj
 0002:00005ad0       ??_C@_1M@PMBNDPHD@?$AAh?$AAr?$AA?9?$AAb?$AAa?$AA?$AA@ 0000000180038ad0     LIBCMT:winapinls.obj
 0002:00005ae0       ??_C@_1M@BPCKOEGE@?$AAh?$AAr?$AA?9?$AAh?$AAr?$AA?$AA@ 0000000180038ae0     LIBCMT:winapinls.obj
 0002:00005af0       ??_C@_1M@GACBMHKE@?$AAh?$AAu?$AA?9?$AAh?$AAu?$AA?$AA@ 0000000180038af0     LIBCMT:winapinls.obj
 0002:00005b00       ??_C@_1M@MILPAJJC@?$AAh?$AAy?$AA?9?$AAa?$AAm?$AA?$AA@ 0000000180038b00     LIBCMT:winapinls.obj
 0002:00005b10       ??_C@_1M@BABBICEC@?$AAi?$AAd?$AA?9?$AAi?$AAd?$AA?$AA@ 0000000180038b10     LIBCMT:winapinls.obj
 0002:00005b20       ??_C@_1M@BIKNHHPF@?$AAi?$AAs?$AA?9?$AAi?$AAs?$AA?$AA@ 0000000180038b20     LIBCMT:winapinls.obj
 0002:00005b30       ??_C@_1M@NMPCJPHE@?$AAi?$AAt?$AA?9?$AAc?$AAh?$AA?$AA@ 0000000180038b30     LIBCMT:winapinls.obj
 0002:00005b40       ??_C@_1M@GHKGFEDF@?$AAi?$AAt?$AA?9?$AAi?$AAt?$AA?$AA@ 0000000180038b40     LIBCMT:winapinls.obj
 0002:00005b50       ??_C@_1M@NIEJCJJA@?$AAj?$AAa?$AA?9?$AAj?$AAp?$AA?$AA@ 0000000180038b50     LIBCMT:winapinls.obj
 0002:00005b60       ??_C@_1M@JILFNBIM@?$AAk?$AAa?$AA?9?$AAg?$AAe?$AA?$AA@ 0000000180038b60     LIBCMT:winapinls.obj
 0002:00005b70       ??_C@_1M@PACPMGPH@?$AAk?$AAk?$AA?9?$AAk?$AAz?$AA?$AA@ 0000000180038b70     LIBCMT:winapinls.obj
 0002:00005b80       ??_C@_1M@IELFGMHA@?$AAk?$AAn?$AA?9?$AAi?$AAn?$AA?$AA@ 0000000180038b80     LIBCMT:winapinls.obj
 0002:00005b90       ??_C@_1O@IBBJHCH@?$AAk?$AAo?$AAk?$AA?9?$AAi?$AAn?$AA?$AA@ 0000000180038b90     LIBCMT:winapinls.obj
 0002:00005ba0       ??_C@_1M@DMHAEOGC@?$AAk?$AAo?$AA?9?$AAk?$AAr?$AA?$AA@ 0000000180038ba0     LIBCMT:winapinls.obj
 0002:00005bb0       ??_C@_1M@HBAHBIGA@?$AAk?$AAy?$AA?9?$AAk?$AAg?$AA?$AA@ 0000000180038bb0     LIBCMT:winapinls.obj
 0002:00005bc0       ??_C@_1M@KPMILCJG@?$AAl?$AAt?$AA?9?$AAl?$AAt?$AA?$AA@ 0000000180038bc0     LIBCMT:winapinls.obj
 0002:00005bd0       ??_C@_1M@BDEKKCA@?$AAl?$AAv?$AA?9?$AAl?$AAv?$AA?$AA@ 0000000180038bd0     LIBCMT:winapinls.obj
 0002:00005be0       ??_C@_1M@ELCKCCJJ@?$AAm?$AAi?$AA?9?$AAn?$AAz?$AA?$AA@ 0000000180038be0     LIBCMT:winapinls.obj
 0002:00005bf0       ??_C@_1M@CBOOLAPA@?$AAm?$AAk?$AA?9?$AAm?$AAk?$AA?$AA@ 0000000180038bf0     LIBCMT:winapinls.obj
 0002:00005c00       ??_C@_1M@GPHNBJKN@?$AAm?$AAl?$AA?9?$AAi?$AAn?$AA?$AA@ 0000000180038c00     LIBCMT:winapinls.obj
 0002:00005c10       ??_C@_1M@PABJILIG@?$AAm?$AAn?$AA?9?$AAm?$AAn?$AA?$AA@ 0000000180038c10     LIBCMT:winapinls.obj
 0002:00005c20       ??_C@_1M@FGBKKIPG@?$AAm?$AAr?$AA?9?$AAi?$AAn?$AA?$AA@ 0000000180038c20     LIBCMT:winapinls.obj
 0002:00005c30       ??_C@_1M@NDBPDDAL@?$AAm?$AAs?$AA?9?$AAb?$AAn?$AA?$AA@ 0000000180038c30     LIBCMT:winapinls.obj
 0002:00005c40       ??_C@_1M@OPIHOOPI@?$AAm?$AAs?$AA?9?$AAm?$AAy?$AA?$AA@ 0000000180038c40     LIBCMT:winapinls.obj
 0002:00005c50       ??_C@_1M@PPDBCNFM@?$AAm?$AAt?$AA?9?$AAm?$AAt?$AA?$AA@ 0000000180038c50     LIBCMT:winapinls.obj
 0002:00005c60       ??_C@_1M@KDJDKMDD@?$AAn?$AAb?$AA?9?$AAn?$AAo?$AA?$AA@ 0000000180038c60     LIBCMT:winapinls.obj
 0002:00005c70       ??_C@_1M@KFCFLMJP@?$AAn?$AAl?$AA?9?$AAb?$AAe?$AA?$AA@ 0000000180038c70     LIBCMT:winapinls.obj
 0002:00005c80       ??_C@_1M@KPOPDDGO@?$AAn?$AAl?$AA?9?$AAn?$AAl?$AA?$AA@ 0000000180038c80     LIBCMT:winapinls.obj
 0002:00005c90       ??_C@_1M@LJKPEMLN@?$AAn?$AAn?$AA?9?$AAn?$AAo?$AA?$AA@ 0000000180038c90     LIBCMT:winapinls.obj
 0002:00005ca0       ??_C@_1M@BDGHHBFL@?$AAn?$AAs?$AA?9?$AAz?$AAa?$AA?$AA@ 0000000180038ca0     LIBCMT:winapinls.obj
 0002:00005cb0       ??_C@_1M@IDEHOAP@?$AAp?$AAa?$AA?9?$AAi?$AAn?$AA?$AA@ 0000000180038cb0     LIBCMT:winapinls.obj
 0002:00005cc0       ??_C@_1M@HDBKGOGH@?$AAp?$AAl?$AA?9?$AAp?$AAl?$AA?$AA@ 0000000180038cc0     LIBCMT:winapinls.obj
 0002:00005cd0       ??_C@_1M@LJLLCMEH@?$AAp?$AAt?$AA?9?$AAb?$AAr?$AA?$AA@ 0000000180038cd0     LIBCMT:winapinls.obj
 0002:00005ce0       ??_C@_1M@NCMONAAL@?$AAp?$AAt?$AA?9?$AAp?$AAt?$AA?$AA@ 0000000180038ce0     LIBCMT:winapinls.obj
 0002:00005cf0       ??_C@_1O@EAKMAJDN@?$AAq?$AAu?$AAz?$AA?9?$AAb?$AAo?$AA?$AA@ 0000000180038cf0     LIBCMT:winapinls.obj
 0002:00005d00       ??_C@_1O@BHHPIGDN@?$AAq?$AAu?$AAz?$AA?9?$AAe?$AAc?$AA?$AA@ 0000000180038d00     LIBCMT:winapinls.obj
 0002:00005d10       ??_C@_1O@GBAPEKMJ@?$AAq?$AAu?$AAz?$AA?9?$AAp?$AAe?$AA?$AA@ 0000000180038d10     LIBCMT:winapinls.obj
 0002:00005d20       ??_C@_1M@CLGLEFBO@?$AAr?$AAo?$AA?9?$AAr?$AAo?$AA?$AA@ 0000000180038d20     LIBCMT:winapinls.obj
 0002:00005d30       ??_C@_1M@CEEDODME@?$AAr?$AAu?$AA?9?$AAr?$AAu?$AA?$AA@ 0000000180038d30     LIBCMT:winapinls.obj
 0002:00005d40       ??_C@_1M@HPKKKMPP@?$AAs?$AAa?$AA?9?$AAi?$AAn?$AA?$AA@ 0000000180038d40     LIBCMT:winapinls.obj
 0002:00005d50       ??_C@_1M@BKMAIGOJ@?$AAs?$AAe?$AA?9?$AAf?$AAi?$AA?$AA@ 0000000180038d50     LIBCMT:winapinls.obj
 0002:00005d60       ??_C@_1M@NDPIFLFI@?$AAs?$AAe?$AA?9?$AAn?$AAo?$AA?$AA@ 0000000180038d60     LIBCMT:winapinls.obj
 0002:00005d70       ??_C@_1M@DANKKHJ@?$AAs?$AAe?$AA?9?$AAs?$AAe?$AA?$AA@ 0000000180038d70     LIBCMT:winapinls.obj
 0002:00005d80       ??_C@_1M@PNBLONPJ@?$AAs?$AAk?$AA?9?$AAs?$AAk?$AA?$AA@ 0000000180038d80     LIBCMT:winapinls.obj
 0002:00005d90       ??_C@_1M@LFMODOAL@?$AAs?$AAl?$AA?9?$AAs?$AAi?$AA?$AA@ 0000000180038d90     LIBCMT:winapinls.obj
 0002:00005da0       ??_C@_1O@DFKOMPG@?$AAs?$AAm?$AAa?$AA?9?$AAn?$AAo?$AA?$AA@ 0000000180038da0     LIBCMT:winapinls.obj
 0002:00005db0       ??_C@_1O@NDKPBNNH@?$AAs?$AAm?$AAa?$AA?9?$AAs?$AAe?$AA?$AA@ 0000000180038db0     LIBCMT:winapinls.obj
 0002:00005dc0       ??_C@_1O@PLLKBHAB@?$AAs?$AAm?$AAj?$AA?9?$AAn?$AAo?$AA?$AA@ 0000000180038dc0     LIBCMT:winapinls.obj
 0002:00005dd0       ??_C@_1O@CLEPOGCA@?$AAs?$AAm?$AAj?$AA?9?$AAs?$AAe?$AA?$AA@ 0000000180038dd0     LIBCMT:winapinls.obj
 0002:00005de0       ??_C@_1O@DLGJGKMK@?$AAs?$AAm?$AAn?$AA?9?$AAf?$AAi?$AA?$AA@ 0000000180038de0     LIBCMT:winapinls.obj
 0002:00005df0       ??_C@_1O@OJDJGAJC@?$AAs?$AAm?$AAs?$AA?9?$AAf?$AAi?$AA?$AA@ 0000000180038df0     LIBCMT:winapinls.obj
 0002:00005e00       ??_C@_1M@BOFOGHPB@?$AAs?$AAq?$AA?9?$AAa?$AAl?$AA?$AA@ 0000000180038e00     LIBCMT:winapinls.obj
 0002:00005e10       ??_C@_1BG@LJBBIPGB@?$AAs?$AAr?$AA?9?$AAb?$AAa?$AA?9?$AAc?$AAy?$AAr?$AAl?$AA?$AA@ 0000000180038e10     LIBCMT:winapinls.obj
 0002:00005e28       ??_C@_1BG@JLBENFOE@?$AAs?$AAr?$AA?9?$AAb?$AAa?$AA?9?$AAl?$AAa?$AAt?$AAn?$AA?$AA@ 0000000180038e28     LIBCMT:winapinls.obj
 0002:00005e40       ??_C@_1BG@KODPNHE@?$AAs?$AAr?$AA?9?$AAs?$AAp?$AA?9?$AAc?$AAy?$AAr?$AAl?$AA?$AA@ 0000000180038e40     LIBCMT:winapinls.obj
 0002:00005e58       ??_C@_1BG@CIOGKHPB@?$AAs?$AAr?$AA?9?$AAs?$AAp?$AA?9?$AAl?$AAa?$AAt?$AAn?$AA?$AA@ 0000000180038e58     LIBCMT:winapinls.obj
 0002:00005e70       ??_C@_1M@NGFJLMAC@?$AAs?$AAv?$AA?9?$AAf?$AAi?$AA?$AA@ 0000000180038e70     LIBCMT:winapinls.obj
 0002:00005e80       ??_C@_1M@MPJEJAJC@?$AAs?$AAv?$AA?9?$AAs?$AAe?$AA?$AA@ 0000000180038e80     LIBCMT:winapinls.obj
 0002:00005e90       ??_C@_1M@MPNDHLFK@?$AAs?$AAw?$AA?9?$AAk?$AAe?$AA?$AA@ 0000000180038e90     LIBCMT:winapinls.obj
 0002:00005ea0       ??_C@_1O@KOHBJJI@?$AAs?$AAy?$AAr?$AA?9?$AAs?$AAy?$AA?$AA@ 0000000180038ea0     LIBCMT:winapinls.obj
 0002:00005eb0       ??_C@_1M@LDCEFHA@?$AAt?$AAa?$AA?9?$AAi?$AAn?$AA?$AA@ 0000000180038eb0     LIBCMT:winapinls.obj
 0002:00005ec0       ??_C@_1M@CNJOFAK@?$AAt?$AAe?$AA?9?$AAi?$AAn?$AA?$AA@ 0000000180038ec0     LIBCMT:winapinls.obj
 0002:00005ed0       ??_C@_1M@GNAECACD@?$AAt?$AAh?$AA?9?$AAt?$AAh?$AA?$AA@ 0000000180038ed0     LIBCMT:winapinls.obj
 0002:00005ee0       ??_C@_1M@CHBIHOJO@?$AAt?$AAn?$AA?9?$AAz?$AAa?$AA?$AA@ 0000000180038ee0     LIBCMT:winapinls.obj
 0002:00005ef0       ??_C@_1M@GCCMIGPJ@?$AAt?$AAr?$AA?9?$AAt?$AAr?$AA?$AA@ 0000000180038ef0     LIBCMT:winapinls.obj
 0002:00005f00       ??_C@_1M@CELMCNBK@?$AAt?$AAt?$AA?9?$AAr?$AAu?$AA?$AA@ 0000000180038f00     LIBCMT:winapinls.obj
 0002:00005f10       ??_C@_1M@KLMCELGA@?$AAu?$AAk?$AA?9?$AAu?$AAa?$AA?$AA@ 0000000180038f10     LIBCMT:winapinls.obj
 0002:00005f20       ??_C@_1M@EPAJJAJF@?$AAu?$AAr?$AA?9?$AAp?$AAk?$AA?$AA@ 0000000180038f20     LIBCMT:winapinls.obj
 0002:00005f30       ??_C@_1BG@GEGPMCDJ@?$AAu?$AAz?$AA?9?$AAu?$AAz?$AA?9?$AAc?$AAy?$AAr?$AAl?$AA?$AA@ 0000000180038f30     LIBCMT:winapinls.obj
 0002:00005f48       ??_C@_1BG@EGGKJILM@?$AAu?$AAz?$AA?9?$AAu?$AAz?$AA?9?$AAl?$AAa?$AAt?$AAn?$AA?$AA@ 0000000180038f48     LIBCMT:winapinls.obj
 0002:00005f60       ??_C@_1M@GFOCLFF@?$AAv?$AAi?$AA?9?$AAv?$AAn?$AA?$AA@ 0000000180038f60     LIBCMT:winapinls.obj
 0002:00005f70       ??_C@_1M@CPAMEDFI@?$AAx?$AAh?$AA?9?$AAz?$AAa?$AA?$AA@ 0000000180038f70     LIBCMT:winapinls.obj
 0002:00005f80       ??_C@_1O@EBKIFIGN@?$AAz?$AAh?$AA?9?$AAc?$AAh?$AAs?$AA?$AA@ 0000000180038f80     LIBCMT:winapinls.obj
 0002:00005f90       ??_C@_1O@NMHPGANE@?$AAz?$AAh?$AA?9?$AAc?$AAh?$AAt?$AA?$AA@ 0000000180038f90     LIBCMT:winapinls.obj
 0002:00005fa0       ??_C@_1M@LPINJOMC@?$AAz?$AAh?$AA?9?$AAc?$AAn?$AA?$AA@ 0000000180038fa0     LIBCMT:winapinls.obj
 0002:00005fb0       ??_C@_1M@OCJEJODD@?$AAz?$AAh?$AA?9?$AAh?$AAk?$AA?$AA@ 0000000180038fb0     LIBCMT:winapinls.obj
 0002:00005fc0       ??_C@_1M@DNDLJINH@?$AAz?$AAh?$AA?9?$AAm?$AAo?$AA?$AA@ 0000000180038fc0     LIBCMT:winapinls.obj
 0002:00005fd0       ??_C@_1M@MBFDNDND@?$AAz?$AAh?$AA?9?$AAs?$AAg?$AA?$AA@ 0000000180038fd0     LIBCMT:winapinls.obj
 0002:00005fe0       ??_C@_1M@IMEPLEPE@?$AAz?$AAh?$AA?9?$AAt?$AAw?$AA?$AA@ 0000000180038fe0     LIBCMT:winapinls.obj
 0002:00005ff0       ??_C@_1M@BBGHNHJP@?$AAz?$AAu?$AA?9?$AAz?$AAa?$AA?$AA@ 0000000180038ff0     LIBCMT:winapinls.obj
 0002:00005ffc       ??_C@_04EIAKFFMI@sqrt?$AA@ 0000000180038ffc     LIBCMT:sqrt.obj
 0002:00006018       ??_C@_1BI@BGOHAHKC@?$AAm?$AAs?$AAc?$AAo?$AAr?$AAe?$AAe?$AA?4?$AAd?$AAl?$AAl?$AA?$AA@ 0000000180039018     LIBCMT:crt0dat.obj
 0002:00006030       ??_C@_0P@MIGLKIOC@CorExitProcess?$AA@ 0000000180039030     LIBCMT:crt0dat.obj
 0002:00006040       ??_C@_1BG@GOEBHBDC@?$AAU?$AAS?$AAE?$AAR?$AA3?$AA2?$AA?4?$AAD?$AAL?$AAL?$AA?$AA@ 0000000180039040     LIBCMT:crtmboxw.obj
 0002:00006058       ??_C@_0M@DLDCCGNP@MessageBoxW?$AA@ 0000000180039058     LIBCMT:crtmboxw.obj
 0002:00006068       ??_C@_0BA@HNOPNCHB@GetActiveWindow?$AA@ 0000000180039068     LIBCMT:crtmboxw.obj
 0002:00006078       ??_C@_0BD@HHGDFDBJ@GetLastActivePopup?$AA@ 0000000180039078     LIBCMT:crtmboxw.obj
 0002:00006090       ??_C@_0BK@DEKFELLI@GetUserObjectInformationW?$AA@ 0000000180039090     LIBCMT:crtmboxw.obj
 0002:000060b0       ??_C@_0BI@DFKBFLJE@GetProcessWindowStation?$AA@ 00000001800390b0     LIBCMT:crtmboxw.obj
 0002:00006240       ??_C@_1FK@PGACCAFB@?$AAR?$AA6?$AA0?$AA0?$AA2?$AA?$AN?$AA?6?$AA?9?$AA?5?$AAf?$AAl?$AAo?$AAa?$AAt?$AAi?$AAn?$AAg?$AA?5?$AAp?$AAo?$AAi?$AAn?$AAt?$AA?5?$AAs?$AAu?$AAp?$AAp?$AAo?$AAr?$AAt?$AA?5@ 0000000180039240     LIBCMT:crt0msg.obj
 0002:000062a0       ??_C@_1FE@LLNEDJMD@?$AAR?$AA6?$AA0?$AA0?$AA8?$AA?$AN?$AA?6?$AA?9?$AA?5?$AAn?$AAo?$AAt?$AA?5?$AAe?$AAn?$AAo?$AAu?$AAg?$AAh?$AA?5?$AAs?$AAp?$AAa?$AAc?$AAe?$AA?5?$AAf?$AAo?$AAr?$AA?5?$AAa?$AAr@ 00000001800392a0     LIBCMT:crt0msg.obj
 0002:00006300       ??_C@_1FI@HONFMGBI@?$AAR?$AA6?$AA0?$AA0?$AA9?$AA?$AN?$AA?6?$AA?9?$AA?5?$AAn?$AAo?$AAt?$AA?5?$AAe?$AAn?$AAo?$AAu?$AAg?$AAh?$AA?5?$AAs?$AAp?$AAa?$AAc?$AAe?$AA?5?$AAf?$AAo?$AAr?$AA?5?$AAe?$AAn@ 0000000180039300     LIBCMT:crt0msg.obj
 0002:00006360       ??_C@_1EG@BEHAGFJD@?$AAR?$AA6?$AA0?$AA1?$AA0?$AA?$AN?$AA?6?$AA?9?$AA?5?$AAa?$AAb?$AAo?$AAr?$AAt?$AA?$CI?$AA?$CJ?$AA?5?$AAh?$AAa?$AAs?$AA?5?$AAb?$AAe?$AAe?$AAn?$AA?5?$AAc?$AAa?$AAl?$AAl?$AAe?$AAd@ 0000000180039360     LIBCMT:crt0msg.obj
 0002:000063b0       ??_C@_1FI@LOGNIKDM@?$AAR?$AA6?$AA0?$AA1?$AA6?$AA?$AN?$AA?6?$AA?9?$AA?5?$AAn?$AAo?$AAt?$AA?5?$AAe?$AAn?$AAo?$AAu?$AAg?$AAh?$AA?5?$AAs?$AAp?$AAa?$AAc?$AAe?$AA?5?$AAf?$AAo?$AAr?$AA?5?$AAt?$AAh@ 00000001800393b0     LIBCMT:crt0msg.obj
 0002:00006410       ??_C@_1FK@BEOGODMC@?$AAR?$AA6?$AA0?$AA1?$AA7?$AA?$AN?$AA?6?$AA?9?$AA?5?$AAu?$AAn?$AAe?$AAx?$AAp?$AAe?$AAc?$AAt?$AAe?$AAd?$AA?5?$AAm?$AAu?$AAl?$AAt?$AAi?$AAt?$AAh?$AAr?$AAe?$AAa?$AAd?$AA?5@ 0000000180039410     LIBCMT:crt0msg.obj
 0002:00006470       ??_C@_1EC@JIBHAOPH@?$AAR?$AA6?$AA0?$AA1?$AA8?$AA?$AN?$AA?6?$AA?9?$AA?5?$AAu?$AAn?$AAe?$AAx?$AAp?$AAe?$AAc?$AAt?$AAe?$AAd?$AA?5?$AAh?$AAe?$AAa?$AAp?$AA?5?$AAe?$AAr?$AAr?$AAo?$AAr?$AA?$AN?$AA?6@ 0000000180039470     LIBCMT:crt0msg.obj
 0002:000064c0       ??_C@_1FC@ECHBIFBC@?$AAR?$AA6?$AA0?$AA1?$AA9?$AA?$AN?$AA?6?$AA?9?$AA?5?$AAu?$AAn?$AAa?$AAb?$AAl?$AAe?$AA?5?$AAt?$AAo?$AA?5?$AAo?$AAp?$AAe?$AAn?$AA?5?$AAc?$AAo?$AAn?$AAs?$AAo?$AAl?$AAe?$AA?5@ 00000001800394c0     LIBCMT:crt0msg.obj
 0002:00006520       ??_C@_1GK@FHCKBEFA@?$AAR?$AA6?$AA0?$AA2?$AA4?$AA?$AN?$AA?6?$AA?9?$AA?5?$AAn?$AAo?$AAt?$AA?5?$AAe?$AAn?$AAo?$AAu?$AAg?$AAh?$AA?5?$AAs?$AAp?$AAa?$AAc?$AAe?$AA?5?$AAf?$AAo?$AAr?$AA?5?$AA_?$AAo@ 0000000180039520     LIBCMT:crt0msg.obj
 0002:00006590       ??_C@_1EM@MAADIHMB@?$AAR?$AA6?$AA0?$AA2?$AA5?$AA?$AN?$AA?6?$AA?9?$AA?5?$AAp?$AAu?$AAr?$AAe?$AA?5?$AAv?$AAi?$AAr?$AAt?$AAu?$AAa?$AAl?$AA?5?$AAf?$AAu?$AAn?$AAc?$AAt?$AAi?$AAo?$AAn?$AA?5?$AAc@ 0000000180039590     LIBCMT:crt0msg.obj
 0002:000065e0       ??_C@_1GK@MCAAGJMO@?$AAR?$AA6?$AA0?$AA2?$AA6?$AA?$AN?$AA?6?$AA?9?$AA?5?$AAn?$AAo?$AAt?$AA?5?$AAe?$AAn?$AAo?$AAu?$AAg?$AAh?$AA?5?$AAs?$AAp?$AAa?$AAc?$AAe?$AA?5?$AAf?$AAo?$AAr?$AA?5?$AAs?$AAt@ 00000001800395e0     LIBCMT:crt0msg.obj
 0002:00006650       ??_C@_1GK@MFGOKLAG@?$AAR?$AA6?$AA0?$AA2?$AA7?$AA?$AN?$AA?6?$AA?9?$AA?5?$AAn?$AAo?$AAt?$AA?5?$AAe?$AAn?$AAo?$AAu?$AAg?$AAh?$AA?5?$AAs?$AAp?$AAa?$AAc?$AAe?$AA?5?$AAf?$AAo?$AAr?$AA?5?$AAl?$AAo@ 0000000180039650     LIBCMT:crt0msg.obj
 0002:000066c0       ??_C@_1EK@HHFLMAOL@?$AAR?$AA6?$AA0?$AA2?$AA8?$AA?$AN?$AA?6?$AA?9?$AA?5?$AAu?$AAn?$AAa?$AAb?$AAl?$AAe?$AA?5?$AAt?$AAo?$AA?5?$AAi?$AAn?$AAi?$AAt?$AAi?$AAa?$AAl?$AAi?$AAz?$AAe?$AA?5?$AAh?$AAe@ 00000001800396c0     LIBCMT:crt0msg.obj
 0002:00006710       ??_C@_1DO@BMFCDCD@?$AAR?$AA6?$AA0?$AA3?$AA0?$AA?$AN?$AA?6?$AA?9?$AA?5?$AAC?$AAR?$AAT?$AA?5?$AAn?$AAo?$AAt?$AA?5?$AAi?$AAn?$AAi?$AAt?$AAi?$AAa?$AAl?$AAi?$AAz?$AAe?$AAd?$AA?$AN?$AA?6?$AA?$AA@ 0000000180039710     LIBCMT:crt0msg.obj
 0002:00006750       ??_C@_1MG@ENCOOIDF@?$AAR?$AA6?$AA0?$AA3?$AA1?$AA?$AN?$AA?6?$AA?9?$AA?5?$AAA?$AAt?$AAt?$AAe?$AAm?$AAp?$AAt?$AA?5?$AAt?$AAo?$AA?5?$AAi?$AAn?$AAi?$AAt?$AAi?$AAa?$AAl?$AAi?$AAz?$AAe?$AA?5?$AAt@ 0000000180039750     LIBCMT:crt0msg.obj
 0002:00006820       ??_C@_1GG@GOPILAJP@?$AAR?$AA6?$AA0?$AA3?$AA2?$AA?$AN?$AA?6?$AA?9?$AA?5?$AAn?$AAo?$AAt?$AA?5?$AAe?$AAn?$AAo?$AAu?$AAg?$AAh?$AA?5?$AAs?$AAp?$AAa?$AAc?$AAe?$AA?5?$AAf?$AAo?$AAr?$AA?5?$AAl?$AAo@ 0000000180039820     LIBCMT:crt0msg.obj
 0002:00006890       ??_C@_1BOO@KGEDBGAJ@?$AAR?$AA6?$AA0?$AA3?$AA3?$AA?$AN?$AA?6?$AA?9?$AA?5?$AAA?$AAt?$AAt?$AAe?$AAm?$AAp?$AAt?$AA?5?$AAt?$AAo?$AA?5?$AAu?$AAs?$AAe?$AA?5?$AAM?$AAS?$AAI?$AAL?$AA?5?$AAc?$AAo?$AAd@ 0000000180039890     LIBCMT:crt0msg.obj
 0002:00006a80       ??_C@_1GG@MKFPEKFO@?$AAR?$AA6?$AA0?$AA3?$AA4?$AA?$AN?$AA?6?$AA?9?$AA?5?$AAi?$AAn?$AAc?$AAo?$AAn?$AAs?$AAi?$AAs?$AAt?$AAe?$AAn?$AAt?$AA?5?$AAo?$AAn?$AAe?$AAx?$AAi?$AAt?$AA?5?$AAb?$AAe?$AAg@ 0000000180039a80     LIBCMT:crt0msg.obj
 0002:00006ae8       ??_C@_1BO@BFCDCGC@?$AAD?$AAO?$AAM?$AAA?$AAI?$AAN?$AA?5?$AAe?$AAr?$AAr?$AAo?$AAr?$AA?$AN?$AA?6?$AA?$AA@ 0000000180039ae8     LIBCMT:crt0msg.obj
 0002:00006b08       ??_C@_1BK@KMOMNAAI@?$AAS?$AAI?$AAN?$AAG?$AA?5?$AAe?$AAr?$AAr?$AAo?$AAr?$AA?$AN?$AA?6?$AA?$AA@ 0000000180039b08     LIBCMT:crt0msg.obj
 0002:00006b28       ??_C@_1BM@JBBEPPHI@?$AAT?$AAL?$AAO?$AAS?$AAS?$AA?5?$AAe?$AAr?$AAr?$AAo?$AAr?$AA?$AN?$AA?6?$AA?$AA@ 0000000180039b28     LIBCMT:crt0msg.obj
 0002:00006b44       ??_C@_15JNBOKNOG@?$AA?$AN?$AA?6?$AA?$AA@ 0000000180039b44     LIBCMT:crt0msg.obj
 0002:00006b50       ??_C@_1BO@BKOMIGKJ@?$AAr?$AAu?$AAn?$AAt?$AAi?$AAm?$AAe?$AA?5?$AAe?$AAr?$AAr?$AAo?$AAr?$AA?5?$AA?$AA@ 0000000180039b50     LIBCMT:crt0msg.obj
 0002:00006b70       ??_C@_1DE@JNGNBFGO@?$AAR?$AAu?$AAn?$AAt?$AAi?$AAm?$AAe?$AA?5?$AAE?$AAr?$AAr?$AAo?$AAr?$AA?$CB?$AA?6?$AA?6?$AAP?$AAr?$AAo?$AAg?$AAr?$AAa?$AAm?$AA?3?$AA?5?$AA?$AA@ 0000000180039b70     LIBCMT:crt0msg.obj
 0002:00006ba4       ??_C@_06OJHGLDPL@?$CInull?$CJ?$AA@ 0000000180039ba4     LIBCMT:output.obj
 0002:00006bb0       ??_C@_1O@CEDCILHN@?$AA?$CI?$AAn?$AAu?$AAl?$AAl?$AA?$CJ?$AA?$AA@ 0000000180039bb0     LIBCMT:output.obj
 0002:00006bc0       __lookuptable              0000000180039bc0     LIBCMT:output.obj
 0002:00006c1c       ??_C@_03KOEHGMDN@Sun?$AA@  0000000180039c1c     LIBCMT:nlsdata.obj
 0002:00006c20       ??_C@_03PDAGKDH@Mon?$AA@   0000000180039c20     LIBCMT:nlsdata.obj
 0002:00006c24       ??_C@_03NAGEINEP@Tue?$AA@  0000000180039c24     LIBCMT:nlsdata.obj
 0002:00006c28       ??_C@_03MHOMLAJA@Wed?$AA@  0000000180039c28     LIBCMT:nlsdata.obj
 0002:00006c2c       ??_C@_03IOFIKPDN@Thu?$AA@  0000000180039c2c     LIBCMT:nlsdata.obj
 0002:00006c30       ??_C@_03IDIOELNC@Fri?$AA@  0000000180039c30     LIBCMT:nlsdata.obj
 0002:00006c34       ??_C@_03FEFJNEK@Sat?$AA@   0000000180039c34     LIBCMT:nlsdata.obj
 0002:00006c38       ??_C@_06OOPIFAJ@Sunday?$AA@ 0000000180039c38     LIBCMT:nlsdata.obj
 0002:00006c40       ??_C@_06JLEDEDGH@Monday?$AA@ 0000000180039c40     LIBCMT:nlsdata.obj
 0002:00006c48       ??_C@_07BAAGCFCM@Tuesday?$AA@ 0000000180039c48     LIBCMT:nlsdata.obj
 0002:00006c50       ??_C@_09DLIGFAKA@Wednesday?$AA@ 0000000180039c50     LIBCMT:nlsdata.obj
 0002:00006c60       ??_C@_08HACCIKIA@Thursday?$AA@ 0000000180039c60     LIBCMT:nlsdata.obj
 0002:00006c6c       ??_C@_06JECMNKMI@Friday?$AA@ 0000000180039c6c     LIBCMT:nlsdata.obj
 0002:00006c78       ??_C@_08INBOOONO@Saturday?$AA@ 0000000180039c78     LIBCMT:nlsdata.obj
 0002:00006c84       ??_C@_03JIHJHPIE@Jan?$AA@  0000000180039c84     LIBCMT:nlsdata.obj
 0002:00006c88       ??_C@_03HJBDCHOM@Feb?$AA@  0000000180039c88     LIBCMT:nlsdata.obj
 0002:00006c8c       ??_C@_03ODNJBKGA@Mar?$AA@  0000000180039c8c     LIBCMT:nlsdata.obj
 0002:00006c90       ??_C@_03LEOLGMJP@Apr?$AA@  0000000180039c90     LIBCMT:nlsdata.obj
 0002:00006c94       ??_C@_03CNMDKL@May?$AA@    0000000180039c94     LIBCMT:nlsdata.obj
 0002:00006c98       ??_C@_03IDFGHECI@Jun?$AA@  0000000180039c98     LIBCMT:nlsdata.obj
 0002:00006c9c       ??_C@_03LBGABGKK@Jul?$AA@  0000000180039c9c     LIBCMT:nlsdata.obj
 0002:00006ca0       ??_C@_03IFJFEIGA@Aug?$AA@  0000000180039ca0     LIBCMT:nlsdata.obj
 0002:00006ca4       ??_C@_03GGCAPAJC@Sep?$AA@  0000000180039ca4     LIBCMT:nlsdata.obj
 0002:00006ca8       ??_C@_03BMAOKBAD@Oct?$AA@  0000000180039ca8     LIBCMT:nlsdata.obj
 0002:00006cac       ??_C@_03JPJOFNIA@Nov?$AA@  0000000180039cac     LIBCMT:nlsdata.obj
 0002:00006cb0       ??_C@_03MKABNOCG@Dec?$AA@  0000000180039cb0     LIBCMT:nlsdata.obj
 0002:00006cb8       ??_C@_07CGJPFGJA@January?$AA@ 0000000180039cb8     LIBCMT:nlsdata.obj
 0002:00006cc0       ??_C@_08GNJGEPFN@February?$AA@ 0000000180039cc0     LIBCMT:nlsdata.obj
 0002:00006ccc       ??_C@_05HPCKOFNC@March?$AA@ 0000000180039ccc     LIBCMT:nlsdata.obj
 0002:00006cd4       ??_C@_05DMJDNLEJ@April?$AA@ 0000000180039cd4     LIBCMT:nlsdata.obj
 0002:00006cdc       ??_C@_04CNLMGBGM@June?$AA@ 0000000180039cdc     LIBCMT:nlsdata.obj
 0002:00006ce4       ??_C@_04MIEPOIFP@July?$AA@ 0000000180039ce4     LIBCMT:nlsdata.obj
 0002:00006cec       ??_C@_06LBBHFDDG@August?$AA@ 0000000180039cec     LIBCMT:nlsdata.obj
 0002:00006cf8       ??_C@_09BHHEALKD@September?$AA@ 0000000180039cf8     LIBCMT:nlsdata.obj
 0002:00006d08       ??_C@_07JJNFCEND@October?$AA@ 0000000180039d08     LIBCMT:nlsdata.obj
 0002:00006d10       ??_C@_08HCHEGEOA@November?$AA@ 0000000180039d10     LIBCMT:nlsdata.obj
 0002:00006d20       ??_C@_08EDHMEBNP@December?$AA@ 0000000180039d20     LIBCMT:nlsdata.obj
 0002:00006d2c       ??_C@_02DEDBPAFC@AM?$AA@   0000000180039d2c     LIBCMT:nlsdata.obj
 0002:00006d30       ??_C@_02CJNFDJBF@PM?$AA@   0000000180039d30     LIBCMT:nlsdata.obj
 0002:00006d38       ??_C@_08BPBNCDIB@MM?1dd?1yy?$AA@ 0000000180039d38     LIBCMT:nlsdata.obj
 0002:00006d48       ??_C@_0BE@CKGJFCPC@dddd?0?5MMMM?5dd?0?5yyyy?$AA@ 0000000180039d48     LIBCMT:nlsdata.obj
 0002:00006d60       ??_C@_08JCCMCCIL@HH?3mm?3ss?$AA@ 0000000180039d60     LIBCMT:nlsdata.obj
 0002:00006d70       ??_C@_17MBGCMIPB@?$AAS?$AAu?$AAn?$AA?$AA@ 0000000180039d70     LIBCMT:nlsdata.obj
 0002:00006d78       ??_C@_17KBOMKBF@?$AAM?$AAo?$AAn?$AA?$AA@ 0000000180039d78     LIBCMT:nlsdata.obj
 0002:00006d80       ??_C@_17BMKGEGOJ@?$AAT?$AAu?$AAe?$AA?$AA@ 0000000180039d80     LIBCMT:nlsdata.obj
 0002:00006d88       ??_C@_17CJEDCEPE@?$AAW?$AAe?$AAd?$AA?$AA@ 0000000180039d88     LIBCMT:nlsdata.obj
 0002:00006d90       ??_C@_17PDPHAADD@?$AAT?$AAh?$AAu?$AA?$AA@ 0000000180039d90     LIBCMT:nlsdata.obj
 0002:00006d98       ??_C@_17HFOLPPLP@?$AAF?$AAr?$AAi?$AA?$AA@ 0000000180039d98     LIBCMT:nlsdata.obj
 0002:00006da0       ??_C@_17GGIBDPIH@?$AAS?$AAa?$AAt?$AA?$AA@ 0000000180039da0     LIBCMT:nlsdata.obj
 0002:00006da8       ??_C@_1O@IHNHDHPB@?$AAS?$AAu?$AAn?$AAd?$AAa?$AAy?$AA?$AA@ 0000000180039da8     LIBCMT:nlsdata.obj
 0002:00006db8       ??_C@_1O@MMNBFLIA@?$AAM?$AAo?$AAn?$AAd?$AAa?$AAy?$AA?$AA@ 0000000180039db8     LIBCMT:nlsdata.obj
 0002:00006dc8       ??_C@_1BA@ENFBFFEK@?$AAT?$AAu?$AAe?$AAs?$AAd?$AAa?$AAy?$AA?$AA@ 0000000180039dc8     LIBCMT:nlsdata.obj
 0002:00006dd8       ??_C@_1BE@EBOGMDOH@?$AAW?$AAe?$AAd?$AAn?$AAe?$AAs?$AAd?$AAa?$AAy?$AA?$AA@ 0000000180039dd8     LIBCMT:nlsdata.obj
 0002:00006df0       ??_C@_1BC@HHMNLIHE@?$AAT?$AAh?$AAu?$AAr?$AAs?$AAd?$AAa?$AAy?$AA?$AA@ 0000000180039df0     LIBCMT:nlsdata.obj
 0002:00006e08       ??_C@_1O@PDICJHAG@?$AAF?$AAr?$AAi?$AAd?$AAa?$AAy?$AA?$AA@ 0000000180039e08     LIBCMT:nlsdata.obj
 0002:00006e18       ??_C@_1BC@ENMNNPAJ@?$AAS?$AAa?$AAt?$AAu?$AAr?$AAd?$AAa?$AAy?$AA?$AA@ 0000000180039e18     LIBCMT:nlsdata.obj
 0002:00006e30       ??_C@_17DKNBKCHM@?$AAJ?$AAa?$AAn?$AA?$AA@ 0000000180039e30     LIBCMT:nlsdata.obj
 0002:00006e38       ??_C@_17LMDJEKJN@?$AAF?$AAe?$AAb?$AA?$AA@ 0000000180039e38     LIBCMT:nlsdata.obj
 0002:00006e40       ??_C@_17CKNLEDEC@?$AAM?$AAa?$AAr?$AA?$AA@ 0000000180039e40     LIBCMT:nlsdata.obj
 0002:00006e48       ??_C@_17LFPOIHDD@?$AAA?$AAp?$AAr?$AA?$AA@ 0000000180039e48     LIBCMT:nlsdata.obj
 0002:00006e50       ??_C@_17PNNKMEED@?$AAM?$AAa?$AAy?$AA?$AA@ 0000000180039e50     LIBCMT:nlsdata.obj
 0002:00006e58       ??_C@_17KCJGOCPB@?$AAJ?$AAu?$AAn?$AA?$AA@ 0000000180039e58     LIBCMT:nlsdata.obj
 0002:00006e60       ??_C@_17IJPCKHK@?$AAJ?$AAu?$AAl?$AA?$AA@ 0000000180039e60     LIBCMT:nlsdata.obj
 0002:00006e68       ??_C@_17ICPELBCN@?$AAA?$AAu?$AAg?$AA?$AA@ 0000000180039e68     LIBCMT:nlsdata.obj
 0002:00006e70       ??_C@_17HCHCOKMG@?$AAS?$AAe?$AAp?$AA?$AA@ 0000000180039e70     LIBCMT:nlsdata.obj
 0002:00006e78       ??_C@_17FNLKOI@?$AAO?$AAc?$AAt?$AA?$AA@ 0000000180039e78     LIBCMT:nlsdata.obj
 0002:00006e80       ??_C@_17BBDMLCIG@?$AAN?$AAo?$AAv?$AA?$AA@ 0000000180039e80     LIBCMT:nlsdata.obj
 0002:00006e88       ??_C@_17EGKACKIF@?$AAD?$AAe?$AAc?$AA?$AA@ 0000000180039e88     LIBCMT:nlsdata.obj
 0002:00006e90       ??_C@_1BA@EFMEIEBA@?$AAJ?$AAa?$AAn?$AAu?$AAa?$AAr?$AAy?$AA?$AA@ 0000000180039e90     LIBCMT:nlsdata.obj
 0002:00006ea0       ??_C@_1BC@JGDDFFAM@?$AAF?$AAe?$AAb?$AAr?$AAu?$AAa?$AAr?$AAy?$AA?$AA@ 0000000180039ea0     LIBCMT:nlsdata.obj
 0002:00006eb8       ??_C@_1M@IKEENEDF@?$AAM?$AAa?$AAr?$AAc?$AAh?$AA?$AA@ 0000000180039eb8     LIBCMT:nlsdata.obj
 0002:00006ec8       ??_C@_1M@GJNLMHFD@?$AAA?$AAp?$AAr?$AAi?$AAl?$AA?$AA@ 0000000180039ec8     LIBCMT:nlsdata.obj
 0002:00006ed8       ??_C@_19EPFLPGAP@?$AAJ?$AAu?$AAn?$AAe?$AA?$AA@ 0000000180039ed8     LIBCMT:nlsdata.obj
 0002:00006ee8       ??_C@_19BIFMLPCD@?$AAJ?$AAu?$AAl?$AAy?$AA?$AA@ 0000000180039ee8     LIBCMT:nlsdata.obj
 0002:00006ef8       ??_C@_1O@PAHLKOAC@?$AAA?$AAu?$AAg?$AAu?$AAs?$AAt?$AA?$AA@ 0000000180039ef8     LIBCMT:nlsdata.obj
 0002:00006f08       ??_C@_1BE@DKAAMBJL@?$AAS?$AAe?$AAp?$AAt?$AAe?$AAm?$AAb?$AAe?$AAr?$AA?$AA@ 0000000180039f08     LIBCMT:nlsdata.obj
 0002:00006f20       ??_C@_1BA@EPANDLNG@?$AAO?$AAc?$AAt?$AAo?$AAb?$AAe?$AAr?$AA?$AA@ 0000000180039f20     LIBCMT:nlsdata.obj
 0002:00006f30       ??_C@_1BC@BGLIFPF@?$AAN?$AAo?$AAv?$AAe?$AAm?$AAb?$AAe?$AAr?$AA?$AA@ 0000000180039f30     LIBCMT:nlsdata.obj
 0002:00006f48       ??_C@_1BC@FEMKIFH@?$AAD?$AAe?$AAc?$AAe?$AAm?$AAb?$AAe?$AAr?$AA?$AA@ 0000000180039f48     LIBCMT:nlsdata.obj
 0002:00006f5c       ??_C@_15ODEHAHHF@?$AAA?$AAM?$AA?$AA@ 0000000180039f5c     LIBCMT:nlsdata.obj
 0002:00006f64       ??_C@_15CLMNNGEL@?$AAP?$AAM?$AA?$AA@ 0000000180039f64     LIBCMT:nlsdata.obj
 0002:00006f70       ??_C@_1BC@IEBCMHCM@?$AAM?$AAM?$AA?1?$AAd?$AAd?$AA?1?$AAy?$AAy?$AA?$AA@ 0000000180039f70     LIBCMT:nlsdata.obj
 0002:00006f88       ??_C@_1CI@KNAKOEBC@?$AAd?$AAd?$AAd?$AAd?$AA?0?$AA?5?$AAM?$AAM?$AAM?$AAM?$AA?5?$AAd?$AAd?$AA?0?$AA?5?$AAy?$AAy?$AAy?$AAy?$AA?$AA@ 0000000180039f88     LIBCMT:nlsdata.obj
 0002:00006fb0       ??_C@_1BC@GDGBMEMK@?$AAH?$AAH?$AA?3?$AAm?$AAm?$AA?3?$AAs?$AAs?$AA?$AA@ 0000000180039fb0     LIBCMT:nlsdata.obj
 0002:00006ff0       __lc_category              0000000180039ff0     LIBCMT:wsetloca.obj
 0002:00007080       ??_C@_1O@GIFLHMA@?$AAL?$AAC?$AA_?$AAA?$AAL?$AAL?$AA?$AA@ 000000018003a080     LIBCMT:wsetloca.obj
 0002:00007090       ??_C@_1BG@PPOMIBNJ@?$AAL?$AAC?$AA_?$AAC?$AAO?$AAL?$AAL?$AAA?$AAT?$AAE?$AA?$AA@ 000000018003a090     LIBCMT:wsetloca.obj
 0002:000070a8       ??_C@_1BC@FFJGAPJM@?$AAL?$AAC?$AA_?$AAC?$AAT?$AAY?$AAP?$AAE?$AA?$AA@ 000000018003a0a8     LIBCMT:wsetloca.obj
 0002:000070c0       ??_C@_1BI@PCKFNJFB@?$AAL?$AAC?$AA_?$AAM?$AAO?$AAN?$AAE?$AAT?$AAA?$AAR?$AAY?$AA?$AA@ 000000018003a0c0     LIBCMT:wsetloca.obj
 0002:000070d8       ??_C@_1BG@ENIEDKID@?$AAL?$AAC?$AA_?$AAN?$AAU?$AAM?$AAE?$AAR?$AAI?$AAC?$AA?$AA@ 000000018003a0d8     LIBCMT:wsetloca.obj
 0002:000070f0       ??_C@_1BA@HAAOMIIG@?$AAL?$AAC?$AA_?$AAT?$AAI?$AAM?$AAE?$AA?$AA@ 000000018003a0f0     LIBCMT:wsetloca.obj
 0002:00007180       ??_C@_15NBPDDFIP@?$AA?$DN?$AA?$DL?$AA?$AA@ 000000018003a180     LIBCMT:wsetloca.obj
 0002:00007188       ??_C@_13PJJBFPED@?$AA?$DL?$AA?$AA@ 000000018003a188     LIBCMT:wsetloca.obj
 0002:0000718c       ??_C@_13NMPKAAJP@?$AA?$DN?$AA?$AA@ 000000018003a18c     LIBCMT:wsetloca.obj
 0002:00007190       ??_C@_13FHBKNHDA@?$AAC?$AA?$AA@ 000000018003a190     LIBCMT:wsetloca.obj
 0002:00007198       ??_C@_17MBJJLFDM@?$AA_?$AA?4?$AA?0?$AA?$AA@ 000000018003a198     LIBCMT:wsetloca.obj
 0002:000071a0       ??_C@_13ENNFDPBH@?$AA_?$AA?$AA@ 000000018003a1a0     LIBCMT:wsetloca.obj
 0002:000071a4       ??_C@_13JOFGPIOO@?$AA?4?$AA?$AA@ 000000018003a1a4     LIBCMT:wsetloca.obj
 0002:000071b0       _XcptActTab                000000018003a1b0     LIBCMT:winxfltr.obj
 0002:00007270       _XcptActTabCount           000000018003a270     LIBCMT:winxfltr.obj
 0002:00007274       _XcptActTabSize            000000018003a274     LIBCMT:winxfltr.obj
 0002:00007278       _First_FPE_Indx            000000018003a278     LIBCMT:winxfltr.obj
 0002:0000727c       _Num_FPE                   000000018003a27c     LIBCMT:winxfltr.obj
 0002:00007280       _pDestructExceptionObject  000000018003a280     LIBCMT:frame.obj
 0002:00007290       ??_7bad_exception@std@@6B@ 000000018003a290     LIBCMT:frame.obj
 0002:000072a0       ??_C@_0O@DPKOEFFH@bad?5exception?$AA@ 000000018003a2a0     LIBCMT:frame.obj
 0002:000072b0       ??_C@_05KLBDPFGC@e?$CL000?$AA@ 000000018003a2b0     LIBCMT:cvt.obj
 0002:000072b8       ??_C@_03KHJOGHMM@exp?$AA@  000000018003a2b8     LIBCMT:fpexcept.obj
 0002:000072bc       ??_C@_03JGHBODFD@pow?$AA@  000000018003a2bc     LIBCMT:fpexcept.obj
 0002:000072c0       ??_C@_05HGHHAHAP@log10?$AA@ 000000018003a2c0     LIBCMT:fpexcept.obj
 0002:000072c8       ??_C@_04COOMCNPB@sinh?$AA@ 000000018003a2c8     LIBCMT:fpexcept.obj
 0002:000072d0       ??_C@_04HPJJNFIM@cosh?$AA@ 000000018003a2d0     LIBCMT:fpexcept.obj
 0002:000072d8       ??_C@_04FJHINJAO@tanh?$AA@ 000000018003a2d8     LIBCMT:fpexcept.obj
 0002:000072e0       ??_C@_04FIHNOPOL@asin?$AA@ 000000018003a2e0     LIBCMT:fpexcept.obj
 0002:000072e8       ??_C@_04PDIFKINK@acos?$AA@ 000000018003a2e8     LIBCMT:fpexcept.obj
 0002:000072f0       ??_C@_04MLLJIGOK@atan?$AA@ 000000018003a2f0     LIBCMT:fpexcept.obj
 0002:000072f8       ??_C@_05KNGEOGJB@atan2?$AA@ 000000018003a2f8     LIBCMT:fpexcept.obj
 0002:00007300       ??_C@_03BLEJJJBH@sin?$AA@  000000018003a300     LIBCMT:fpexcept.obj
 0002:00007304       ??_C@_03LALBNOCG@cos?$AA@  000000018003a304     LIBCMT:fpexcept.obj
 0002:00007308       ??_C@_03IIINPABG@tan?$AA@  000000018003a308     LIBCMT:fpexcept.obj
 0002:0000730c       ??_C@_04GFPJNGEK@ceil?$AA@ 000000018003a30c     LIBCMT:fpexcept.obj
 0002:00007314       ??_C@_05PBJFFIGL@floor?$AA@ 000000018003a314     LIBCMT:fpexcept.obj
 0002:0000731c       ??_C@_04ODHECPBC@fabs?$AA@ 000000018003a31c     LIBCMT:fpexcept.obj
 0002:00007324       ??_C@_04EHEDPDJG@modf?$AA@ 000000018003a324     LIBCMT:fpexcept.obj
 0002:0000732c       ??_C@_05CEJMAHNP@ldexp?$AA@ 000000018003a32c     LIBCMT:fpexcept.obj
 0002:00007334       ??_C@_05KBKMEMPO@_cabs?$AA@ 000000018003a334     LIBCMT:fpexcept.obj
 0002:0000733c       ??_C@_04KEPJIHGP@fmod?$AA@ 000000018003a33c     LIBCMT:fpexcept.obj
 0002:00007344       ??_C@_05GKKHEGJL@frexp?$AA@ 000000018003a344     LIBCMT:fpexcept.obj
 0002:0000734c       ??_C@_03MJLDFKDL@_y0?$AA@  000000018003a34c     LIBCMT:fpexcept.obj
 0002:00007350       ??_C@_03NAKIGLHK@_y1?$AA@  000000018003a350     LIBCMT:fpexcept.obj
 0002:00007354       ??_C@_03ONILCKOB@_yn?$AA@  000000018003a354     LIBCMT:fpexcept.obj
 0002:00007358       ??_C@_05JGDBENOH@_logb?$AA@ 000000018003a358     LIBCMT:fpexcept.obj
 0002:00007360       ??_C@_0L@KDOEJCKC@_nextafter?$AA@ 000000018003a360     LIBCMT:fpexcept.obj
 0002:00007370       __dnames                   000000018003a370     LIBCMT:timeset.obj
 0002:00007388       __mnames                   000000018003a388     LIBCMT:timeset.obj
 0002:000076d8       ??_C@_08EHJDFFNH@__based?$CI?$AA@ 000000018003a6d8     LIBCMT:undname.obj
 0002:000076e8       ??_C@_07KOLFKCDI@__cdecl?$AA@ 000000018003a6e8     LIBCMT:undname.obj
 0002:000076f0       ??_C@_08GHMPAG@__pascal?$AA@ 000000018003a6f0     LIBCMT:undname.obj
 0002:00007700       ??_C@_09IFJBGAPI@__stdcall?$AA@ 000000018003a700     LIBCMT:undname.obj
 0002:00007710       ??_C@_0L@NPHFGOKO@__thiscall?$AA@ 000000018003a710     LIBCMT:undname.obj
 0002:00007720       ??_C@_0L@JMKHOMEK@__fastcall?$AA@ 000000018003a720     LIBCMT:undname.obj
 0002:00007730       ??_C@_0N@BCKKPABJ@__vectorcall?$AA@ 000000018003a730     LIBCMT:undname.obj
 0002:00007740       ??_C@_09HIJEGCPM@__clrcall?$AA@ 000000018003a740     LIBCMT:undname.obj
 0002:0000774c       ??_C@_06GHPCKEAG@__eabi?$AA@ 000000018003a74c     LIBCMT:undname.obj
 0002:00007758       ??_C@_07JOMMBBKO@__ptr64?$AA@ 000000018003a758     LIBCMT:undname.obj
 0002:00007760       ??_C@_0L@PILCLIHE@__restrict?$AA@ 000000018003a760     LIBCMT:undname.obj
 0002:00007770       ??_C@_0M@GFIIJFMG@__unaligned?$AA@ 000000018003a770     LIBCMT:undname.obj
 0002:00007780       ??_C@_09DHDLOLLB@restrict?$CI?$AA@ 000000018003a780     LIBCMT:undname.obj
 0002:0000778c       ??_C@_04NIHEBCM@?5new?$AA@ 000000018003a78c     LIBCMT:undname.obj
 0002:00007798       ??_C@_07FPCDHGMM@?5delete?$AA@ 000000018003a798     LIBCMT:undname.obj
 0002:000077a0       ??_C@_01NEMOKFLO@?$DN?$AA@ 000000018003a7a0     LIBCMT:undname.obj
 0002:000077a4       ??_C@_02GPIOPFAK@?$DO?$DO?$AA@ 000000018003a7a4     LIBCMT:undname.obj
 0002:000077a8       ??_C@_02FODMEDOG@?$DM?$DM?$AA@ 000000018003a7a8     LIBCMT:undname.obj
 0002:000077ac       ??_C@_01DCLJPIOD@?$CB?$AA@ 000000018003a7ac     LIBCMT:undname.obj
 0002:000077b0       ??_C@_02EGOFBIJA@?$DN?$DN?$AA@ 000000018003a7b0     LIBCMT:undname.obj
 0002:000077b4       ??_C@_02FDNJECIE@?$CB?$DN?$AA@ 000000018003a7b4     LIBCMT:undname.obj
 0002:000077b8       ??_C@_02GPECMEKF@?$FL?$FN?$AA@ 000000018003a7b8     LIBCMT:undname.obj
 0002:000077c0       ??_C@_08LHJFAFGD@operator?$AA@ 000000018003a7c0     LIBCMT:undname.obj
 0002:000077cc       ??_C@_02HBOOOICD@?9?$DO?$AA@ 000000018003a7cc     LIBCMT:undname.obj
 0002:000077d0       ??_C@_02ECNGHCIF@?$CL?$CL?$AA@ 000000018003a7d0     LIBCMT:undname.obj
 0002:000077d4       ??_C@_02BAABKJLB@?9?9?$AA@ 000000018003a7d4     LIBCMT:undname.obj
 0002:000077d8       ??_C@_01MIFGBAGJ@?$CL?$AA@ 000000018003a7d8     LIBCMT:undname.obj
 0002:000077dc       ??_C@_01HNPIGOCE@?$CG?$AA@ 000000018003a7dc     LIBCMT:undname.obj
 0002:000077e0       ??_C@_03MNHNFDLC@?9?$DO?$CK?$AA@ 000000018003a7e0     LIBCMT:undname.obj
 0002:000077e4       ??_C@_01KMDKNFGN@?1?$AA@   000000018003a7e4     LIBCMT:undname.obj
 0002:000077e8       ??_C@_01FGNFDNOH@?$CF?$AA@ 000000018003a7e8     LIBCMT:undname.obj
 0002:000077ec       ??_C@_01MNNFJEPP@?$DM?$AA@ 000000018003a7ec     LIBCMT:undname.obj
 0002:000077f0       ??_C@_02EHCHHCKH@?$DM?$DN?$AA@ 000000018003a7f0     LIBCMT:undname.obj
 0002:000077f4       ??_C@_01PPODPGHN@?$DO?$AA@ 000000018003a7f4     LIBCMT:undname.obj
 0002:000077f8       ??_C@_02EEKDKGMJ@?$DO?$DN?$AA@ 000000018003a7f8     LIBCMT:undname.obj
 0002:000077fc       ??_C@_01IHBHIGKO@?0?$AA@   000000018003a7fc     LIBCMT:undname.obj
 0002:00007800       ??_C@_02HCKGKOFO@?$CI?$CJ?$AA@ 000000018003a800     LIBCMT:undname.obj
 0002:00007804       ??_C@_01PJKLJHI@?$HO?$AA@  000000018003a804     LIBCMT:undname.obj
 0002:00007808       ??_C@_01JKBOJNNK@?$FO?$AA@ 000000018003a808     LIBCMT:undname.obj
 0002:0000780c       ??_C@_01DNKMNLPK@?$HM?$AA@ 000000018003a80c     LIBCMT:undname.obj
 0002:00007810       ??_C@_02PPKAJPJL@?$CG?$CG?$AA@ 000000018003a810     LIBCMT:undname.obj
 0002:00007814       ??_C@_02NONPIBCD@?$HM?$HM?$AA@ 000000018003a814     LIBCMT:undname.obj
 0002:00007818       ??_C@_02FPIMKNGF@?$CK?$DN?$AA@ 000000018003a818     LIBCMT:undname.obj
 0002:0000781c       ??_C@_02FOEOMHFC@?$CL?$DN?$AA@ 000000018003a81c     LIBCMT:undname.obj
 0002:00007820       ??_C@_02FKMDLLOA@?9?$DN?$AA@ 000000018003a820     LIBCMT:undname.obj
 0002:00007824       ??_C@_02FJEHGPIO@?1?$DN?$AA@ 000000018003a824     LIBCMT:undname.obj
 0002:00007828       ??_C@_02FENAOKFI@?$CF?$DN?$AA@ 000000018003a828     LIBCMT:undname.obj
 0002:0000782c       ??_C@_03IKFCCPFF@?$DO?$DO?$DN?$AA@ 000000018003a82c     LIBCMT:undname.obj
 0002:00007830       ??_C@_03CDNPDDLA@?$DM?$DM?$DN?$AA@ 000000018003a830     LIBCMT:undname.obj
 0002:00007834       ??_C@_02FGJGFEAB@?$CG?$DN?$AA@ 000000018003a834     LIBCMT:undname.obj
 0002:00007838       ??_C@_02DHLNPPGH@?$HM?$DN?$AA@ 000000018003a838     LIBCMT:undname.obj
 0002:0000783c       ??_C@_02MHEGNOJ@?$FO?$DN?$AA@ 000000018003a83c     LIBCMT:undname.obj
 0002:00007840       ??_C@_09IFPLHPGF@?$GAvftable?8?$AA@ 000000018003a840     LIBCMT:undname.obj
 0002:00007850       ??_C@_09BLBHBJP@?$GAvbtable?8?$AA@ 000000018003a850     LIBCMT:undname.obj
 0002:00007860       ??_C@_07FEEIOKP@?$GAvcall?8?$AA@ 000000018003a860     LIBCMT:undname.obj
 0002:00007868       ??_C@_08LLFFHHDJ@?$GAtypeof?8?$AA@ 000000018003a868     LIBCMT:undname.obj
 0002:00007878       ??_C@_0BF@KDPPACIK@?$GAlocal?5static?5guard?8?$AA@ 000000018003a878     LIBCMT:undname.obj
 0002:00007890       ??_C@_08OBABFOLI@?$GAstring?8?$AA@ 000000018003a890     LIBCMT:undname.obj
 0002:000078a0       ??_C@_0BD@JDLKDPAB@?$GAvbase?5destructor?8?$AA@ 000000018003a8a0     LIBCMT:undname.obj
 0002:000078b8       ??_C@_0BN@DEGPLNFK@?$GAvector?5deleting?5destructor?8?$AA@ 000000018003a8b8     LIBCMT:undname.obj
 0002:000078d8       ??_C@_0BO@OBMKPJIG@?$GAdefault?5constructor?5closure?8?$AA@ 000000018003a8d8     LIBCMT:undname.obj
 0002:000078f8       ??_C@_0BN@IMDCHIKM@?$GAscalar?5deleting?5destructor?8?$AA@ 000000018003a8f8     LIBCMT:undname.obj
 0002:00007918       ??_C@_0BO@PFGOCPJJ@?$GAvector?5constructor?5iterator?8?$AA@ 000000018003a918     LIBCMT:undname.obj
 0002:00007938       ??_C@_0BN@LFPFMEDL@?$GAvector?5destructor?5iterator?8?$AA@ 000000018003a938     LIBCMT:undname.obj
 0002:00007958       ??_C@_0CE@IKBNEHA@?$GAvector?5vbase?5constructor?5iterat@ 000000018003a958     LIBCMT:undname.obj
 0002:00007980       ??_C@_0BL@NILFHHPC@?$GAvirtual?5displacement?5map?8?$AA@ 000000018003a980     LIBCMT:undname.obj
 0002:000079a0       ??_C@_0CB@JONCMFFK@?$GAeh?5vector?5constructor?5iterator?8@ 000000018003a9a0     LIBCMT:undname.obj
 0002:000079c8       ??_C@_0CA@GCEOPDGL@?$GAeh?5vector?5destructor?5iterator?8?$AA@ 000000018003a9c8     LIBCMT:undname.obj
 0002:000079e8       ??_C@_0CH@OOJPLCPH@?$GAeh?5vector?5vbase?5constructor?5ite@ 000000018003a9e8     LIBCMT:undname.obj
 0002:00007a10       ??_C@_0BL@LLKPOHJI@?$GAcopy?5constructor?5closure?8?$AA@ 000000018003aa10     LIBCMT:undname.obj
 0002:00007a30       ??_C@_0BA@KBCDOMBN@?$GAudt?5returning?8?$AA@ 000000018003aa30     LIBCMT:undname.obj
 0002:00007a40       ??_C@_03KLGMFNMG@?$GAEH?$AA@ 000000018003aa40     LIBCMT:undname.obj
 0002:00007a44       ??_C@_05KHLCHHI@?$GARTTI?$AA@ 000000018003aa44     LIBCMT:undname.obj
 0002:00007a50       ??_C@_0BA@KKLDJDLB@?$GAlocal?5vftable?8?$AA@ 000000018003aa50     LIBCMT:undname.obj
 0002:00007a60       ??_C@_0CE@IIHCMGGL@?$GAlocal?5vftable?5constructor?5closu@ 000000018003aa60     LIBCMT:undname.obj
 0002:00007a84       ??_C@_06FHBGPFGH@?5new?$FL?$FN?$AA@ 000000018003aa84     LIBCMT:undname.obj
 0002:00007a90       ??_C@_09LBNFPBCA@?5delete?$FL?$FN?$AA@ 000000018003aa90     LIBCMT:undname.obj
 0002:00007aa0       ??_C@_0P@HJKNJFNN@?$GAomni?5callsig?8?$AA@ 000000018003aaa0     LIBCMT:undname.obj
 0002:00007ab0       ??_C@_0BL@CNOONJFP@?$GAplacement?5delete?5closure?8?$AA@ 000000018003aab0     LIBCMT:undname.obj
 0002:00007ad0       ??_C@_0BN@CKNJLHMB@?$GAplacement?5delete?$FL?$FN?5closure?8?$AA@ 000000018003aad0     LIBCMT:undname.obj
 0002:00007af0       ??_C@_0CG@CFDHKGGD@?$GAmanaged?5vector?5constructor?5iter@ 000000018003aaf0     LIBCMT:undname.obj
 0002:00007b18       ??_C@_0CF@IMGKMJNO@?$GAmanaged?5vector?5destructor?5itera@ 000000018003ab18     LIBCMT:undname.obj
 0002:00007b40       ??_C@_0CG@HLDDJMAG@?$GAeh?5vector?5copy?5constructor?5iter@ 000000018003ab40     LIBCMT:undname.obj
 0002:00007b68       ??_C@_0CM@FCBBDIGB@?$GAeh?5vector?5vbase?5copy?5constructo@ 000000018003ab68     LIBCMT:undname.obj
 0002:00007b98       ??_C@_0BL@CLIPGLGB@?$GAdynamic?5initializer?5for?5?8?$AA@ 000000018003ab98     LIBCMT:undname.obj
 0002:00007bb8       ??_C@_0CB@PDBIFEP@?$GAdynamic?5atexit?5destructor?5for?5?8@ 000000018003abb8     LIBCMT:undname.obj
 0002:00007be0       ??_C@_0CD@CGAJBKEJ@?$GAvector?5copy?5constructor?5iterato@ 000000018003abe0     LIBCMT:undname.obj
 0002:00007c08       ??_C@_0CJ@GJELGAMM@?$GAvector?5vbase?5copy?5constructor?5i@ 000000018003ac08     LIBCMT:undname.obj
 0002:00007c38       ??_C@_0CL@FGIJHLCE@?$GAmanaged?5vector?5copy?5constructor@ 000000018003ac38     LIBCMT:undname.obj
 0002:00007c68       ??_C@_0BM@PMGGMLDN@?$GAlocal?5static?5thread?5guard?8?$AA@ 000000018003ac68     LIBCMT:undname.obj
 0002:00007c88       ??_C@_0BC@DAFEJGAK@?5Type?5Descriptor?8?$AA@ 000000018003ac88     LIBCMT:undname.obj
 0002:00007ca0       ??_C@_0BM@LDKODKLH@?5Base?5Class?5Descriptor?5at?5?$CI?$AA@ 000000018003aca0     LIBCMT:undname.obj
 0002:00007cc0       ??_C@_0BD@LGICGFMM@?5Base?5Class?5Array?8?$AA@ 000000018003acc0     LIBCMT:undname.obj
 0002:00007cd8       ??_C@_0BN@MECKDCOJ@?5Class?5Hierarchy?5Descriptor?8?$AA@ 000000018003acd8     LIBCMT:undname.obj
 0002:00007cf8       ??_C@_0BK@CFCOFLF@?5Complete?5Object?5Locator?8?$AA@ 000000018003acf8     LIBCMT:undname.obj
 0002:00007d20       __lookuptable_s            000000018003ad20     LIBCMT:outputs.obj
 0002:00007d80       __rg_language              000000018003ad80     LIBCMT:getqloc.obj
 0002:00008190       ??_C@_1BC@LLOKLNP@?$AAa?$AAm?$AAe?$AAr?$AAi?$AAc?$AAa?$AAn?$AA?$AA@ 000000018003b190     LIBCMT:getqloc.obj
 0002:000081a8       ??_C@_1CC@HEIGCDGG@?$AAa?$AAm?$AAe?$AAr?$AAi?$AAc?$AAa?$AAn?$AA?5?$AAe?$AAn?$AAg?$AAl?$AAi?$AAs?$AAh?$AA?$AA@ 000000018003b1a8     LIBCMT:getqloc.obj
 0002:000081d0       ??_C@_1CC@IHCNOMIN@?$AAa?$AAm?$AAe?$AAr?$AAi?$AAc?$AAa?$AAn?$AA?9?$AAe?$AAn?$AAg?$AAl?$AAi?$AAs?$AAh?$AA?$AA@ 000000018003b1d0     LIBCMT:getqloc.obj
 0002:000081f8       ??_C@_1BG@GKAGPCGG@?$AAa?$AAu?$AAs?$AAt?$AAr?$AAa?$AAl?$AAi?$AAa?$AAn?$AA?$AA@ 000000018003b1f8     LIBCMT:getqloc.obj
 0002:00008210       ??_C@_1BA@GMENCENF@?$AAb?$AAe?$AAl?$AAg?$AAi?$AAa?$AAn?$AA?$AA@ 000000018003b210     LIBCMT:getqloc.obj
 0002:00008220       ??_C@_1BC@PJMIIAAN@?$AAc?$AAa?$AAn?$AAa?$AAd?$AAi?$AAa?$AAn?$AA?$AA@ 000000018003b220     LIBCMT:getqloc.obj
 0002:00008238       ??_C@_17NOIMNFBF@?$AAc?$AAh?$AAh?$AA?$AA@ 000000018003b238     LIBCMT:getqloc.obj
 0002:00008240       ??_C@_17GGDALCHA@?$AAc?$AAh?$AAi?$AA?$AA@ 000000018003b240     LIBCMT:getqloc.obj
 0002:00008248       ??_C@_1BA@NPNJKIBL@?$AAc?$AAh?$AAi?$AAn?$AAe?$AAs?$AAe?$AA?$AA@ 000000018003b248     LIBCMT:getqloc.obj
 0002:00008258       ??_C@_1CC@DINBAMMJ@?$AAc?$AAh?$AAi?$AAn?$AAe?$AAs?$AAe?$AA?9?$AAh?$AAo?$AAn?$AAg?$AAk?$AAo?$AAn?$AAg?$AA?$AA@ 000000018003b258     LIBCMT:getqloc.obj
 0002:00008280       ??_C@_1CG@IOBJPACO@?$AAc?$AAh?$AAi?$AAn?$AAe?$AAs?$AAe?$AA?9?$AAs?$AAi?$AAm?$AAp?$AAl?$AAi?$AAf?$AAi?$AAe?$AAd?$AA?$AA@ 000000018003b280     LIBCMT:getqloc.obj
 0002:000082a8       ??_C@_1CE@GAJNDCKG@?$AAc?$AAh?$AAi?$AAn?$AAe?$AAs?$AAe?$AA?9?$AAs?$AAi?$AAn?$AAg?$AAa?$AAp?$AAo?$AAr?$AAe?$AA?$AA@ 000000018003b2a8     LIBCMT:getqloc.obj
 0002:000082d0       ??_C@_1CI@PAJPIOOD@?$AAc?$AAh?$AAi?$AAn?$AAe?$AAs?$AAe?$AA?9?$AAt?$AAr?$AAa?$AAd?$AAi?$AAt?$AAi?$AAo?$AAn?$AAa?$AAl?$AA?$AA@ 000000018003b2d0     LIBCMT:getqloc.obj
 0002:000082f8       ??_C@_1BM@NILJBMMD@?$AAd?$AAu?$AAt?$AAc?$AAh?$AA?9?$AAb?$AAe?$AAl?$AAg?$AAi?$AAa?$AAn?$AA?$AA@ 000000018003b2f8     LIBCMT:getqloc.obj
 0002:00008318       ??_C@_1CC@OOJPJNEJ@?$AAe?$AAn?$AAg?$AAl?$AAi?$AAs?$AAh?$AA?9?$AAa?$AAm?$AAe?$AAr?$AAi?$AAc?$AAa?$AAn?$AA?$AA@ 000000018003b318     LIBCMT:getqloc.obj
 0002:00008340       ??_C@_1BI@IOLFEEM@?$AAe?$AAn?$AAg?$AAl?$AAi?$AAs?$AAh?$AA?9?$AAa?$AAu?$AAs?$AA?$AA@ 000000018003b340     LIBCMT:getqloc.obj
 0002:00008358       ??_C@_1BO@HFFNLENJ@?$AAe?$AAn?$AAg?$AAl?$AAi?$AAs?$AAh?$AA?9?$AAb?$AAe?$AAl?$AAi?$AAz?$AAe?$AA?$AA@ 000000018003b358     LIBCMT:getqloc.obj
 0002:00008378       ??_C@_1BI@HAPKJMPO@?$AAe?$AAn?$AAg?$AAl?$AAi?$AAs?$AAh?$AA?9?$AAc?$AAa?$AAn?$AA?$AA@ 000000018003b378     LIBCMT:getqloc.obj
 0002:00008390       ??_C@_1CE@HLNDMIOJ@?$AAe?$AAn?$AAg?$AAl?$AAi?$AAs?$AAh?$AA?9?$AAc?$AAa?$AAr?$AAi?$AAb?$AAb?$AAe?$AAa?$AAn?$AA?$AA@ 000000018003b390     LIBCMT:getqloc.obj
 0002:000083b8       ??_C@_1BI@LDHJHHAC@?$AAe?$AAn?$AAg?$AAl?$AAi?$AAs?$AAh?$AA?9?$AAi?$AAr?$AAe?$AA?$AA@ 000000018003b3b8     LIBCMT:getqloc.obj
 0002:000083d0       ??_C@_1CA@NJMMCFOC@?$AAe?$AAn?$AAg?$AAl?$AAi?$AAs?$AAh?$AA?9?$AAj?$AAa?$AAm?$AAa?$AAi?$AAc?$AAa?$AA?$AA@ 000000018003b3d0     LIBCMT:getqloc.obj
 0002:000083f0       ??_C@_1BG@BHJEBBGG@?$AAe?$AAn?$AAg?$AAl?$AAi?$AAs?$AAh?$AA?9?$AAn?$AAz?$AA?$AA@ 000000018003b3f0     LIBCMT:getqloc.obj
 0002:00008408       ??_C@_1CK@FGOEJJCO@?$AAe?$AAn?$AAg?$AAl?$AAi?$AAs?$AAh?$AA?9?$AAs?$AAo?$AAu?$AAt?$AAh?$AA?5?$AAa?$AAf?$AAr?$AAi?$AAc?$AAa?$AA?$AA@ 000000018003b408     LIBCMT:getqloc.obj
 0002:00008438       ??_C@_1DE@PDBJPCJ@?$AAe?$AAn?$AAg?$AAl?$AAi?$AAs?$AAh?$AA?9?$AAt?$AAr?$AAi?$AAn?$AAi?$AAd?$AAa?$AAd?$AA?5?$AAy?$AA?5?$AAt?$AAo?$AAb?$AAa?$AAg?$AAo?$AA?$AA@ 000000018003b438     LIBCMT:getqloc.obj
 0002:00008470       ??_C@_1BG@JGCANDME@?$AAe?$AAn?$AAg?$AAl?$AAi?$AAs?$AAh?$AA?9?$AAu?$AAk?$AA?$AA@ 000000018003b470     LIBCMT:getqloc.obj
 0002:00008488       ??_C@_1BG@DINKMLE@?$AAe?$AAn?$AAg?$AAl?$AAi?$AAs?$AAh?$AA?9?$AAu?$AAs?$AA?$AA@ 000000018003b488     LIBCMT:getqloc.obj
 0002:000084a0       ??_C@_1BI@NMFDBHJE@?$AAe?$AAn?$AAg?$AAl?$AAi?$AAs?$AAh?$AA?9?$AAu?$AAs?$AAa?$AA?$AA@ 000000018003b4a0     LIBCMT:getqloc.obj
 0002:000084b8       ??_C@_1BO@OIHKJKII@?$AAf?$AAr?$AAe?$AAn?$AAc?$AAh?$AA?9?$AAb?$AAe?$AAl?$AAg?$AAi?$AAa?$AAn?$AA?$AA@ 000000018003b4b8     LIBCMT:getqloc.obj
 0002:000084d8       ??_C@_1CA@NKAELJKI@?$AAf?$AAr?$AAe?$AAn?$AAc?$AAh?$AA?9?$AAc?$AAa?$AAn?$AAa?$AAd?$AAi?$AAa?$AAn?$AA?$AA@ 000000018003b4d8     LIBCMT:getqloc.obj
 0002:000084f8       ??_C@_1CE@MGKCNLGN@?$AAf?$AAr?$AAe?$AAn?$AAc?$AAh?$AA?9?$AAl?$AAu?$AAx?$AAe?$AAm?$AAb?$AAo?$AAu?$AAr?$AAg?$AA?$AA@ 000000018003b4f8     LIBCMT:getqloc.obj
 0002:00008520       ??_C@_1BK@CEGEAILM@?$AAf?$AAr?$AAe?$AAn?$AAc?$AAh?$AA?9?$AAs?$AAw?$AAi?$AAs?$AAs?$AA?$AA@ 000000018003b520     LIBCMT:getqloc.obj
 0002:00008540       ??_C@_1CA@PAFKEOCC@?$AAg?$AAe?$AAr?$AAm?$AAa?$AAn?$AA?9?$AAa?$AAu?$AAs?$AAt?$AAr?$AAi?$AAa?$AAn?$AA?$AA@ 000000018003b540     LIBCMT:getqloc.obj
 0002:00008560       ??_C@_1CI@HCFHGOFD@?$AAg?$AAe?$AAr?$AAm?$AAa?$AAn?$AA?9?$AAl?$AAi?$AAc?$AAh?$AAt?$AAe?$AAn?$AAs?$AAt?$AAe?$AAi?$AAn?$AA?$AA@ 000000018003b560     LIBCMT:getqloc.obj
 0002:00008588       ??_C@_1CE@FEDDNPDG@?$AAg?$AAe?$AAr?$AAm?$AAa?$AAn?$AA?9?$AAl?$AAu?$AAx?$AAe?$AAm?$AAb?$AAo?$AAu?$AAr?$AAg?$AA?$AA@ 000000018003b588     LIBCMT:getqloc.obj
 0002:000085b0       ??_C@_1BK@LIMINNMN@?$AAg?$AAe?$AAr?$AAm?$AAa?$AAn?$AA?9?$AAs?$AAw?$AAi?$AAs?$AAs?$AA?$AA@ 000000018003b5b0     LIBCMT:getqloc.obj
 0002:000085d0       ??_C@_1BM@LGMDBEPD@?$AAi?$AAr?$AAi?$AAs?$AAh?$AA?9?$AAe?$AAn?$AAg?$AAl?$AAi?$AAs?$AAh?$AA?$AA@ 000000018003b5d0     LIBCMT:getqloc.obj
 0002:000085f0       ??_C@_1BM@NNCFBAEE@?$AAi?$AAt?$AAa?$AAl?$AAi?$AAa?$AAn?$AA?9?$AAs?$AAw?$AAi?$AAs?$AAs?$AA?$AA@ 000000018003b5f0     LIBCMT:getqloc.obj
 0002:00008610       ??_C@_1BE@FEDJNPIB@?$AAn?$AAo?$AAr?$AAw?$AAe?$AAg?$AAi?$AAa?$AAn?$AA?$AA@ 000000018003b610     LIBCMT:getqloc.obj
 0002:00008628       ??_C@_1CC@CILKDEIE@?$AAn?$AAo?$AAr?$AAw?$AAe?$AAg?$AAi?$AAa?$AAn?$AA?9?$AAb?$AAo?$AAk?$AAm?$AAa?$AAl?$AA?$AA@ 000000018003b628     LIBCMT:getqloc.obj
 0002:00008650       ??_C@_1CE@DHMMHEPL@?$AAn?$AAo?$AAr?$AAw?$AAe?$AAg?$AAi?$AAa?$AAn?$AA?9?$AAn?$AAy?$AAn?$AAo?$AAr?$AAs?$AAk?$AA?$AA@ 000000018003b650     LIBCMT:getqloc.obj
 0002:00008678       ??_C@_1CK@OPNMHECD@?$AAp?$AAo?$AAr?$AAt?$AAu?$AAg?$AAu?$AAe?$AAs?$AAe?$AA?9?$AAb?$AAr?$AAa?$AAz?$AAi?$AAl?$AAi?$AAa?$AAn?$AA?$AA@ 000000018003b678     LIBCMT:getqloc.obj
 0002:000086a8       ??_C@_1CE@KEEHCDB@?$AAs?$AAp?$AAa?$AAn?$AAi?$AAs?$AAh?$AA?9?$AAa?$AAr?$AAg?$AAe?$AAn?$AAt?$AAi?$AAn?$AAa?$AA?$AA@ 000000018003b6a8     LIBCMT:getqloc.obj
 0002:000086d0       ??_C@_1CA@GIAOLHJD@?$AAs?$AAp?$AAa?$AAn?$AAi?$AAs?$AAh?$AA?9?$AAb?$AAo?$AAl?$AAi?$AAv?$AAi?$AAa?$AA?$AA@ 000000018003b6d0     LIBCMT:getqloc.obj
 0002:000086f0       ??_C@_1BM@OJNDFNPD@?$AAs?$AAp?$AAa?$AAn?$AAi?$AAs?$AAh?$AA?9?$AAc?$AAh?$AAi?$AAl?$AAe?$AA?$AA@ 000000018003b6f0     LIBCMT:getqloc.obj
 0002:00008710       ??_C@_1CC@OCOLPALL@?$AAs?$AAp?$AAa?$AAn?$AAi?$AAs?$AAh?$AA?9?$AAc?$AAo?$AAl?$AAo?$AAm?$AAb?$AAi?$AAa?$AA?$AA@ 000000018003b710     LIBCMT:getqloc.obj
 0002:00008738       ??_C@_1CG@BPOFMKBB@?$AAs?$AAp?$AAa?$AAn?$AAi?$AAs?$AAh?$AA?9?$AAc?$AAo?$AAs?$AAt?$AAa?$AA?5?$AAr?$AAi?$AAc?$AAa?$AA?$AA@ 000000018003b738     LIBCMT:getqloc.obj
 0002:00008760       ??_C@_1DG@IGOBAPBB@?$AAs?$AAp?$AAa?$AAn?$AAi?$AAs?$AAh?$AA?9?$AAd?$AAo?$AAm?$AAi?$AAn?$AAi?$AAc?$AAa?$AAn?$AA?5?$AAr?$AAe?$AAp?$AAu?$AAb?$AAl?$AAi?$AAc?$AA?$AA@ 000000018003b760     LIBCMT:getqloc.obj
 0002:00008798       ??_C@_1CA@JHAPGEGI@?$AAs?$AAp?$AAa?$AAn?$AAi?$AAs?$AAh?$AA?9?$AAe?$AAc?$AAu?$AAa?$AAd?$AAo?$AAr?$AA?$AA@ 000000018003b798     LIBCMT:getqloc.obj
 0002:000087b8       ??_C@_1CI@LAPALJPP@?$AAs?$AAp?$AAa?$AAn?$AAi?$AAs?$AAh?$AA?9?$AAe?$AAl?$AA?5?$AAs?$AAa?$AAl?$AAv?$AAa?$AAd?$AAo?$AAr?$AA?$AA@ 000000018003b7b8     LIBCMT:getqloc.obj
 0002:000087e0       ??_C@_1CE@PDGBOFOM@?$AAs?$AAp?$AAa?$AAn?$AAi?$AAs?$AAh?$AA?9?$AAg?$AAu?$AAa?$AAt?$AAe?$AAm?$AAa?$AAl?$AAa?$AA?$AA@ 000000018003b7e0     LIBCMT:getqloc.obj
 0002:00008808       ??_C@_1CC@NBEBAODI@?$AAs?$AAp?$AAa?$AAn?$AAi?$AAs?$AAh?$AA?9?$AAh?$AAo?$AAn?$AAd?$AAu?$AAr?$AAa?$AAs?$AA?$AA@ 000000018003b808     LIBCMT:getqloc.obj
 0002:00008830       ??_C@_1CA@LLKGHBMF@?$AAs?$AAp?$AAa?$AAn?$AAi?$AAs?$AAh?$AA?9?$AAm?$AAe?$AAx?$AAi?$AAc?$AAa?$AAn?$AA?$AA@ 000000018003b830     LIBCMT:getqloc.obj
 0002:00008850       ??_C@_1BO@LKNDOIGD@?$AAs?$AAp?$AAa?$AAn?$AAi?$AAs?$AAh?$AA?9?$AAm?$AAo?$AAd?$AAe?$AAr?$AAn?$AA?$AA@ 000000018003b850     LIBCMT:getqloc.obj
 0002:00008870       ??_C@_1CE@NMDMOEEB@?$AAs?$AAp?$AAa?$AAn?$AAi?$AAs?$AAh?$AA?9?$AAn?$AAi?$AAc?$AAa?$AAr?$AAa?$AAg?$AAu?$AAa?$AA?$AA@ 000000018003b870     LIBCMT:getqloc.obj
 0002:00008898       ??_C@_1BO@LLCBEJGB@?$AAs?$AAp?$AAa?$AAn?$AAi?$AAs?$AAh?$AA?9?$AAp?$AAa?$AAn?$AAa?$AAm?$AAa?$AA?$AA@ 000000018003b898     LIBCMT:getqloc.obj
 0002:000088b8       ??_C@_1CC@FKPGGIHO@?$AAs?$AAp?$AAa?$AAn?$AAi?$AAs?$AAh?$AA?9?$AAp?$AAa?$AAr?$AAa?$AAg?$AAu?$AAa?$AAy?$AA?$AA@ 000000018003b8b8     LIBCMT:getqloc.obj
 0002:000088e0       ??_C@_1BK@CDEIHOOP@?$AAs?$AAp?$AAa?$AAn?$AAi?$AAs?$AAh?$AA?9?$AAp?$AAe?$AAr?$AAu?$AA?$AA@ 000000018003b8e0     LIBCMT:getqloc.obj
 0002:00008900       ??_C@_1CI@GAHAKKGP@?$AAs?$AAp?$AAa?$AAn?$AAi?$AAs?$AAh?$AA?9?$AAp?$AAu?$AAe?$AAr?$AAt?$AAo?$AA?5?$AAr?$AAi?$AAc?$AAo?$AA?$AA@ 000000018003b900     LIBCMT:getqloc.obj
 0002:00008928       ??_C@_1CA@NKJBCAGP@?$AAs?$AAp?$AAa?$AAn?$AAi?$AAs?$AAh?$AA?9?$AAu?$AAr?$AAu?$AAg?$AAu?$AAa?$AAy?$AA?$AA@ 000000018003b928     LIBCMT:getqloc.obj
 0002:00008948       ??_C@_1CE@ODILCONM@?$AAs?$AAp?$AAa?$AAn?$AAi?$AAs?$AAh?$AA?9?$AAv?$AAe?$AAn?$AAe?$AAz?$AAu?$AAe?$AAl?$AAa?$AA?$AA@ 000000018003b948     LIBCMT:getqloc.obj
 0002:00008970       ??_C@_1CA@OBNMCGFO@?$AAs?$AAw?$AAe?$AAd?$AAi?$AAs?$AAh?$AA?9?$AAf?$AAi?$AAn?$AAl?$AAa?$AAn?$AAd?$AA?$AA@ 000000018003b970     LIBCMT:getqloc.obj
 0002:00008990       ??_C@_1M@PIPDDPPI@?$AAs?$AAw?$AAi?$AAs?$AAs?$AA?$AA@ 000000018003b990     LIBCMT:getqloc.obj
 0002:0000899c       ??_C@_15GMFIMNFM@?$AAu?$AAs?$AA?$AA@ 000000018003b99c     LIBCMT:getqloc.obj
 0002:000089a8       ??_C@_17HAEBFAGL@?$AAu?$AAs?$AAa?$AA?$AA@ 000000018003b9a8     LIBCMT:getqloc.obj
 0002:000089b0       __rg_country               000000018003b9b0     LIBCMT:getqloc.obj
 0002:00008b20       ??_C@_1BA@DPFJEPHB@?$AAa?$AAm?$AAe?$AAr?$AAi?$AAc?$AAa?$AA?$AA@ 000000018003bb20     LIBCMT:getqloc.obj
 0002:00008b30       ??_C@_1BA@ELOGGFK@?$AAb?$AAr?$AAi?$AAt?$AAa?$AAi?$AAn?$AA?$AA@ 000000018003bb30     LIBCMT:getqloc.obj
 0002:00008b40       ??_C@_1M@GHBGIGDA@?$AAc?$AAh?$AAi?$AAn?$AAa?$AA?$AA@ 000000018003bb40     LIBCMT:getqloc.obj
 0002:00008b50       ??_C@_1M@NCHEJOPO@?$AAc?$AAz?$AAe?$AAc?$AAh?$AA?$AA@ 000000018003bb50     LIBCMT:getqloc.obj
 0002:00008b60       ??_C@_1BA@BKPAPBLA@?$AAe?$AAn?$AAg?$AAl?$AAa?$AAn?$AAd?$AA?$AA@ 000000018003bb60     LIBCMT:getqloc.obj
 0002:00008b70       ??_C@_1BM@HKBCKIPC@?$AAg?$AAr?$AAe?$AAa?$AAt?$AA?5?$AAb?$AAr?$AAi?$AAt?$AAa?$AAi?$AAn?$AA?$AA@ 000000018003bb70     LIBCMT:getqloc.obj
 0002:00008b90       ??_C@_1BA@PPCHPGJB@?$AAh?$AAo?$AAl?$AAl?$AAa?$AAn?$AAd?$AA?$AA@ 000000018003bb90     LIBCMT:getqloc.obj
 0002:00008ba0       ??_C@_1BE@JBMPEGDG@?$AAh?$AAo?$AAn?$AAg?$AA?9?$AAk?$AAo?$AAn?$AAg?$AA?$AA@ 000000018003bba0     LIBCMT:getqloc.obj
 0002:00008bb8       ??_C@_1BI@KOELBBPJ@?$AAn?$AAe?$AAw?$AA?9?$AAz?$AAe?$AAa?$AAl?$AAa?$AAn?$AAd?$AA?$AA@ 000000018003bbb8     LIBCMT:getqloc.obj
 0002:00008bd0       ??_C@_15HIEBHAIO@?$AAn?$AAz?$AA?$AA@ 000000018003bbd0     LIBCMT:getqloc.obj
 0002:00008bd8       ??_C@_1BC@CHBCPFPI@?$AAp?$AAr?$AA?5?$AAc?$AAh?$AAi?$AAn?$AAa?$AA?$AA@ 000000018003bbd8     LIBCMT:getqloc.obj
 0002:00008bf0       ??_C@_1BC@JAOIIFKD@?$AAp?$AAr?$AA?9?$AAc?$AAh?$AAi?$AAn?$AAa?$AA?$AA@ 000000018003bbf0     LIBCMT:getqloc.obj
 0002:00008c08       ??_C@_1BI@BEHPPHKC@?$AAp?$AAu?$AAe?$AAr?$AAt?$AAo?$AA?9?$AAr?$AAi?$AAc?$AAo?$AA?$AA@ 000000018003bc08     LIBCMT:getqloc.obj
 0002:00008c20       ??_C@_1O@PAEOFKDI@?$AAs?$AAl?$AAo?$AAv?$AAa?$AAk?$AA?$AA@ 000000018003bc20     LIBCMT:getqloc.obj
 0002:00008c30       ??_C@_1BK@FIHMCKAM@?$AAs?$AAo?$AAu?$AAt?$AAh?$AA?5?$AAa?$AAf?$AAr?$AAi?$AAc?$AAa?$AA?$AA@ 000000018003bc30     LIBCMT:getqloc.obj
 0002:00008c50       ??_C@_1BI@NAEOODKB@?$AAs?$AAo?$AAu?$AAt?$AAh?$AA?5?$AAk?$AAo?$AAr?$AAe?$AAa?$AA?$AA@ 000000018003bc50     LIBCMT:getqloc.obj
 0002:00008c68       ??_C@_1BK@FBDGGIFF@?$AAs?$AAo?$AAu?$AAt?$AAh?$AA?9?$AAa?$AAf?$AAr?$AAi?$AAc?$AAa?$AA?$AA@ 000000018003bc68     LIBCMT:getqloc.obj
 0002:00008c88       ??_C@_1BI@GHLEJDPK@?$AAs?$AAo?$AAu?$AAt?$AAh?$AA?9?$AAk?$AAo?$AAr?$AAe?$AAa?$AA?$AA@ 000000018003bc88     LIBCMT:getqloc.obj
 0002:00008ca0       ??_C@_1CE@PLHLOMJF@?$AAt?$AAr?$AAi?$AAn?$AAi?$AAd?$AAa?$AAd?$AA?5?$AA?$CG?$AA?5?$AAt?$AAo?$AAb?$AAa?$AAg?$AAo?$AA?$AA@ 000000018003bca0     LIBCMT:getqloc.obj
 0002:00008cc8       ??_C@_1BO@MODIMHHI@?$AAu?$AAn?$AAi?$AAt?$AAe?$AAd?$AA?9?$AAk?$AAi?$AAn?$AAg?$AAd?$AAo?$AAm?$AA?$AA@ 000000018003bcc8     LIBCMT:getqloc.obj
 0002:00008ce8       ??_C@_1BM@FFHJONBJ@?$AAu?$AAn?$AAi?$AAt?$AAe?$AAd?$AA?9?$AAs?$AAt?$AAa?$AAt?$AAe?$AAs?$AA?$AA@ 000000018003bce8     LIBCMT:getqloc.obj
 0002:00008d04       __rg_language_count        000000018003bd04     LIBCMT:getqloc.obj
 0002:00008d08       __rg_country_count         000000018003bd08     LIBCMT:getqloc.obj
 0002:00008d10       ??_C@_17DNCLJFIF@?$AAA?$AAC?$AAP?$AA?$AA@ 000000018003bd10     LIBCMT:getqloc.obj
 0002:00008d18       ??_C@_17CIKBIHLH@?$AAO?$AAC?$AAP?$AA?$AA@ 000000018003bd18     LIBCMT:getqloc.obj
 0002:00008d20       __rglangidNotDefault       000000018003bd20     LIBCMT:getqloc_downlevel.obj
 0002:00008d34       ??_C@_06PGGFOGJG@1?$CDSNAN?$AA@ 000000018003bd34     LIBCMT:x10fout.obj
 0002:00008d3c       ??_C@_05PHHOCPM@1?$CDIND?$AA@ 000000018003bd3c     LIBCMT:x10fout.obj
 0002:00008d44       ??_C@_05DNEBIAHO@1?$CDINF?$AA@ 000000018003bd44     LIBCMT:x10fout.obj
 0002:00008d4c       ??_C@_06IMKFLFPG@1?$CDQNAN?$AA@ 000000018003bd4c     LIBCMT:x10fout.obj
 0002:00008d58       ??_C@_1BA@BALFACEM@?$AAC?$AAO?$AAN?$AAO?$AAU?$AAT?$AA$?$AA?$AA@ 000000018003bd58     LIBCMT:initcon.obj
 0002:00008d68       ??_C@_0BA@JFNIOLAK@string?5too?5long?$AA@ 000000018003bd68     binding.obj
 0002:00008d80       ??_C@_1MI@GBEMKFCK@?$AAe?$AA?3?$AA?2?$AAk?$AAm?$AAl?$AAc?$AA?2?$AAs?$AAi?$AAg?$AAn?$AAa?$AAl?$AA?2?$AAt?$AAo?$AAn?$AAg?$AAa?$AAn?$AA_?$AAs?$AAi?$AAg?$AAn?$AAa?$AAl?$AA?2?$AAn?$AAo?$AAd@ 000000018003bd80     binding.obj
 0002:00008e50       ??_C@_1FK@CBGIJHDF@?$AAv?$AAa?$AAl?$AAu?$AAe?$AA?4?$AAs?$AAi?$AAz?$AAe?$AA?$CI?$AA?$CJ?$AA?5?$AA?$DM?$AA?$DN?$AA?5?$AAI?$AAN?$AAT?$AA_?$AAM?$AAA?$AAX?$AA?5?$AA?$CG?$AA?$CG?$AA?5?$AA?$CC?$AAs?$AAt?$AAr?$AAi@ 000000018003be50     binding.obj
 0002:00008eb0       ??_C@_0BB@IKBIFPPL@builtin?4features?$AA@ 000000018003beb0     binding.obj
 0002:00008ec8       ??_C@_0BG@JLPIEFEK@ErrorCode?3?3ERR__BEGIN?$AA@ 000000018003bec8     binding.obj
 0002:00008ee0       ??_C@_0BI@FCCMFLDC@ErrorCode?3?3ERR__BAD_MSG?$AA@ 000000018003bee0     binding.obj
 0002:00008ef8       ??_C@_0CA@PLJDDKOA@ErrorCode?3?3ERR__BAD_COMPRESSION?$AA@ 000000018003bef8     binding.obj
 0002:00008f18       ??_C@_0BI@MAAIFHJG@ErrorCode?3?3ERR__DESTROY?$AA@ 000000018003bf18     binding.obj
 0002:00008f30       ??_C@_0BF@OIHOIP@ErrorCode?3?3ERR__FAIL?$AA@ 000000018003bf30     binding.obj
 0002:00008f48       ??_C@_0BK@CNFKMLHO@ErrorCode?3?3ERR__TRANSPORT?$AA@ 000000018003bf48     binding.obj
 0002:00008f68       ??_C@_0CC@IOMMNDPE@ErrorCode?3?3ERR__CRIT_SYS_RESOURC@ 000000018003bf68     binding.obj
 0002:00008f90       ??_C@_0BI@CIKKCMKH@ErrorCode?3?3ERR__RESOLVE?$AA@ 000000018003bf90     binding.obj
 0002:00008fa8       ??_C@_0BO@EKAHMPGI@ErrorCode?3?3ERR__MSG_TIMED_OUT?$AA@ 000000018003bfa8     binding.obj
 0002:00008fc8       ??_C@_0BO@PAAIOGNL@ErrorCode?3?3ERR__PARTITION_EOF?$AA@ 000000018003bfc8     binding.obj
 0002:00008fe8       ??_C@_0CC@NFGNMCI@ErrorCode?3?3ERR__UNKNOWN_PARTITIO@ 000000018003bfe8     binding.obj
 0002:00009010       ??_C@_0BD@LBKPLKOM@ErrorCode?3?3ERR__FS?$AA@ 000000018003c010     binding.obj
 0002:00009028       ??_C@_0BO@LCLFGNB@ErrorCode?3?3ERR__UNKNOWN_TOPIC?$AA@ 000000018003c028     binding.obj
 0002:00009048       ??_C@_0CB@LBCLLLGF@ErrorCode?3?3ERR__ALL_BROKERS_DOWN@ 000000018003c048     binding.obj
 0002:00009070       ??_C@_0BM@ODNHMHBN@ErrorCode?3?3ERR__INVALID_ARG?$AA@ 000000018003c070     binding.obj
 0002:00009090       ??_C@_0BK@MPKLOFBA@ErrorCode?3?3ERR__TIMED_OUT?$AA@ 000000018003c090     binding.obj
 0002:000090b0       ??_C@_0BL@HDEAHOJC@ErrorCode?3?3ERR__QUEUE_FULL?$AA@ 000000018003c0b0     binding.obj
 0002:000090d0       ??_C@_0BL@GDFINGMP@ErrorCode?3?3ERR__ISR_INSUFF?$AA@ 000000018003c0d0     binding.obj
 0002:000090f0       ??_C@_0BM@MDPAMJNH@ErrorCode?3?3ERR__NODE_UPDATE?$AA@ 000000018003c0f0     binding.obj
 0002:00009110       ??_C@_0BE@JCAGKGEN@ErrorCode?3?3ERR__SSL?$AA@ 000000018003c110     binding.obj
 0002:00009128       ??_C@_0BL@MEEBLGFB@ErrorCode?3?3ERR__WAIT_COORD?$AA@ 000000018003c128     binding.obj
 0002:00009148       ??_C@_0BO@GKLACJJI@ErrorCode?3?3ERR__UNKNOWN_GROUP?$AA@ 000000018003c148     binding.obj
 0002:00009168       ??_C@_0BM@HAJCDAOM@ErrorCode?3?3ERR__IN_PROGRESS?$AA@ 000000018003c168     binding.obj
 0002:00009188       ??_C@_0CB@IPODIPLB@ErrorCode?3?3ERR__PREV_IN_PROGRESS@ 000000018003c188     binding.obj
 0002:000091b0       ??_C@_0CG@IKHBIDPC@ErrorCode?3?3ERR__EXISTING_SUBSCRI@ 000000018003c1b0     binding.obj
 0002:000091d8       ??_C@_0CC@EGLDFPKJ@ErrorCode?3?3ERR__ASSIGN_PARTITION@ 000000018003c1d8     binding.obj
 0002:00009200       ??_C@_0CC@KHGMNHMM@ErrorCode?3?3ERR__REVOKE_PARTITION@ 000000018003c200     binding.obj
 0002:00009228       ??_C@_0BJ@JBMHNJHA@ErrorCode?3?3ERR__CONFLICT?$AA@ 000000018003c228     binding.obj
 0002:00009248       ??_C@_0BG@NMJDJMHC@ErrorCode?3?3ERR__STATE?$AA@ 000000018003c248     binding.obj
 0002:00009260       ??_C@_0CB@DDMBAECM@ErrorCode?3?3ERR__UNKNOWN_PROTOCOL@ 000000018003c260     binding.obj
 0002:00009288       ??_C@_0CA@KAOKABFC@ErrorCode?3?3ERR__NOT_IMPLEMENTED?$AA@ 000000018003c288     binding.obj
 0002:000092a8       ??_C@_0BP@NKDMBOEM@ErrorCode?3?3ERR__AUTHENTICATION?$AA@ 000000018003c2a8     binding.obj
 0002:000092c8       ??_C@_0BK@DAACPLAM@ErrorCode?3?3ERR__NO_OFFSET?$AA@ 000000018003c2c8     binding.obj
 0002:000092e8       ??_C@_0BJ@ECEABM@ErrorCode?3?3ERR__OUTDATED?$AA@ 000000018003c2e8     binding.obj
 0002:00009308       ??_C@_0BE@DLFDBECF@ErrorCode?3?3ERR__END?$AA@ 000000018003c308     binding.obj
 0002:00009320       ??_C@_0BH@KPIOIANO@ErrorCode?3?3ERR_UNKNOWN?$AA@ 000000018003c320     binding.obj
 0002:00009338       ??_C@_0BI@FMEMBDJP@ErrorCode?3?3ERR_NO_ERROR?$AA@ 000000018003c338     binding.obj
 0002:00009350       ??_C@_0CD@HFCEBKLK@ErrorCode?3?3ERR_OFFSET_OUT_OF_RAN@ 000000018003c350     binding.obj
 0002:00009378       ??_C@_0BL@NKCGOJKF@ErrorCode?3?3ERR_INVALID_MSG?$AA@ 000000018003c378     binding.obj
 0002:00009398       ??_C@_0CF@NCMOKN@ErrorCode?3?3ERR_UNKNOWN_TOPIC_OR_@ 000000018003c398     binding.obj
 0002:000093c0       ??_C@_0CA@NMPFABDL@ErrorCode?3?3ERR_INVALID_MSG_SIZE?$AA@ 000000018003c3c0     binding.obj
 0002:000093e0       ??_C@_0CE@PCNEJOF@ErrorCode?3?3ERR_LEADER_NOT_AVAILA@ 000000018003c3e0     binding.obj
 0002:00009408       ??_C@_0CI@HOOAOAAO@ErrorCode?3?3ERR_NOT_LEADER_FOR_PA@ 000000018003c408     binding.obj
 0002:00009430       ??_C@_0CB@CMKGIGFJ@ErrorCode?3?3ERR_REQUEST_TIMED_OUT@ 000000018003c430     binding.obj
 0002:00009458       ??_C@_0CE@LPGCPKBN@ErrorCode?3?3ERR_BROKER_NOT_AVAILA@ 000000018003c458     binding.obj
 0002:00009480       ??_C@_0CF@NPPLILDK@ErrorCode?3?3ERR_REPLICA_NOT_AVAIL@ 000000018003c480     binding.obj
 0002:000094a8       ??_C@_0CC@PHMOBDFD@ErrorCode?3?3ERR_MSG_SIZE_TOO_LARG@ 000000018003c4a8     binding.obj
 0002:000094d0       ??_C@_0CA@NCOCBBOO@ErrorCode?3?3ERR_STALE_CTRL_EPOCH?$AA@ 000000018003c4d0     binding.obj
 0002:000094f0       ??_C@_0CJ@OAPALGAP@ErrorCode?3?3ERR_OFFSET_METADATA_T@ 000000018003c4f0     binding.obj
 0002:00009520       ??_C@_0CB@LADDOCLE@ErrorCode?3?3ERR_NETWORK_EXCEPTION@ 000000018003c520     binding.obj
 0002:00009548       ??_C@_0CG@BNFGAFDI@ErrorCode?3?3ERR_GROUP_LOAD_IN_PRO@ 000000018003c548     binding.obj
 0002:00009570       ??_C@_0CP@HBIALBPH@ErrorCode?3?3ERR_GROUP_COORDINATOR@ 000000018003c570     binding.obj
 0002:000095a0       ??_C@_0CJ@GBLFNAAD@ErrorCode?3?3ERR_NOT_COORDINATOR_F@ 000000018003c5a0     binding.obj
 0002:000095d0       ??_C@_0BP@DJJENCD@ErrorCode?3?3ERR_TOPIC_EXCEPTION?$AA@ 000000018003c5d0     binding.obj
 0002:000095f0       ??_C@_0CF@JEMCINJN@ErrorCode?3?3ERR_RECORD_LIST_TOO_L@ 000000018003c5f0     binding.obj
 0002:00009618       ??_C@_0CD@DJLMDDPD@ErrorCode?3?3ERR_NOT_ENOUGH_REPLIC@ 000000018003c618     binding.obj
 0002:00009640       ??_C@_0DA@DPCCGAKH@ErrorCode?3?3ERR_NOT_ENOUGH_REPLIC@ 000000018003c640     binding.obj
 0002:00009670       ??_C@_0CF@DEMHIBNP@ErrorCode?3?3ERR_INVALID_REQUIRED_@ 000000018003c670     binding.obj
 0002:00009698       ??_C@_0CC@CLLKBLDL@ErrorCode?3?3ERR_ILLEGAL_GENERATIO@ 000000018003c698     binding.obj
 0002:000096c0       ??_C@_0CL@IBLADMCN@ErrorCode?3?3ERR_INCONSISTENT_GROU@ 000000018003c6c0     binding.obj
 0002:000096f0       ??_C@_0CA@CCKMLIMB@ErrorCode?3?3ERR_INVALID_GROUP_ID?$AA@ 000000018003c6f0     binding.obj
 0002:00009710       ??_C@_0CB@MAKCPPMC@ErrorCode?3?3ERR_UNKNOWN_MEMBER_ID@ 000000018003c710     binding.obj
 0002:00009738       ??_C@_0CH@IFDLGLNL@ErrorCode?3?3ERR_INVALID_SESSION_T@ 000000018003c738     binding.obj
 0002:00009760       ??_C@_0CF@HLLILDKC@ErrorCode?3?3ERR_REBALANCE_IN_PROG@ 000000018003c760     binding.obj
 0002:00009788       ??_C@_0CK@HEACMMNC@ErrorCode?3?3ERR_INVALID_COMMIT_OF@ 000000018003c788     binding.obj
 0002:000097b8       ??_C@_0CK@DHPKANFC@ErrorCode?3?3ERR_TOPIC_AUTHORIZATI@ 000000018003c7b8     binding.obj
 0002:000097e8       ??_C@_0CK@OBFDOHJF@ErrorCode?3?3ERR_GROUP_AUTHORIZATI@ 000000018003c7e8     binding.obj
 0002:00009818       ??_C@_0CM@PBPLOCKM@ErrorCode?3?3ERR_CLUSTER_AUTHORIZA@ 000000018003c818     binding.obj
 0002:00009848       ??_C@_0CA@EKHEPIOO@ErrorCode?3?3ERR__TIMED_OUT_QUEUE?$AA@ 000000018003c848     binding.obj
 0002:00009868       ??_C@_05CFHFIAJO@codes?$AA@ 000000018003c868     binding.obj
 0002:00009870       ??_C@_07NDFBNMON@err2str?$AA@ 000000018003c870     binding.obj
 0002:00009878       ??_C@_08KJPMJBHA@features?$AA@ 000000018003c878     binding.obj
 0002:00009888       ??_C@_0BC@DIPIDPDK@librdkafkaVersion?$AA@ 000000018003c888     binding.obj
 0002:000098a0       ??_C@_0BC@OMDPIAIO@?4?4?2src?2binding?4cc?$AA@ 000000018003c8a0     binding.obj
 0002:000098b4       ??_C@_05KOHFCJMA@kafka?$AA@ 000000018003c8b4     binding.obj
 0002:000098c0       ??_C@_0BI@CFPLBAOH@invalid?5string?5position?$AA@ 000000018003c8c0     binding.obj
 0002:000098d8       ??_C@_00CNPNBAHC@?$AA@     000000018003c8d8     callbacks.obj
 0002:000098e0       ??_C@_1JM@PPNDOACG@?$AAE?$AA?3?$AA?2?$AAk?$AAm?$AAl?$AAc?$AA?2?$AAs?$AAi?$AAg?$AAn?$AAa?$AAl?$AA?2?$AAt?$AAo?$AAn?$AAg?$AAa?$AAn?$AA_?$AAs?$AAi?$AAg?$AAn?$AAa?$AAl?$AA?2?$AAn?$AAo?$AAd@ 000000018003c8e0     callbacks.obj
 0002:00009980       ??_C@_1FM@LOELJOFK@?$AAs?$AAi?$AAz?$AAe?$AA?5?$AA?$DM?$AA?$DN?$AA?5?$AAi?$AAm?$AAp?$AA?3?$AA?3?$AAk?$AAM?$AAa?$AAx?$AAL?$AAe?$AAn?$AAg?$AAt?$AAh?$AA?5?$AA?$CG?$AA?$CG?$AA?5?$AA?$CC?$AAt?$AAo?$AAo?$AA?5@ 000000018003c980     callbacks.obj
 0002:000099dc       ??_C@_05KHAFJJEA@topic?$AA@ 000000018003c9dc     callbacks.obj
 0002:000099e8       ??_C@_09IKAEIPAD@partition?$AA@ 000000018003c9e8     callbacks.obj
 0002:000099f4       ??_C@_06KLHHMIGM@offset?$AA@ 000000018003c9f4     callbacks.obj
 0002:000099fc       ??_C@_05KKCIMGE@error?$AA@ 000000018003c9fc     callbacks.obj
 0002:00009a04       ??_C@_05BLKJBNOD@stats?$AA@ 000000018003ca04     callbacks.obj
 0002:00009a10       ??_C@_07ONPBMBOP@message?$AA@ 000000018003ca10     callbacks.obj
 0002:00009a18       ??_C@_03MGHMBJCF@log?$AA@  000000018003ca18     callbacks.obj
 0002:00009a20       ??_C@_08PHGLMIHD@severity?$AA@ 000000018003ca20     callbacks.obj
 0002:00009a2c       ??_C@_03MHDDBBEP@fac?$AA@  000000018003ca2c     callbacks.obj
 0002:00009a30       ??_C@_08IEKKGCGJ@throttle?$AA@ 000000018003ca30     callbacks.obj
 0002:00009a40       ??_C@_0N@GAHIKCIO@throttleTime?$AA@ 000000018003ca40     callbacks.obj
 0002:00009a50       ??_C@_0L@MDJPLIIA@brokerName?$AA@ 000000018003ca50     callbacks.obj
 0002:00009a60       ??_C@_08HEOFJPMN@brokerId?$AA@ 000000018003ca60     callbacks.obj
 0002:00009a6c       ??_C@_05GFHEIIDD@event?$AA@ 000000018003ca6c     callbacks.obj
 0002:00009a74       ??_C@_03ICHNJLJF@key?$AA@  000000018003ca74     callbacks.obj
 0002:00009a78       ??_C@_06CJCOLNBB@opaque?$AA@ 000000018003ca78     callbacks.obj
 0002:00009a80       ??_C@_05MFEJDJP@value?$AA@ 000000018003ca80     callbacks.obj
 0002:00009a88       ??_C@_04IAGNFIBA@size?$AA@ 000000018003ca88     callbacks.obj
 0002:00009a90       ??_C@_0BD@OLBABOEK@vector?$DMT?$DO?5too?5long?$AA@ 000000018003ca90     callbacks.obj
 0002:00009ab0       ??_7EventDispatcher@Callbacks@NodeKafka@@6B@ 000000018003cab0     callbacks.obj
 0002:00009ac0       ??_7OffsetCommitDispatcher@Callbacks@NodeKafka@@6B@ 000000018003cac0     callbacks.obj
 0002:00009ad0       ??_7Partitioner@Callbacks@NodeKafka@@6B@ 000000018003cad0     callbacks.obj
 0002:00009ae8       ??_7OffsetCommit@Callbacks@NodeKafka@@6B@ 000000018003cae8     callbacks.obj
 0002:00009b00       ??_7RebalanceDispatcher@Callbacks@NodeKafka@@6B@ 000000018003cb00     callbacks.obj
 0002:00009b10       ??_7Event@Callbacks@NodeKafka@@6B@ 000000018003cb10     callbacks.obj
 0002:00009b28       ??_7Delivery@Callbacks@NodeKafka@@6B@ 000000018003cb28     callbacks.obj
 0002:00009b40       ??_7Rebalance@Callbacks@NodeKafka@@6B@ 000000018003cb40     callbacks.obj
 0002:00009b58       ??_7Dispatcher@Callbacks@NodeKafka@@6B@ 000000018003cb58     callbacks.obj
 0002:00009b68       ??_7DeliveryReportDispatcher@Callbacks@NodeKafka@@6B@ 000000018003cb68     callbacks.obj
 0002:00009b70       ??_C@_0BC@BDKFLDHL@unknown?5exception?$AA@ 000000018003cb70     common.obj
 0002:00009b88       ??_C@_0BA@ELKIONDK@bad?5locale?5name?$AA@ 000000018003cb88     common.obj
 0002:00009b98       ??_C@_02LMMGGCAJ@?3?5?$AA@ 000000018003cb98     common.obj
 0002:00009ba0       ??_C@_0BF@PHHKMMFD@ios_base?3?3badbit?5set?$AA@ 000000018003cba0     common.obj
 0002:00009bb8       ??_C@_0BG@FMKFHCIL@ios_base?3?3failbit?5set?$AA@ 000000018003cbb8     common.obj
 0002:00009bd0       ??_C@_0BF@OOHOMBOF@ios_base?3?3eofbit?5set?$AA@ 000000018003cbd0     common.obj
 0002:00009be8       ??_C@_1BO@OPFMAOCA@?$AAl?$AAe?$AAn?$AA?5?$AA?$DM?$AA?$DN?$AA?5?$AAI?$AAN?$AAT?$AA_?$AAM?$AAA?$AAX?$AA?$AA@ 000000018003cbe8     common.obj
 0002:00009c08       ??_C@_1BE@CKDJNAPC@?$AAs?$AAt?$AAr?$AA_?$AA?5?$AA?$CB?$AA?$DN?$AA?5?$AA0?$AA?$AA@ 000000018003cc08     common.obj
 0002:00009c1c       ??_C@_02KLLMIGEE@?$CF?5?$AA@ 000000018003cc1c     common.obj
 0002:00009c20       ??_C@_02EGCJHIOB@id?$AA@   000000018003cc20     common.obj
 0002:00009c24       ??_C@_04OODOLJMA@host?$AA@ 000000018003cc24     common.obj
 0002:00009c2c       ??_C@_04LPGMAPLE@port?$AA@ 000000018003cc2c     common.obj
 0002:00009c34       ??_C@_04MEMAJGDJ@name?$AA@ 000000018003cc34     common.obj
 0002:00009c3c       ??_C@_06DFLPLEOP@leader?$AA@ 000000018003cc3c     common.obj
 0002:00009c48       ??_C@_08DMEAHHCE@replicas?$AA@ 000000018003cc48     common.obj
 0002:00009c54       ??_C@_04IHBCIEKH@isrs?$AA@ 000000018003cc54     common.obj
 0002:00009c60       ??_C@_0L@JNJBHPAA@partitions?$AA@ 000000018003cc60     common.obj
 0002:00009c70       ??_C@_0P@IOJOIIPF@orig_broker_id?$AA@ 000000018003cc70     common.obj
 0002:00009c80       ??_C@_0BB@FHNDHLMH@orig_broker_name?$AA@ 000000018003cc80     common.obj
 0002:00009c94       ??_C@_06HCGJGODM@topics?$AA@ 000000018003cc94     common.obj
 0002:00009ca0       ??_C@_07DLDLCMLL@brokers?$AA@ 000000018003cca0     common.obj
 0002:00009ca8       ??_C@_09OMDJNLDP@timestamp?$AA@ 000000018003cca8     common.obj
 0002:00009cc0       ??_7runtime_error@std@@6B@ 000000018003ccc0     common.obj
 0002:00009ce0       ??_7failure@ios_base@std@@6B@ 000000018003cce0     common.obj
 0002:00009d00       ??_7exception@stdext@@6B@  000000018003cd00     common.obj
 0002:00009d20       ??_7_System_error@std@@6B@ 000000018003cd20     common.obj
 0002:00009d38       ??_C@_0N@IAFGCIFB@rebalance_cb?$AA@ 000000018003cd38     config.obj
 0002:00009d48       ??_C@_0BB@HFKDGBCN@offset_commit_cb?$AA@ 000000018003cd48     config.obj
 0002:00009d68       ??_7ObjectWrap@Nan@@6B@    000000018003cd68     connection.obj
 0002:00009d88       ??_7Connection@NodeKafka@@6B@ 000000018003cd88     connection.obj
 0002:00009db0       ??_C@_1DG@OKCGPKIB@?$AAp?$AAe?$AAr?$AAs?$AAi?$AAs?$AAt?$AAe?$AAn?$AAt?$AA?$CI?$AA?$CJ?$AA?4?$AAI?$AAs?$AAN?$AAe?$AAa?$AAr?$AAD?$AAe?$AAa?$AAt?$AAh?$AA?$CI?$AA?$CJ?$AA?$AA@ 000000018003cdb0     connection.obj
 0002:00009de8       ??_C@_1DA@FBGAEOIO@?$AA?$CB?$AAp?$AAe?$AAr?$AAs?$AAi?$AAs?$AAt?$AAe?$AAn?$AAt?$AA?$CI?$AA?$CJ?$AA?4?$AAI?$AAs?$AAE?$AAm?$AAp?$AAt?$AAy?$AA?$CI?$AA?$CJ?$AA?$AA@ 000000018003cde8     connection.obj
 0002:00009e18       ??_C@_1CO@JCKLEFMA@?$AA?$CB?$AAp?$AAe?$AAr?$AAs?$AAi?$AAs?$AAt?$AAe?$AAn?$AAt?$AA?$CI?$AA?$CJ?$AA?4?$AAI?$AAs?$AAW?$AAe?$AAa?$AAk?$AA?$CI?$AA?$CJ?$AA?$AA@ 000000018003ce18     connection.obj
 0002:00009e48       ??_C@_1BE@GMLLOIPJ@?$AAr?$AAe?$AAf?$AAs?$AA_?$AA?5?$AA?$DO?$AA?5?$AA0?$AA?$AA@ 000000018003ce48     connection.obj
 0002:00009e60       ??_C@_1CC@GBFLAAPF@?$AAw?$AAr?$AAa?$AAp?$AA?9?$AA?$DO?$AAr?$AAe?$AAf?$AAs?$AA_?$AA?5?$AA?$DN?$AA?$DN?$AA?5?$AA0?$AA?$AA@ 000000018003ce60     connection.obj
 0002:00009e88       ??_C@_1DI@ELDBKNAK@?$AAw?$AAr?$AAa?$AAp?$AA?9?$AA?$DO?$AAh?$AAa?$AAn?$AAd?$AAl?$AAe?$AA_?$AA?4?$AAI?$AAs?$AAN?$AAe?$AAa?$AAr?$AAD?$AAe?$AAa?$AAt?$AAh?$AA?$CI?$AA?$CJ?$AA?$AA@ 000000018003ce88     connection.obj
 0002:00009ec0       ??_C@_1LE@PBGIMABI@?$AAe?$AA?3?$AA?2?$AAk?$AAm?$AAl?$AAc?$AA?2?$AAs?$AAi?$AAg?$AAn?$AAa?$AAl?$AA?2?$AAt?$AAo?$AAn?$AAg?$AAa?$AAn?$AA_?$AAs?$AAi?$AAg?$AAn?$AAa?$AAl?$AA?2?$AAn?$AAo?$AAd@ 000000018003cec0     connection.obj
 0002:00009f80       ??_C@_1EC@MGGLMBLC@?$AAo?$AAb?$AAj?$AAe?$AAc?$AAt?$AA?9?$AA?$DO?$AAI?$AAn?$AAt?$AAe?$AAr?$AAn?$AAa?$AAl?$AAF?$AAi?$AAe?$AAl?$AAd?$AAC?$AAo?$AAu?$AAn?$AAt?$AA?$CI?$AA?$CJ?$AA?5?$AA?$DO?$AA?5?$AA0@ 000000018003cf80     connection.obj
 0002:00009fc8       ??_C@_08MCLJPGC@event_cb?$AA@ 000000018003cfc8     connection.obj
 0002:00009fd8       ??_C@_0CE@ILNHGCNL@Second?5parameter?5must?5be?5a?5callb@ 000000018003cfd8     connection.obj
 0002:0000a000       ??_C@_09MAAEEIKC@allTopics?$AA@ 000000018003d000     connection.obj
 0002:0000a010       ??_C@_07DDHNKDGP@timeout?$AA@ 000000018003d010     connection.obj
 0002:0000a018       ??_C@_0CF@LKHKNIEJ@1st?5parameter?5must?5be?5a?5topic?5st@ 000000018003d018     connection.obj
 0002:0000a040       ??_C@_0CJ@JHJNGLMD@2nd?5parameter?5must?5be?5a?5partitio@ 000000018003d040     connection.obj
 0002:0000a070       ??_C@_0CP@KAACANLK@3rd?5parameter?5must?5be?5a?5number?5o@ 000000018003d070     connection.obj
 0002:0000a0a0       ??_C@_0CB@BENOIIIC@4th?5parameter?5must?5be?5a?5callback@ 000000018003d0a0     connection.obj
 0002:0000a0c8       ??_C@_0BL@DKJOLHL@Need?5to?5specify?5a?5callback?$AA@ 000000018003d0c8     connection.obj
 0002:0000a0e8       ??_C@_1CE@LNAGEONJ@?$AA?$CB?$AAo?$AAb?$AAj?$AAe?$AAc?$AAt?$AA?4?$AAI?$AAs?$AAE?$AAm?$AAp?$AAt?$AAy?$AA?$CI?$AA?$CJ?$AA?$AA@ 000000018003d0e8     connection.obj
 0002:0000a10c       ??_C@_04NDFOBODE@code?$AA@ 000000018003d10c     errors.obj
 0002:0000a120       ??_7KafkaConsumer@NodeKafka@@6B@ 000000018003d120     kafka-consumer.obj
 0002:0000a148       ??_C@_1CO@EGNPJLKI@?$AAp?$AAe?$AAr?$AAs?$AAi?$AAs?$AAt?$AAe?$AAn?$AAt?$AA?$CI?$AA?$CJ?$AA?4?$AAI?$AAs?$AAE?$AAm?$AAp?$AAt?$AAy?$AA?$CI?$AA?$CJ?$AA?$AA@ 000000018003d148     kafka-consumer.obj
 0002:0000a178       ??_C@_0BD@JKCEHHPF@default_topic_conf?$AA@ 000000018003d178     kafka-consumer.obj
 0002:0000a190       ??_C@_0BO@GLGBAFFC@KafkaConsumer?5is?5disconnected?$AA@ 000000018003d190     kafka-consumer.obj
 0002:0000a1b0       ??_C@_0BP@CPMBDOCM@KafkaConsumer?5is?5not?5connected?$AA@ 000000018003d1b0     kafka-consumer.obj
 0002:0000a1d0       ??_C@_0BK@FCBFBJAG@Consumer?5is?5not?5connected?$AA@ 000000018003d1d0     kafka-consumer.obj
 0002:0000a1f0       ??_C@_0O@GKJPGJPJ@KafkaConsumer?$AA@ 000000018003d1f0     kafka-consumer.obj
 0002:0000a200       ??_C@_07GEHKHGGA@onEvent?$AA@ 000000018003d200     kafka-consumer.obj
 0002:0000a208       ??_C@_07KAIBNCHO@connect?$AA@ 000000018003d208     kafka-consumer.obj
 0002:0000a210       ??_C@_0L@KKPFIJOL@disconnect?$AA@ 000000018003d210     kafka-consumer.obj
 0002:0000a220       ??_C@_0M@KKKOBKEG@getMetadata?$AA@ 000000018003d220     kafka-consumer.obj
 0002:0000a230       ??_C@_0BG@LMMIHAAG@queryWatermarkOffsets?$AA@ 000000018003d230     kafka-consumer.obj
 0002:0000a248       ??_C@_0BE@CCMNDBCI@getWatermarkOffsets?$AA@ 000000018003d248     kafka-consumer.obj
 0002:0000a260       ??_C@_0N@DCIEFFHI@subscription?$AA@ 000000018003d260     kafka-consumer.obj
 0002:0000a270       ??_C@_09OMPELEIG@subscribe?$AA@ 000000018003d270     kafka-consumer.obj
 0002:0000a280       ??_C@_0M@MKOAFBEF@unsubscribe?$AA@ 000000018003d280     kafka-consumer.obj
 0002:0000a290       ??_C@_0M@NKNAKFIL@consumeLoop?$AA@ 000000018003d290     kafka-consumer.obj
 0002:0000a2a0       ??_C@_07DBKPNIMI@consume?$AA@ 000000018003d2a0     kafka-consumer.obj
 0002:0000a2a8       ??_C@_04EDECCOGL@seek?$AA@ 000000018003d2a8     kafka-consumer.obj
 0002:0000a2b0       ??_C@_05PDJBBECF@pause?$AA@ 000000018003d2b0     kafka-consumer.obj
 0002:0000a2b8       ??_C@_06PLELHCEK@resume?$AA@ 000000018003d2b8     kafka-consumer.obj
 0002:0000a2c0       ??_C@_09IMIJHGPO@committed?$AA@ 000000018003d2c0     kafka-consumer.obj
 0002:0000a2d0       ??_C@_08OAGMDKAF@position?$AA@ 000000018003d2d0     kafka-consumer.obj
 0002:0000a2dc       ??_C@_06IMFOKBKF@assign?$AA@ 000000018003d2dc     kafka-consumer.obj
 0002:0000a2e8       ??_C@_08IIGOFOGG@unassign?$AA@ 000000018003d2e8     kafka-consumer.obj
 0002:0000a2f8       ??_C@_0M@NFKPDEEL@assignments?$AA@ 000000018003d2f8     kafka-consumer.obj
 0002:0000a304       ??_C@_06IFNEBLAJ@commit?$AA@ 000000018003d304     kafka-consumer.obj
 0002:0000a310       ??_C@_0L@HAOAPAOM@commitSync?$AA@ 000000018003d310     kafka-consumer.obj
 0002:0000a320       ??_C@_0N@PCOEHEPG@offsetsStore?$AA@ 000000018003d320     kafka-consumer.obj
 0002:0000a330       ??_C@_0CJ@IPKDMCOA@non?9constructor?5invocation?5not?5s@ 000000018003d330     kafka-consumer.obj
 0002:0000a360       ??_C@_0CP@JEILJKBG@You?5must?5supply?5global?5and?5topic@ 000000018003d360     kafka-consumer.obj
 0002:0000a390       ??_C@_0CM@IPGPHFB@Global?5configuration?5data?5must?5b@ 000000018003d390     kafka-consumer.obj
 0002:0000a3c0       ??_C@_0CG@OEANMBLF@Topic?5configuration?5must?5be?5spec@ 000000018003d3c0     kafka-consumer.obj
 0002:0000a3e8       ??_C@_0CN@JDCLNOPP@Need?5to?5specify?5an?5array?5of?5topi@ 000000018003d3e8     kafka-consumer.obj
 0002:0000a418       ??_C@_0CH@LIPEGELN@Need?5to?5specify?5an?5array?5of?5part@ 000000018003d418     kafka-consumer.obj
 0002:0000a440       ??_C@_0CC@GCHCAJED@Must?5pass?5topic?9partition?5object@ 000000018003d440     kafka-consumer.obj
 0002:0000a468       ??_C@_0CM@FEIEMPIA@Parameter?0?5when?5provided?0?5must?5b@ 000000018003d468     kafka-consumer.obj
 0002:0000a498       ??_C@_0CB@MLLBHOO@First?5parameter?5must?5be?5an?5array@ 000000018003d498     kafka-consumer.obj
 0002:0000a4c0       ??_C@_0DG@OKCAAIPE@Must?5provide?5a?5topic?5partition?0?5@ 000000018003d4c0     kafka-consumer.obj
 0002:0000a4f8       ??_C@_0CC@GOICINAG@Topic?5partition?5must?5be?5an?5objec@ 000000018003d4f8     kafka-consumer.obj
 0002:0000a520       ??_C@_0BK@NPADAGOD@Timeout?5must?5be?5a?5number?4?$AA@ 000000018003d520     kafka-consumer.obj
 0002:0000a540       ??_C@_0BM@FIGLNHDP@Callback?5must?5be?5a?5function?$AA@ 000000018003d540     kafka-consumer.obj
 0002:0000a560       ??_C@_0CB@CIIIMCEP@Invalid?5topic?5partition?5provided@ 000000018003d560     kafka-consumer.obj
 0002:0000a588       ??_C@_0CI@ELKHKCD@Must?5provide?5a?5list?5of?5topic?5par@ 000000018003d588     kafka-consumer.obj
 0002:0000a5b0       ??_C@_0CM@NKPAIEPA@Topic?5partition?5must?5be?5an?5array@ 000000018003d5b0     kafka-consumer.obj
 0002:0000a5e0       ??_C@_0BN@KGKKLFLP@Invalid?5number?5of?5parameters?$AA@ 000000018003d5e0     kafka-consumer.obj
 0002:0000a600       ??_C@_0BK@KKHCFPDE@Need?5to?5specify?5a?5timeout?$AA@ 000000018003d600     kafka-consumer.obj
 0002:0000a620       ??_C@_0CC@FMJIHABO@Parameter?5must?5be?5a?5number?5over?5@ 000000018003d620     kafka-consumer.obj
 0002:0000a648       ??_C@_09PELIHEPK@lowOffset?$AA@ 000000018003d648     kafka-consumer.obj
 0002:0000a658       ??_C@_0L@GOMIJAMG@highOffset?$AA@ 000000018003d658     kafka-consumer.obj
 0002:0000a664       ??_C@_05NAHOMDBH@dr_cb?$AA@ 000000018003d664     producer.obj
 0002:0000a670       ??_C@_08CAPOGIGH@Producer?$AA@ 000000018003d670     producer.obj
 0002:0000a67c       ??_C@_04CLMPBJJH@poll?$AA@ 000000018003d67c     producer.obj
 0002:0000a688       ??_C@_0BB@NFCOIMJO@onDeliveryReport?$AA@ 000000018003d688     producer.obj
 0002:0000a6a0       ??_C@_0P@NEBKAMDK@setPartitioner?$AA@ 000000018003d6a0     producer.obj
 0002:0000a6b0       ??_C@_07NGJAKGDD@produce?$AA@ 000000018003d6b0     producer.obj
 0002:0000a6b8       ??_C@_05GLCAEPFP@flush?$AA@ 000000018003d6b8     producer.obj
 0002:0000a6c0       ??_C@_0DA@OHIABEIO@Need?5to?5specify?5a?5topic?0?5partiti@ 000000018003d6c0     producer.obj
 0002:0000a6f0       ??_C@_0CB@HDAEPOAD@Message?5must?5be?5a?5buffer?5or?5null@ 000000018003d6f0     producer.obj
 0002:0000a718       ??_C@_0BL@OHPBGLFN@Timestamp?5must?5be?5a?5number?$AA@ 000000018003d718     producer.obj
 0002:0000a738       ??_C@_0BJ@NOMCGCKJ@Producer?5is?5disconnected?$AA@ 000000018003d738     producer.obj
 0002:0000a758       ??_C@_0CJ@DKJCLHAC@Need?5to?5specify?5a?5timeout?5and?5a?5@ 000000018003d758     producer.obj
 0002:0000a790       ??_7Producer@NodeKafka@@6B@ 000000018003d790     producer.obj
 0002:0000a7b8       ??_C@_05KAKJJMHG@Topic?$AA@ 000000018003d7b8     topic.obj
 0002:0000a7c0       ??_C@_0BH@PHFBEEI@topic?5name?5is?5required?$AA@ 000000018003d7c0     topic.obj
 0002:0000a7d8       ??_C@_0BM@GPBEPHJB@Topic?5name?5must?5be?5a?5string?$AA@ 000000018003d7d8     topic.obj
 0002:0000a7f8       ??_C@_0CF@EKEFDMDL@Configuration?5data?5must?5be?5speci@ 000000018003d7f8     topic.obj
 0002:0000a828       ??_7Topic@NodeKafka@@6B@   000000018003d828     topic.obj
 0002:0000a848       ??_7KafkaConsumerConsume@Workers@NodeKafka@@6B@ 000000018003d848     workers.obj
 0002:0000a880       ??_7AsyncWorker@Nan@@6B@   000000018003d880     workers.obj
 0002:0000a8b8       ??_7ProducerDisconnect@Workers@NodeKafka@@6B@ 000000018003d8b8     workers.obj
 0002:0000a8f0       ??_7KafkaConsumerSeek@Workers@NodeKafka@@6B@ 000000018003d8f0     workers.obj
 0002:0000a928       ??_7ProducerFlush@Workers@NodeKafka@@6B@ 000000018003d928     workers.obj
 0002:0000a960       ??_7KafkaConsumerConsumeNum@Workers@NodeKafka@@6B@ 000000018003d960     workers.obj
 0002:0000a990       ??_C@_1CE@JBACKEGO@?$AA?4?$AA?4?$AA?2?$AAs?$AAr?$AAc?$AA?2?$AAw?$AAo?$AAr?$AAk?$AAe?$AAr?$AAs?$AA?4?$AAc?$AAc?$AA?$AA@ 000000018003d990     workers.obj
 0002:0000a9b4       ??_C@_13COJANIEC@?$AA0?$AA?$AA@ 000000018003d9b4     workers.obj
 0002:0000a9c0       ??_7KafkaConsumerConsumeLoop@Workers@NodeKafka@@6B@ 000000018003d9c0     workers.obj
 0002:0000aa08       ??_7ErrorAwareWorker@Workers@NodeKafka@@6B@ 000000018003da08     workers.obj
 0002:0000aa40       ??_7MessageWorker@Workers@NodeKafka@@6B@ 000000018003da40     workers.obj
 0002:0000aa88       ??_7ConnectionMetadata@Workers@NodeKafka@@6B@ 000000018003da88     workers.obj
 0002:0000aac0       ??_7ProducerConnect@Workers@NodeKafka@@6B@ 000000018003dac0     workers.obj
 0002:0000aaf8       ??_7KafkaConsumerCommitted@Workers@NodeKafka@@6B@ 000000018003daf8     workers.obj
 0002:0000ab30       ??_7KafkaConsumerDisconnect@Workers@NodeKafka@@6B@ 000000018003db30     workers.obj
 0002:0000ab68       ??_7ConnectionQueryWatermarkOffsets@Workers@NodeKafka@@6B@ 000000018003db68     workers.obj
 0002:0000aba0       ??_7KafkaConsumerConnect@Workers@NodeKafka@@6B@ 000000018003dba0     workers.obj
 0002:0000abd0       ??_C@_08HCOMDCCD@iojs?4exe?$AA@ 000000018003dbd0     win_delay_load_hook.obj
 0002:0000abe0       ??_C@_08JDDNMFDB@node?4exe?$AA@ 000000018003dbe0     win_delay_load_hook.obj
 0002:0000abf0       __real@3ff0000000000000    000000018003dbf0     binding.obj
 0002:0000abf8       __real@4000000000000000    000000018003dbf8     binding.obj
 0002:0000ac00       __real@4008000000000000    000000018003dc00     binding.obj
 0002:0000ac08       __real@4010000000000000    000000018003dc08     binding.obj
 0002:0000ac10       __real@4014000000000000    000000018003dc10     binding.obj
 0002:0000ac18       __real@4018000000000000    000000018003dc18     binding.obj
 0002:0000ac20       __real@401c000000000000    000000018003dc20     binding.obj
 0002:0000ac28       __real@4020000000000000    000000018003dc28     binding.obj
 0002:0000ac30       __real@4022000000000000    000000018003dc30     binding.obj
 0002:0000ac38       __real@4024000000000000    000000018003dc38     binding.obj
 0002:0000ac40       __real@4026000000000000    000000018003dc40     binding.obj
 0002:0000ac48       __real@4028000000000000    000000018003dc48     binding.obj
 0002:0000ac50       __real@402a000000000000    000000018003dc50     binding.obj
 0002:0000ac58       __real@402c000000000000    000000018003dc58     binding.obj
 0002:0000ac60       __real@402e000000000000    000000018003dc60     binding.obj
 0002:0000ac68       __real@4030000000000000    000000018003dc68     binding.obj
 0002:0000ac70       __real@4031000000000000    000000018003dc70     binding.obj
 0002:0000ac78       __real@4032000000000000    000000018003dc78     binding.obj
 0002:0000ac80       __real@4033000000000000    000000018003dc80     binding.obj
 0002:0000ac88       __real@4034000000000000    000000018003dc88     binding.obj
 0002:0000ac90       __real@4035000000000000    000000018003dc90     binding.obj
 0002:0000ac98       __real@4036000000000000    000000018003dc98     binding.obj
 0002:0000aca0       __real@4037000000000000    000000018003dca0     binding.obj
 0002:0000aca8       __real@4038000000000000    000000018003dca8     binding.obj
 0002:0000acb0       __real@4039000000000000    000000018003dcb0     binding.obj
 0002:0000acb8       __real@403a000000000000    000000018003dcb8     binding.obj
 0002:0000acc0       __real@403b000000000000    000000018003dcc0     binding.obj
 0002:0000acc8       __real@403c000000000000    000000018003dcc8     binding.obj
 0002:0000acd0       __real@403d000000000000    000000018003dcd0     binding.obj
 0002:0000acd8       __real@403e000000000000    000000018003dcd8     binding.obj
 0002:0000ace0       __real@403f000000000000    000000018003dce0     binding.obj
 0002:0000ace8       __real@43f0000000000000    000000018003dce8     callbacks.obj
 0002:0000acf0       __real@bff0000000000000    000000018003dcf0     binding.obj
 0002:0000acf8       __real@c059000000000000    000000018003dcf8     binding.obj
 0002:0000ad00       __real@c064c00000000000    000000018003dd00     binding.obj
 0002:0000ad08       __real@c064e00000000000    000000018003dd08     binding.obj
 0002:0000ad10       __real@c065000000000000    000000018003dd10     binding.obj
 0002:0000ad18       __real@c065200000000000    000000018003dd18     binding.obj
 0002:0000ad20       __real@c065400000000000    000000018003dd20     binding.obj
 0002:0000ad28       __real@c065600000000000    000000018003dd28     binding.obj
 0002:0000ad30       __real@c065800000000000    000000018003dd30     binding.obj
 0002:0000ad38       __real@c065a00000000000    000000018003dd38     binding.obj
 0002:0000ad40       __real@c065c00000000000    000000018003dd40     binding.obj
 0002:0000ad48       __real@c065e00000000000    000000018003dd48     binding.obj
 0002:0000ad50       __real@c066000000000000    000000018003dd50     binding.obj
 0002:0000ad58       __real@c066200000000000    000000018003dd58     binding.obj
 0002:0000ad60       __real@c066400000000000    000000018003dd60     binding.obj
 0002:0000ad68       __real@c066600000000000    000000018003dd68     binding.obj
 0002:0000ad70       __real@c066800000000000    000000018003dd70     binding.obj
 0002:0000ad78       __real@c066a00000000000    000000018003dd78     binding.obj
 0002:0000ad80       __real@c066c00000000000    000000018003dd80     binding.obj
 0002:0000ad88       __real@c066e00000000000    000000018003dd88     binding.obj
 0002:0000ad90       __real@c067000000000000    000000018003dd90     binding.obj
 0002:0000ad98       __real@c067200000000000    000000018003dd98     binding.obj
 0002:0000ada0       __real@c067400000000000    000000018003dda0     binding.obj
 0002:0000ada8       __real@c067600000000000    000000018003dda8     binding.obj
 0002:0000adb0       __real@c067800000000000    000000018003ddb0     binding.obj
 0002:0000adb8       __real@c067a00000000000    000000018003ddb8     binding.obj
 0002:0000adc0       __real@c067c00000000000    000000018003ddc0     binding.obj
 0002:0000adc8       __real@c067e00000000000    000000018003ddc8     binding.obj
 0002:0000add0       __real@c068000000000000    000000018003ddd0     binding.obj
 0002:0000add8       __real@c068200000000000    000000018003ddd8     binding.obj
 0002:0000ade0       __real@c068400000000000    000000018003dde0     binding.obj
 0002:0000ade8       __real@c068600000000000    000000018003dde8     binding.obj
 0002:0000adf0       __real@c068800000000000    000000018003ddf0     binding.obj
 0002:0000adf8       __real@c068a00000000000    000000018003ddf8     binding.obj
 0002:0000ae00       __real@c068c00000000000    000000018003de00     binding.obj
 0002:0000ae08       __real@c068e00000000000    000000018003de08     binding.obj
 0002:0000ae10       __real@c069000000000000    000000018003de10     binding.obj
 0002:0000ae18       ??_C@_0CB@CGKGGDFI@Access?5violation?5?9?5no?5RTTI?5data?$CB@ 000000018003de18     LIBCMT:rtti.obj
 0002:0000ae40       ??_C@_0BC@JNJNLHBP@Bad?5dynamic_cast?$CB?$AA@ 000000018003de40     LIBCMT:rtti.obj
 0002:0000ae60       _load_config_used          000000018003de60     LIBCMT:loadcfg.obj
 0002:0000af58       ??_R1A@?0A@EA@exception@std@@8 000000018003df58     libcpmt:xthrow.obj
 0002:0000af80       ??_R3exception@std@@8      000000018003df80     libcpmt:xthrow.obj
 0002:0000af98       ??_R2exception@std@@8      000000018003df98     libcpmt:xthrow.obj
 0002:0000afa8       ??_R4bad_alloc@std@@6B@    000000018003dfa8     libcpmt:xthrow.obj
 0002:0000afd0       ??_R3bad_alloc@std@@8      000000018003dfd0     libcpmt:xthrow.obj
 0002:0000afe8       ??_R2bad_alloc@std@@8      000000018003dfe8     libcpmt:xthrow.obj
 0002:0000b000       ??_R1A@?0A@EA@bad_alloc@std@@8 000000018003e000     libcpmt:xthrow.obj
 0002:0000b028       ??_R4logic_error@std@@6B@  000000018003e028     libcpmt:xthrow.obj
 0002:0000b050       ??_R3logic_error@std@@8    000000018003e050     libcpmt:xthrow.obj
 0002:0000b068       ??_R2logic_error@std@@8    000000018003e068     libcpmt:xthrow.obj
 0002:0000b080       ??_R1A@?0A@EA@logic_error@std@@8 000000018003e080     libcpmt:xthrow.obj
 0002:0000b0a8       ??_R4length_error@std@@6B@ 000000018003e0a8     libcpmt:xthrow.obj
 0002:0000b0d0       ??_R3length_error@std@@8   000000018003e0d0     libcpmt:xthrow.obj
 0002:0000b0e8       ??_R2length_error@std@@8   000000018003e0e8     libcpmt:xthrow.obj
 0002:0000b108       ??_R1A@?0A@EA@length_error@std@@8 000000018003e108     libcpmt:xthrow.obj
 0002:0000b130       ??_R4out_of_range@std@@6B@ 000000018003e130     libcpmt:xthrow.obj
 0002:0000b158       ??_R3out_of_range@std@@8   000000018003e158     libcpmt:xthrow.obj
 0002:0000b170       ??_R2out_of_range@std@@8   000000018003e170     libcpmt:xthrow.obj
 0002:0000b190       ??_R1A@?0A@EA@out_of_range@std@@8 000000018003e190     libcpmt:xthrow.obj
 0002:0000b1b8       ??_R4_Locimp@locale@std@@6B@ 000000018003e1b8     libcpmt:locale0.obj
 0002:0000b1e0       ??_R3_Locimp@locale@std@@8 000000018003e1e0     libcpmt:locale0.obj
 0002:0000b1f8       ??_R2_Locimp@locale@std@@8 000000018003e1f8     libcpmt:locale0.obj
 0002:0000b218       ??_R1A@?0A@EA@_Locimp@locale@std@@8 000000018003e218     libcpmt:locale0.obj
 0002:0000b240       ??_R4ios_base@std@@6B@     000000018003e240     libcpmt:cerr.obj
 0002:0000b268       ??_R3ios_base@std@@8       000000018003e268     libcpmt:cerr.obj
 0002:0000b280       ??_R2ios_base@std@@8       000000018003e280     libcpmt:cerr.obj
 0002:0000b298       ??_R1A@?0A@EA@ios_base@std@@8 000000018003e298     libcpmt:cerr.obj
 0002:0000b2c0       ??_R17?0A@EA@?$_Iosb@H@std@@8 000000018003e2c0     libcpmt:cerr.obj
 0002:0000b2e8       ??_R3?$_Iosb@H@std@@8      000000018003e2e8     libcpmt:cerr.obj
 0002:0000b300       ??_R2?$_Iosb@H@std@@8      000000018003e300     libcpmt:cerr.obj
 0002:0000b310       ??_R1A@?0A@EA@?$_Iosb@H@std@@8 000000018003e310     libcpmt:cerr.obj
 0002:0000b338       ??_R4?$basic_ios@DU?$char_traits@D@std@@@std@@6B@ 000000018003e338     libcpmt:cerr.obj
 0002:0000b360       ??_R3?$basic_ios@DU?$char_traits@D@std@@@std@@8 000000018003e360     libcpmt:cerr.obj
 0002:0000b378       ??_R2?$basic_ios@DU?$char_traits@D@std@@@std@@8 000000018003e378     libcpmt:cerr.obj
 0002:0000b398       ??_R1A@?0A@EA@?$basic_ios@DU?$char_traits@D@std@@@std@@8 000000018003e398     libcpmt:cerr.obj
 0002:0000b3c0       ??_R4?$basic_streambuf@DU?$char_traits@D@std@@@std@@6B@ 000000018003e3c0     libcpmt:cerr.obj
 0002:0000b3e8       ??_R3?$basic_streambuf@DU?$char_traits@D@std@@@std@@8 000000018003e3e8     libcpmt:cerr.obj
 0002:0000b400       ??_R2?$basic_streambuf@DU?$char_traits@D@std@@@std@@8 000000018003e400     libcpmt:cerr.obj
 0002:0000b410       ??_R1A@?0A@EA@?$basic_streambuf@DU?$char_traits@D@std@@@std@@8 000000018003e410     libcpmt:cerr.obj
 0002:0000b438       ??_R1A@A@3FA@?$basic_ios@DU?$char_traits@D@std@@@std@@8 000000018003e438     libcpmt:cerr.obj
 0002:0000b460       ??_R1A@A@3EA@ios_base@std@@8 000000018003e460     libcpmt:cerr.obj
 0002:0000b488       ??_R17A@3EA@?$_Iosb@H@std@@8 000000018003e488     libcpmt:cerr.obj
 0002:0000b4b0       ??_R4?$basic_ostream@DU?$char_traits@D@std@@@std@@6B@ 000000018003e4b0     libcpmt:cerr.obj
 0002:0000b4d8       ??_R3?$basic_ostream@DU?$char_traits@D@std@@@std@@8 000000018003e4d8     libcpmt:cerr.obj
 0002:0000b4f0       ??_R2?$basic_ostream@DU?$char_traits@D@std@@@std@@8 000000018003e4f0     libcpmt:cerr.obj
 0002:0000b518       ??_R1A@?0A@EA@?$basic_ostream@DU?$char_traits@D@std@@@std@@8 000000018003e518     libcpmt:cerr.obj
 0002:0000b540       ??_R4?$basic_filebuf@DU?$char_traits@D@std@@@std@@6B@ 000000018003e540     libcpmt:cerr.obj
 0002:0000b568       ??_R3?$basic_filebuf@DU?$char_traits@D@std@@@std@@8 000000018003e568     libcpmt:cerr.obj
 0002:0000b580       ??_R2?$basic_filebuf@DU?$char_traits@D@std@@@std@@8 000000018003e580     libcpmt:cerr.obj
 0002:0000b598       ??_R1A@?0A@EA@?$basic_filebuf@DU?$char_traits@D@std@@@std@@8 000000018003e598     libcpmt:cerr.obj
 0002:0000b5c0       ??_R3codecvt_base@std@@8   000000018003e5c0     libcpmt:cerr.obj
 0002:0000b5d8       ??_R2codecvt_base@std@@8   000000018003e5d8     libcpmt:cerr.obj
 0002:0000b5f8       ??_R1A@?0A@EA@codecvt_base@std@@8 000000018003e5f8     libcpmt:cerr.obj
 0002:0000b620       ??_R4?$codecvt@DDH@std@@6B@ 000000018003e620     libcpmt:cerr.obj
 0002:0000b648       ??_R3?$codecvt@DDH@std@@8  000000018003e648     libcpmt:cerr.obj
 0002:0000b660       ??_R2?$codecvt@DDH@std@@8  000000018003e660     libcpmt:cerr.obj
 0002:0000b688       ??_R1A@?0A@EA@?$codecvt@DDH@std@@8 000000018003e688     libcpmt:cerr.obj
 0002:0000b6b0       ??_R4type_info@@6B@        000000018003e6b0     LIBCMT:typinfo.obj
 0002:0000b6d8       ??_R3type_info@@8          000000018003e6d8     LIBCMT:typinfo.obj
 0002:0000b6f0       ??_R2type_info@@8          000000018003e6f0     LIBCMT:typinfo.obj
 0002:0000b700       ??_R1A@?0A@EA@type_info@@8 000000018003e700     LIBCMT:typinfo.obj
 0002:0000b728       ??_R4exception@std@@6B@    000000018003e728     LIBCMT:stdexcpt.obj
 0002:0000b750       ??_R4bad_cast@std@@6B@     000000018003e750     LIBCMT:stdexcpt.obj
 0002:0000b778       ??_R3bad_cast@std@@8       000000018003e778     LIBCMT:stdexcpt.obj
 0002:0000b790       ??_R2bad_cast@std@@8       000000018003e790     LIBCMT:stdexcpt.obj
 0002:0000b7a8       ??_R1A@?0A@EA@bad_cast@std@@8 000000018003e7a8     LIBCMT:stdexcpt.obj
 0002:0000b7d0       ??_R4bad_typeid@std@@6B@   000000018003e7d0     LIBCMT:stdexcpt.obj
 0002:0000b7f8       ??_R3bad_typeid@std@@8     000000018003e7f8     LIBCMT:stdexcpt.obj
 0002:0000b810       ??_R2bad_typeid@std@@8     000000018003e810     LIBCMT:stdexcpt.obj
 0002:0000b828       ??_R1A@?0A@EA@bad_typeid@std@@8 000000018003e828     LIBCMT:stdexcpt.obj
 0002:0000b850       ??_R4__non_rtti_object@std@@6B@ 000000018003e850     LIBCMT:stdexcpt.obj
 0002:0000b878       ??_R3__non_rtti_object@std@@8 000000018003e878     LIBCMT:stdexcpt.obj
 0002:0000b890       ??_R2__non_rtti_object@std@@8 000000018003e890     LIBCMT:stdexcpt.obj
 0002:0000b8b0       ??_R1A@?0A@EA@__non_rtti_object@std@@8 000000018003e8b0     LIBCMT:stdexcpt.obj
 0002:0000b8d8       ??_R4bad_exception@std@@6B@ 000000018003e8d8     LIBCMT:frame.obj
 0002:0000b900       ??_R3bad_exception@std@@8  000000018003e900     LIBCMT:frame.obj
 0002:0000b918       ??_R2bad_exception@std@@8  000000018003e918     LIBCMT:frame.obj
 0002:0000b930       ??_R1A@?0A@EA@bad_exception@std@@8 000000018003e930     LIBCMT:frame.obj
 0002:0000b958       ??_R2RebalanceCb@RdKafka@@8 000000018003e958     callbacks.obj
 0002:0000b968       ??_R3Rebalance@Callbacks@NodeKafka@@8 000000018003e968     callbacks.obj
 0002:0000b980       ??_R2EventCb@RdKafka@@8    000000018003e980     callbacks.obj
 0002:0000b990       ??_R1A@?0A@EA@Event@Callbacks@NodeKafka@@8 000000018003e990     callbacks.obj
 0002:0000b9b8       ??_R4Delivery@Callbacks@NodeKafka@@6B@ 000000018003e9b8     callbacks.obj
 0002:0000b9e0       ??_R1A@?0A@EA@Dispatcher@Callbacks@NodeKafka@@8 000000018003e9e0     callbacks.obj
 0002:0000ba08       ??_R3PartitionerCb@RdKafka@@8 000000018003ea08     callbacks.obj
 0002:0000ba20       ??_R4RebalanceDispatcher@Callbacks@NodeKafka@@6B@ 000000018003ea20     callbacks.obj
 0002:0000ba48       ??_R2OffsetCommitCb@RdKafka@@8 000000018003ea48     callbacks.obj
 0002:0000ba58       ??_R4Rebalance@Callbacks@NodeKafka@@6B@ 000000018003ea58     callbacks.obj
 0002:0000ba80       ??_R3Partitioner@Callbacks@NodeKafka@@8 000000018003ea80     callbacks.obj
 0002:0000ba98       ??_R1A@?0A@EA@OffsetCommit@Callbacks@NodeKafka@@8 000000018003ea98     callbacks.obj
 0002:0000bac0       ??_R3Delivery@Callbacks@NodeKafka@@8 000000018003eac0     callbacks.obj
 0002:0000bad8       ??_R3RebalanceDispatcher@Callbacks@NodeKafka@@8 000000018003ead8     callbacks.obj
 0002:0000baf0       ??_R1A@?0A@EA@RebalanceDispatcher@Callbacks@NodeKafka@@8 000000018003eaf0     callbacks.obj
 0002:0000bb18       ??_R1A@?0A@EA@EventCb@RdKafka@@8 000000018003eb18     callbacks.obj
 0002:0000bb40       ??_R3OffsetCommitDispatcher@Callbacks@NodeKafka@@8 000000018003eb40     callbacks.obj
 0002:0000bb58       ??_R2Partitioner@Callbacks@NodeKafka@@8 000000018003eb58     callbacks.obj
 0002:0000bb70       ??_R2OffsetCommitDispatcher@Callbacks@NodeKafka@@8 000000018003eb70     callbacks.obj
 0002:0000bb88       ??_R4Dispatcher@Callbacks@NodeKafka@@6B@ 000000018003eb88     callbacks.obj
 0002:0000bbb0       ??_R1A@?0A@EA@EventDispatcher@Callbacks@NodeKafka@@8 000000018003ebb0     callbacks.obj
 0002:0000bbd8       ??_R1A@?0A@EA@Delivery@Callbacks@NodeKafka@@8 000000018003ebd8     callbacks.obj
 0002:0000bc00       ??_R2Dispatcher@Callbacks@NodeKafka@@8 000000018003ec00     callbacks.obj
 0002:0000bc10       ??_R2RebalanceDispatcher@Callbacks@NodeKafka@@8 000000018003ec10     callbacks.obj
 0002:0000bc28       ??_R1A@?0A@EA@PartitionerCb@RdKafka@@8 000000018003ec28     callbacks.obj
 0002:0000bc50       ??_R2DeliveryReportDispatcher@Callbacks@NodeKafka@@8 000000018003ec50     callbacks.obj
 0002:0000bc68       ??_R3Dispatcher@Callbacks@NodeKafka@@8 000000018003ec68     callbacks.obj
 0002:0000bc80       ??_R4DeliveryReportDispatcher@Callbacks@NodeKafka@@6B@ 000000018003ec80     callbacks.obj
 0002:0000bca8       ??_R3EventCb@RdKafka@@8    000000018003eca8     callbacks.obj
 0002:0000bcc0       ??_R4Partitioner@Callbacks@NodeKafka@@6B@ 000000018003ecc0     callbacks.obj
 0002:0000bce8       ??_R3DeliveryReportCb@RdKafka@@8 000000018003ece8     callbacks.obj
 0002:0000bd00       ??_R2DeliveryReportCb@RdKafka@@8 000000018003ed00     callbacks.obj
 0002:0000bd10       ??_R1A@?0A@EA@Partitioner@Callbacks@NodeKafka@@8 000000018003ed10     callbacks.obj
 0002:0000bd38       ??_R3RebalanceCb@RdKafka@@8 000000018003ed38     callbacks.obj
 0002:0000bd50       ??_R3Event@Callbacks@NodeKafka@@8 000000018003ed50     callbacks.obj
 0002:0000bd68       ??_R4OffsetCommitDispatcher@Callbacks@NodeKafka@@6B@ 000000018003ed68     callbacks.obj
 0002:0000bd90       ??_R1A@?0A@EA@Rebalance@Callbacks@NodeKafka@@8 000000018003ed90     callbacks.obj
 0002:0000bdb8       ??_R3OffsetCommit@Callbacks@NodeKafka@@8 000000018003edb8     callbacks.obj
 0002:0000bdd0       ??_R2Event@Callbacks@NodeKafka@@8 000000018003edd0     callbacks.obj
 0002:0000bde8       ??_R2Delivery@Callbacks@NodeKafka@@8 000000018003ede8     callbacks.obj
 0002:0000be00       ??_R2EventDispatcher@Callbacks@NodeKafka@@8 000000018003ee00     callbacks.obj
 0002:0000be18       ??_R4Event@Callbacks@NodeKafka@@6B@ 000000018003ee18     callbacks.obj
 0002:0000be40       ??_R1A@?0A@EA@DeliveryReportDispatcher@Callbacks@NodeKafka@@8 000000018003ee40     callbacks.obj
 0002:0000be68       ??_R3OffsetCommitCb@RdKafka@@8 000000018003ee68     callbacks.obj
 0002:0000be80       ??_R1A@?0A@EA@OffsetCommitDispatcher@Callbacks@NodeKafka@@8 000000018003ee80     callbacks.obj
 0002:0000bea8       ??_R3DeliveryReportDispatcher@Callbacks@NodeKafka@@8 000000018003eea8     callbacks.obj
 0002:0000bec0       ??_R2Rebalance@Callbacks@NodeKafka@@8 000000018003eec0     callbacks.obj
 0002:0000bed8       ??_R4OffsetCommit@Callbacks@NodeKafka@@6B@ 000000018003eed8     callbacks.obj
 0002:0000bf00       ??_R1A@?0A@EA@DeliveryReportCb@RdKafka@@8 000000018003ef00     callbacks.obj
 0002:0000bf28       ??_R1A@?0A@EA@RebalanceCb@RdKafka@@8 000000018003ef28     callbacks.obj
 0002:0000bf50       ??_R3EventDispatcher@Callbacks@NodeKafka@@8 000000018003ef50     callbacks.obj
 0002:0000bf68       ??_R2PartitionerCb@RdKafka@@8 000000018003ef68     callbacks.obj
 0002:0000bf78       ??_R4EventDispatcher@Callbacks@NodeKafka@@6B@ 000000018003ef78     callbacks.obj
 0002:0000bfa0       ??_R2OffsetCommit@Callbacks@NodeKafka@@8 000000018003efa0     callbacks.obj
 0002:0000bfb8       ??_R1A@?0A@EA@OffsetCommitCb@RdKafka@@8 000000018003efb8     callbacks.obj
 0002:0000bfe0       ??_R1A@?0A@EA@_System_error@std@@8 000000018003efe0     common.obj
 0002:0000c008       ??_R4exception@stdext@@6B@ 000000018003f008     common.obj
 0002:0000c030       ??_R3?$ctype@D@std@@8      000000018003f030     common.obj
 0002:0000c048       ??_R3system_error@std@@8   000000018003f048     common.obj
 0002:0000c060       ??_R2facet@locale@std@@8   000000018003f060     common.obj
 0002:0000c078       ??_R3exception@stdext@@8   000000018003f078     common.obj
 0002:0000c090       ??_R2runtime_error@std@@8  000000018003f090     common.obj
 0002:0000c0a8       ??_R2failure@ios_base@std@@8 000000018003f0a8     common.obj
 0002:0000c0d8       ??_R2_Facet_base@std@@8    000000018003f0d8     common.obj
 0002:0000c0e8       ??_R2_System_error@std@@8  000000018003f0e8     common.obj
 0002:0000c108       ??_R2ctype_base@std@@8     000000018003f108     common.obj
 0002:0000c128       ??_R1A@?0A@EA@system_error@std@@8 000000018003f128     common.obj
 0002:0000c150       ??_R4?$ctype@D@std@@6B@    000000018003f150     common.obj
 0002:0000c178       ??_R3facet@locale@std@@8   000000018003f178     common.obj
 0002:0000c190       ??_R3runtime_error@std@@8  000000018003f190     common.obj
 0002:0000c1a8       ??_R3_Facet_base@std@@8    000000018003f1a8     common.obj
 0002:0000c1c0       ??_R1A@?0A@EA@exception@stdext@@8 000000018003f1c0     common.obj
 0002:0000c1e8       ??_R4_Facet_base@std@@6B@  000000018003f1e8     common.obj
 0002:0000c210       ??_R1A@?0A@EA@runtime_error@std@@8 000000018003f210     common.obj
 0002:0000c238       ??_R1A@?0A@EA@failure@ios_base@std@@8 000000018003f238     common.obj
 0002:0000c260       ??_R1A@?0A@EA@ctype_base@std@@8 000000018003f260     common.obj
 0002:0000c288       ??_R1A@?0A@EA@facet@locale@std@@8 000000018003f288     common.obj
 0002:0000c2b0       ??_R1A@?0A@EA@_Facet_base@std@@8 000000018003f2b0     common.obj
 0002:0000c2d8       ??_R3failure@ios_base@std@@8 000000018003f2d8     common.obj
 0002:0000c2f0       ??_R1A@?0A@EA@?$ctype@D@std@@8 000000018003f2f0     common.obj
 0002:0000c318       ??_R3_System_error@std@@8  000000018003f318     common.obj
 0002:0000c330       ??_R2exception@stdext@@8   000000018003f330     common.obj
 0002:0000c340       ??_R2system_error@std@@8   000000018003f340     common.obj
 0002:0000c368       ??_R4failure@ios_base@std@@6B@ 000000018003f368     common.obj
 0002:0000c390       ??_R2?$ctype@D@std@@8      000000018003f390     common.obj
 0002:0000c3b8       ??_R4_System_error@std@@6B@ 000000018003f3b8     common.obj
 0002:0000c3e0       ??_R3ctype_base@std@@8     000000018003f3e0     common.obj
 0002:0000c3f8       ??_R4runtime_error@std@@6B@ 000000018003f3f8     common.obj
 0002:0000c420       ??_R2ObjectWrap@Nan@@8     000000018003f420     connection.obj
 0002:0000c430       ??_R3ObjectWrap@Nan@@8     000000018003f430     connection.obj
 0002:0000c448       ??_R4Connection@NodeKafka@@6B@ 000000018003f448     connection.obj
 0002:0000c470       ??_R1A@?0A@EA@Connection@NodeKafka@@8 000000018003f470     connection.obj
 0002:0000c498       ??_R4ObjectWrap@Nan@@6B@   000000018003f498     connection.obj
 0002:0000c4c0       ??_R1A@?0A@EA@ObjectWrap@Nan@@8 000000018003f4c0     connection.obj
 0002:0000c4e8       ??_R3Connection@NodeKafka@@8 000000018003f4e8     connection.obj
 0002:0000c500       ??_R2Connection@NodeKafka@@8 000000018003f500     connection.obj
 0002:0000c518       ??_R3KafkaConsumer@NodeKafka@@8 000000018003f518     kafka-consumer.obj
 0002:0000c530       ??_R4KafkaConsumer@NodeKafka@@6B@ 000000018003f530     kafka-consumer.obj
 0002:0000c558       ??_R2KafkaConsumer@NodeKafka@@8 000000018003f558     kafka-consumer.obj
 0002:0000c578       ??_R1A@?0A@EA@KafkaConsumer@NodeKafka@@8 000000018003f578     kafka-consumer.obj
 0002:0000c5a0       ??_R1A@?0A@EA@Producer@NodeKafka@@8 000000018003f5a0     producer.obj
 0002:0000c5c8       ??_R2Producer@NodeKafka@@8 000000018003f5c8     producer.obj
 0002:0000c5e8       ??_R4Producer@NodeKafka@@6B@ 000000018003f5e8     producer.obj
 0002:0000c610       ??_R3Producer@NodeKafka@@8 000000018003f610     producer.obj
 0002:0000c628       ??_R3Topic@NodeKafka@@8    000000018003f628     topic.obj
 0002:0000c640       ??_R1A@?0A@EA@Topic@NodeKafka@@8 000000018003f640     topic.obj
 0002:0000c668       ??_R2Topic@NodeKafka@@8    000000018003f668     topic.obj
 0002:0000c680       ??_R4Topic@NodeKafka@@6B@  000000018003f680     topic.obj
 0002:0000c6a8       ??_R4KafkaConsumerConsume@Workers@NodeKafka@@6B@ 000000018003f6a8     workers.obj
 0002:0000c6d0       ??_R4MessageWorker@Workers@NodeKafka@@6B@ 000000018003f6d0     workers.obj
 0002:0000c6f8       ??_R3ProducerFlush@Workers@NodeKafka@@8 000000018003f6f8     workers.obj
 0002:0000c710       ??_R3MessageWorker@Workers@NodeKafka@@8 000000018003f710     workers.obj
 0002:0000c728       ??_R3KafkaConsumerConsumeLoop@Workers@NodeKafka@@8 000000018003f728     workers.obj
 0002:0000c740       ??_R2KafkaConsumerConnect@Workers@NodeKafka@@8 000000018003f740     workers.obj
 0002:0000c760       ??_R2ProducerConnect@Workers@NodeKafka@@8 000000018003f760     workers.obj
 0002:0000c780       ??_R2ProducerFlush@Workers@NodeKafka@@8 000000018003f780     workers.obj
 0002:0000c7a0       ??_R3KafkaConsumerConsume@Workers@NodeKafka@@8 000000018003f7a0     workers.obj
 0002:0000c7b8       ??_R4ProducerFlush@Workers@NodeKafka@@6B@ 000000018003f7b8     workers.obj
 0002:0000c7e0       ??_R1A@?0A@EA@ConnectionMetadata@Workers@NodeKafka@@8 000000018003f7e0     workers.obj
 0002:0000c808       ??_R3ConnectionQueryWatermarkOffsets@Workers@NodeKafka@@8 000000018003f808     workers.obj
 0002:0000c820       ??_R4KafkaConsumerDisconnect@Workers@NodeKafka@@6B@ 000000018003f820     workers.obj
 0002:0000c848       ??_R1A@?0A@EA@KafkaConsumerConsumeLoop@Workers@NodeKafka@@8 000000018003f848     workers.obj
 0002:0000c870       ??_R3KafkaConsumerSeek@Workers@NodeKafka@@8 000000018003f870     workers.obj
 0002:0000c888       ??_R3KafkaConsumerCommitted@Workers@NodeKafka@@8 000000018003f888     workers.obj
 0002:0000c8a0       ??_R4KafkaConsumerConnect@Workers@NodeKafka@@6B@ 000000018003f8a0     workers.obj
 0002:0000c8c8       ??_R2KafkaConsumerCommitted@Workers@NodeKafka@@8 000000018003f8c8     workers.obj
 0002:0000c8e8       ??_R2KafkaConsumerDisconnect@Workers@NodeKafka@@8 000000018003f8e8     workers.obj
 0002:0000c908       ??_R2MessageWorker@Workers@NodeKafka@@8 000000018003f908     workers.obj
 0002:0000c928       ??_R3KafkaConsumerConsumeNum@Workers@NodeKafka@@8 000000018003f928     workers.obj
 0002:0000c940       ??_R1A@?0A@EA@KafkaConsumerConnect@Workers@NodeKafka@@8 000000018003f940     workers.obj
 0002:0000c968       ??_R4KafkaConsumerCommitted@Workers@NodeKafka@@6B@ 000000018003f968     workers.obj
 0002:0000c990       ??_R3ProducerConnect@Workers@NodeKafka@@8 000000018003f990     workers.obj
 0002:0000c9a8       ??_R2ErrorAwareWorker@Workers@NodeKafka@@8 000000018003f9a8     workers.obj
 0002:0000c9c0       ??_R1A@?0A@EA@ProducerConnect@Workers@NodeKafka@@8 000000018003f9c0     workers.obj
 0002:0000c9e8       ??_R1A@?0A@EA@KafkaConsumerDisconnect@Workers@NodeKafka@@8 000000018003f9e8     workers.obj
 0002:0000ca10       ??_R2KafkaConsumerConsume@Workers@NodeKafka@@8 000000018003fa10     workers.obj
 0002:0000ca30       ??_R3AsyncWorker@Nan@@8    000000018003fa30     workers.obj
 0002:0000ca48       ??_R1A@?0A@EA@ErrorAwareWorker@Workers@NodeKafka@@8 000000018003fa48     workers.obj
 0002:0000ca70       ??_R4ConnectionQueryWatermarkOffsets@Workers@NodeKafka@@6B@ 000000018003fa70     workers.obj
 0002:0000ca98       ??_R3ConnectionMetadata@Workers@NodeKafka@@8 000000018003fa98     workers.obj
 0002:0000cab0       ??_R4ProducerConnect@Workers@NodeKafka@@6B@ 000000018003fab0     workers.obj
 0002:0000cad8       ??_R3KafkaConsumerConnect@Workers@NodeKafka@@8 000000018003fad8     workers.obj
 0002:0000caf0       ??_R4KafkaConsumerConsumeNum@Workers@NodeKafka@@6B@ 000000018003faf0     workers.obj
 0002:0000cb18       ??_R4AsyncWorker@Nan@@6B@  000000018003fb18     workers.obj
 0002:0000cb40       ??_R1A@?0A@EA@KafkaConsumerSeek@Workers@NodeKafka@@8 000000018003fb40     workers.obj
 0002:0000cb68       ??_R3ErrorAwareWorker@Workers@NodeKafka@@8 000000018003fb68     workers.obj
 0002:0000cb80       ??_R3ProducerDisconnect@Workers@NodeKafka@@8 000000018003fb80     workers.obj
 0002:0000cb98       ??_R4ErrorAwareWorker@Workers@NodeKafka@@6B@ 000000018003fb98     workers.obj
 0002:0000cbc0       ??_R4KafkaConsumerConsumeLoop@Workers@NodeKafka@@6B@ 000000018003fbc0     workers.obj
 0002:0000cbe8       ??_R2ConnectionQueryWatermarkOffsets@Workers@NodeKafka@@8 000000018003fbe8     workers.obj
 0002:0000cc08       ??_R2KafkaConsumerConsumeNum@Workers@NodeKafka@@8 000000018003fc08     workers.obj
 0002:0000cc28       ??_R4ConnectionMetadata@Workers@NodeKafka@@6B@ 000000018003fc28     workers.obj
 0002:0000cc50       ??_R1A@?0A@EA@ProducerFlush@Workers@NodeKafka@@8 000000018003fc50     workers.obj
 0002:0000cc78       ??_R4KafkaConsumerSeek@Workers@NodeKafka@@6B@ 000000018003fc78     workers.obj
 0002:0000cca0       ??_R1A@?0A@EA@KafkaConsumerConsume@Workers@NodeKafka@@8 000000018003fca0     workers.obj
 0002:0000ccc8       ??_R2ProducerDisconnect@Workers@NodeKafka@@8 000000018003fcc8     workers.obj
 0002:0000cce8       ??_R3KafkaConsumerDisconnect@Workers@NodeKafka@@8 000000018003fce8     workers.obj
 0002:0000cd00       ??_R1A@?0A@EA@ProducerDisconnect@Workers@NodeKafka@@8 000000018003fd00     workers.obj
 0002:0000cd28       ??_R1A@?0A@EA@ConnectionQueryWatermarkOffsets@Workers@NodeKafka@@8 000000018003fd28     workers.obj
 0002:0000cd50       ??_R1A@?0A@EA@KafkaConsumerCommitted@Workers@NodeKafka@@8 000000018003fd50     workers.obj
 0002:0000cd78       ??_R2KafkaConsumerConsumeLoop@Workers@NodeKafka@@8 000000018003fd78     workers.obj
 0002:0000cda0       ??_R1A@?0A@EA@KafkaConsumerConsumeNum@Workers@NodeKafka@@8 000000018003fda0     workers.obj
 0002:0000cdc8       ??_R4ProducerDisconnect@Workers@NodeKafka@@6B@ 000000018003fdc8     workers.obj
 0002:0000cdf0       ??_R2AsyncWorker@Nan@@8    000000018003fdf0     workers.obj
 0002:0000ce00       ??_R1A@?0A@EA@MessageWorker@Workers@NodeKafka@@8 000000018003fe00     workers.obj
 0002:0000ce28       ??_R1A@?0A@EA@AsyncWorker@Nan@@8 000000018003fe28     workers.obj
 0002:0000ce50       ??_R2ConnectionMetadata@Workers@NodeKafka@@8 000000018003fe50     workers.obj
 0002:0000ce70       ??_R2KafkaConsumerSeek@Workers@NodeKafka@@8 000000018003fe70     workers.obj
 0002:0000ce90       __rtc_iaa                  000000018003fe90     LIBCMT:initsect.obj
 0002:0000ce98       __rtc_izz                  000000018003fe98     LIBCMT:initsect.obj
 0002:0000cea0       __rtc_taa                  000000018003fea0     LIBCMT:initsect.obj
 0002:0000cea8       __rtc_tzz                  000000018003fea8     LIBCMT:initsect.obj
 0002:00010028       _TI2?AVbad_alloc@std@@     0000000180043028     libcpmt:xthrow.obj
 0002:00010048       _CTA2?AVbad_alloc@std@@    0000000180043048     libcpmt:xthrow.obj
 0002:00010060       _CT??_R0?AVbad_alloc@std@@@8??0bad_alloc@std@@QEAA@AEBV01@@Z24 0000000180043060     libcpmt:xthrow.obj
 0002:00010088       _CT??_R0?AVexception@std@@@8??0exception@std@@QEAA@AEBV01@@Z24 0000000180043088     libcpmt:xthrow.obj
 0002:000100b0       _CT??_R0?AVlogic_error@std@@@8??0logic_error@std@@QEAA@AEBV01@@Z24 00000001800430b0     libcpmt:xthrow.obj
 0002:000100d8       _TI3?AVlength_error@std@@  00000001800430d8     libcpmt:xthrow.obj
 0002:000100f8       _CTA3?AVlength_error@std@@ 00000001800430f8     libcpmt:xthrow.obj
 0002:00010118       _CT??_R0?AVlength_error@std@@@8??0length_error@std@@QEAA@AEBV01@@Z24 0000000180043118     libcpmt:xthrow.obj
 0002:00010140       _TI3?AVout_of_range@std@@  0000000180043140     libcpmt:xthrow.obj
 0002:00010160       _CTA3?AVout_of_range@std@@ 0000000180043160     libcpmt:xthrow.obj
 0002:00010180       _CT??_R0?AVout_of_range@std@@@8??0out_of_range@std@@QEAA@AEBV01@@Z24 0000000180043180     libcpmt:xthrow.obj
 0002:000101a8       _TI2?AVbad_cast@std@@      00000001800431a8     libcpmt:cerr.obj
 0002:000101c8       _CTA2?AVbad_cast@std@@     00000001800431c8     libcpmt:cerr.obj
 0002:000101e0       _CT??_R0?AVbad_cast@std@@@8??0bad_cast@std@@QEAA@AEBV01@@Z24 00000001800431e0     libcpmt:cerr.obj
 0002:00010208       _TI2?AVbad_exception@std@@ 0000000180043208     LIBCMT:frame.obj
 0002:00010228       _CTA2?AVbad_exception@std@@ 0000000180043228     LIBCMT:frame.obj
 0002:00010240       _CT??_R0?AVbad_exception@std@@@8??0bad_exception@std@@QEAA@AEBV01@@Z24 0000000180043240     LIBCMT:frame.obj
 0002:00010268       _TI3?AV__non_rtti_object@std@@ 0000000180043268     LIBCMT:rtti.obj
 0002:00010288       _CTA3?AV__non_rtti_object@std@@ 0000000180043288     LIBCMT:rtti.obj
 0002:000102a8       _CT??_R0?AV__non_rtti_object@std@@@8??0__non_rtti_object@std@@QEAA@AEBV01@@Z24 00000001800432a8     LIBCMT:rtti.obj
 0002:000102d0       _CT??_R0?AVbad_typeid@std@@@8??0bad_typeid@std@@QEAA@AEBV01@@Z24 00000001800432d0     LIBCMT:rtti.obj
 0002:000102f4       __DELAY_IMPORT_DESCRIPTOR_node_exe 00000001800432f4     node:node.exe
 0002:00010314       __NULL_DELAY_IMPORT_DESCRIPTOR 0000000180043314     node:node.exe
 0002:00010620       \177node_NULL_THUNK_DATA_DLN 0000000180043620     node:node.exe
 0002:00011b68       \177node_NULL_THUNK_DATA_DLB 0000000180044b68     node:node.exe
 0002:00011ea8       __IMPORT_DESCRIPTOR_KERNEL32 0000000180044ea8     kernel32:KERNEL32.dll
 0002:00011ebc       __IMPORT_DESCRIPTOR_librdkafkacpp 0000000180044ebc     librdkafkacpp:librdkafkacpp.dll
 0002:00011ed0       __NULL_IMPORT_DESCRIPTOR   0000000180044ed0     kernel32:KERNEL32.dll
 0003:00000020       ?_PJP_CPP_Copyright@@3PADA 0000000180046020     libcpmt:iosptrs.obj
 0003:0000007b       ?_Sync@ios_base@std@@0_NA  000000018004607b     libcpmt:ios.obj
 0003:00000080       _FDenorm                   0000000180046080     libcpmt:xfvalues.obj
 0003:00000090       _FInf                      0000000180046090     libcpmt:xfvalues.obj
 0003:000000a0       _FNan                      00000001800460a0     libcpmt:xfvalues.obj
 0003:000000b0       _FSnan                     00000001800460b0     libcpmt:xfvalues.obj
 0003:000000c0       _FEps                      00000001800460c0     libcpmt:xfvalues.obj
 0003:000000d0       _FRteps                    00000001800460d0     libcpmt:xfvalues.obj
 0003:000000e0       _FXbig                     00000001800460e0     libcpmt:xfvalues.obj
 0003:000000e8       _Denorm                    00000001800460e8     libcpmt:xvalues.obj
 0003:000000f8       _Hugeval                   00000001800460f8     libcpmt:xvalues.obj
 0003:00000108       _Inf                       0000000180046108     libcpmt:xvalues.obj
 0003:00000118       _Nan                       0000000180046118     libcpmt:xvalues.obj
 0003:00000128       _Snan                      0000000180046128     libcpmt:xvalues.obj
 0003:00000138       _Eps                       0000000180046138     libcpmt:xvalues.obj
 0003:00000148       _Rteps                     0000000180046148     libcpmt:xvalues.obj
 0003:00000158       _Xbig                      0000000180046158     libcpmt:xvalues.obj
 0003:00000160       _LDenorm                   0000000180046160     libcpmt:xlvalues.obj
 0003:00000170       _LInf                      0000000180046170     libcpmt:xlvalues.obj
 0003:00000180       _LNan                      0000000180046180     libcpmt:xlvalues.obj
 0003:00000190       _LSnan                     0000000180046190     libcpmt:xlvalues.obj
 0003:000001a0       _LEps                      00000001800461a0     libcpmt:xlvalues.obj
 0003:000001b0       _LRteps                    00000001800461b0     libcpmt:xlvalues.obj
 0003:000001c0       _LXbig                     00000001800461c0     libcpmt:xlvalues.obj
 0003:00000238       __abort_behavior           0000000180046238     LIBCMT:abort.obj
 0003:00000240       __lconv_c                  0000000180046240     LIBCMT:lconv.obj
 0003:000002d8       __lconv_static_decimal     00000001800462d8     LIBCMT:lconv.obj
 0003:000002dc       __lconv_static_W_decimal   00000001800462dc     LIBCMT:lconv.obj
 0003:000002e0       __lconv                    00000001800462e0     LIBCMT:lconv.obj
 0003:000002f0       _fltused                   00000001800462f0     LIBCMT:fpinit.obj
 0003:000002f4       _ldused                    00000001800462f4     LIBCMT:fpinit.obj
 0003:00000300       _iob                       0000000180046300     LIBCMT:_file.obj
 0003:000006c0       __security_cookie          00000001800466c0     LIBCMT:gs_cookie.obj
 0003:000006c8       __security_cookie_complement 00000001800466c8     LIBCMT:gs_cookie.obj
 0003:00000910       _pctype                    0000000180046910     LIBCMT:ctype.obj
 0003:00000918       _pwctype                   0000000180046918     LIBCMT:ctype.obj
 0003:00000aa0       __isa_available            0000000180046aa0     LIBCMT:cpu_disp.obj
 0003:00000aa4       __isa_enabled              0000000180046aa4     LIBCMT:cpu_disp.obj
 0003:00000aac       __flsindex                 0000000180046aac     LIBCMT:tidtable.obj
 0003:00000ab0       __nullstring               0000000180046ab0     LIBCMT:output.obj
 0003:00000ab8       __wnullstring              0000000180046ab8     LIBCMT:output.obj
 0003:00000ac0       __mb_cur_max               0000000180046ac0     LIBCMT:nlsdata.obj
 0003:00000ac4       __wclocalestr              0000000180046ac4     LIBCMT:nlsdata.obj
 0003:00000ad0       __lc_time_c                0000000180046ad0     LIBCMT:nlsdata.obj
 0003:00000d90       __ptlocinfo                0000000180046d90     LIBCMT:nlsdata.obj
 0003:00000da0       __initiallocinfo           0000000180046da0     LIBCMT:nlsdata.obj
 0003:00000ef8       __globallocalestatus       0000000180046ef8     LIBCMT:glstatus.obj
 0003:00000f00       _mbctype                   0000000180046f00     LIBCMT:mbctype.obj
 0003:00001010       _mbcasemap                 0000000180047010     LIBCMT:mbctype.obj
 0003:00001110       __initialmbcinfo           0000000180047110     LIBCMT:mbctype.obj
 0003:00001430       __ptmbcinfo                0000000180047430     LIBCMT:mbctype.obj
 0003:00001440       __badioinfo                0000000180047440     LIBCMT:ioinit.obj
 0003:000014a0       _cfltcvt_tab               00000001800474a0     LIBCMT:cmiscdat.obj
 0003:000014f0       _d_inf                     00000001800474f0     LIBCMT:util.obj
 0003:000014f8       _d_ind                     00000001800474f8     LIBCMT:util.obj
 0003:00001500       _d_max                     0000000180047500     LIBCMT:util.obj
 0003:00001508       _d_min                     0000000180047508     LIBCMT:util.obj
 0003:00001510       _d_mzero                   0000000180047510     LIBCMT:util.obj
 0003:00001710       _timezone                  0000000180047710     LIBCMT:timeset.obj
 0003:00001714       _daylight                  0000000180047714     LIBCMT:timeset.obj
 0003:00001718       _dstbias                   0000000180047718     LIBCMT:timeset.obj
 0003:000017a0       _tzname                    00000001800477a0     LIBCMT:timeset.obj
 0003:000017b0       _matherr_flag              00000001800477b0     LIBCMT:matherr.obj
 0003:000017c0       _lookuptrailbytes          00000001800477c0     LIBCMT:read.obj
 0003:000018c0       _days                      00000001800478c0     LIBCMT:days.obj
 0003:000018f8       _lpdays                    00000001800478f8     LIBCMT:days.obj
 0003:00001960       _confh                     0000000180047960     LIBCMT:initcon.obj
 0003:00001970       _pow10pos                  0000000180047970     LIBCMT:constpow.obj
 0003:00001ad0       _pow10neg                  0000000180047ad0     LIBCMT:constpow.obj
 0003:00001c30       _HUGE                      0000000180047c30     LIBCMT:huge.obj
 0003:00001c80       __pfnDliNotifyHook2        0000000180047c80     win_delay_load_hook.obj
 0003:00001c90       ??_R0?AVbad_alloc@std@@@8  0000000180047c90     libcpmt:xthrow.obj
 0003:00001cb8       ??_R0?AVexception@std@@@8  0000000180047cb8     libcpmt:xthrow.obj
 0003:00001ce0       ??_R0?AVlogic_error@std@@@8 0000000180047ce0     libcpmt:xthrow.obj
 0003:00001d08       ??_R0?AVlength_error@std@@@8 0000000180047d08     libcpmt:xthrow.obj
 0003:00001d30       ??_R0?AVout_of_range@std@@@8 0000000180047d30     libcpmt:xthrow.obj
 0003:00001d58       ??_R0?AV_Locimp@locale@std@@@8 0000000180047d58     libcpmt:locale0.obj
 0003:00001d88       ??_R0?AVbad_cast@std@@@8   0000000180047d88     libcpmt:cerr.obj
 0003:00001db0       ??_R0?AVios_base@std@@@8   0000000180047db0     libcpmt:cerr.obj
 0003:00001dd8       ??_R0?AV?$_Iosb@H@std@@@8  0000000180047dd8     libcpmt:cerr.obj
 0003:00001e00       ??_R0?AV?$basic_ios@DU?$char_traits@D@std@@@std@@@8 0000000180047e00     libcpmt:cerr.obj
 0003:00001e40       ??_R0?AV?$basic_streambuf@DU?$char_traits@D@std@@@std@@@8 0000000180047e40     libcpmt:cerr.obj
 0003:00001e90       ??_R0?AV?$basic_ostream@DU?$char_traits@D@std@@@std@@@8 0000000180047e90     libcpmt:cerr.obj
 0003:00001ee0       ??_R0?AV?$basic_filebuf@DU?$char_traits@D@std@@@std@@@8 0000000180047ee0     libcpmt:cerr.obj
 0003:00001f28       ??_R0?AVcodecvt_base@std@@@8 0000000180047f28     libcpmt:cerr.obj
 0003:00001f50       ??_R0?AV?$codecvt@DDH@std@@@8 0000000180047f50     libcpmt:cerr.obj
 0003:00001f78       ??_R0?AVtype_info@@@8      0000000180047f78     LIBCMT:typinfo.obj
 0003:00001f98       ??_R0?AVbad_typeid@std@@@8 0000000180047f98     LIBCMT:stdexcpt.obj
 0003:00001fc0       ??_R0?AV__non_rtti_object@std@@@8 0000000180047fc0     LIBCMT:stdexcpt.obj
 0003:00001ff0       ??_R0?AVbad_exception@std@@@8 0000000180047ff0     LIBCMT:frame.obj
 0003:00002018       ??_R0?AVPartitioner@Callbacks@NodeKafka@@@8 0000000180048018     callbacks.obj
 0003:00002050       ??_R0?AVDispatcher@Callbacks@NodeKafka@@@8 0000000180048050     callbacks.obj
 0003:00002088       ??_R0?AVRebalanceDispatcher@Callbacks@NodeKafka@@@8 0000000180048088     callbacks.obj
 0003:000020c8       ??_R0?AVEvent@Callbacks@NodeKafka@@@8 00000001800480c8     callbacks.obj
 0003:000020f8       ??_R0?AVDeliveryReportCb@RdKafka@@@8 00000001800480f8     callbacks.obj
 0003:00002128       ??_R0?AVEventDispatcher@Callbacks@NodeKafka@@@8 0000000180048128     callbacks.obj
 0003:00002168       ??_R0?AVOffsetCommit@Callbacks@NodeKafka@@@8 0000000180048168     callbacks.obj
 0003:000021a0       ??_R0?AVRebalanceCb@RdKafka@@@8 00000001800481a0     callbacks.obj
 0003:000021d0       ??_R0?AVDeliveryReportDispatcher@Callbacks@NodeKafka@@@8 00000001800481d0     callbacks.obj
 0003:00002218       ??_R0?AVPartitionerCb@RdKafka@@@8 0000000180048218     callbacks.obj
 0003:00002248       ??_R0?AVEventCb@RdKafka@@@8 0000000180048248     callbacks.obj
 0003:00002270       ??_R0?AVRebalance@Callbacks@NodeKafka@@@8 0000000180048270     callbacks.obj
 0003:000022a8       ??_R0?AVDelivery@Callbacks@NodeKafka@@@8 00000001800482a8     callbacks.obj
 0003:000022e0       ??_R0?AVOffsetCommitCb@RdKafka@@@8 00000001800482e0     callbacks.obj
 0003:00002310       ??_R0?AVOffsetCommitDispatcher@Callbacks@NodeKafka@@@8 0000000180048310     callbacks.obj
 0003:00002358       ??_R0?AV_System_error@std@@@8 0000000180048358     common.obj
 0003:00002380       ??_R0?AVsystem_error@std@@@8 0000000180048380     common.obj
 0003:000023a8       ??_R0?AVfailure@ios_base@std@@@8 00000001800483a8     common.obj
 0003:000023d8       ??_R0?AVruntime_error@std@@@8 00000001800483d8     common.obj
 0003:00002400       ??_R0?AV?$ctype@D@std@@@8  0000000180048400     common.obj
 0003:00002428       ??_R0?AV_Facet_base@std@@@8 0000000180048428     common.obj
 0003:00002450       ??_R0?AUctype_base@std@@@8 0000000180048450     common.obj
 0003:00002478       ??_R0?AVexception@stdext@@@8 0000000180048478     common.obj
 0003:000024a0       ??_R0?AVfacet@locale@std@@@8 00000001800484a0     common.obj
 0003:000024c8       ??_R0?AVConnection@NodeKafka@@@8 00000001800484c8     connection.obj
 0003:000024f8       ??_R0?AVObjectWrap@Nan@@@8 00000001800484f8     connection.obj
 0003:00002520       ??_R0?AVHandle@RdKafka@@@8 0000000180048520     kafka-consumer.obj
 0003:00002548       ??_R0?AVKafkaConsumer@RdKafka@@@8 0000000180048548     kafka-consumer.obj
 0003:00002578       ??_R0?AVKafkaConsumer@NodeKafka@@@8 0000000180048578     kafka-consumer.obj
 0003:000025a8       ??_R0?AVProducer@NodeKafka@@@8 00000001800485a8     producer.obj
 0003:000025d8       ??_R0?AVProducer@RdKafka@@@8 00000001800485d8     producer.obj
 0003:00002600       ??_R0?AVTopic@NodeKafka@@@8 0000000180048600     topic.obj
 0003:00002628       ??_R0?AVConnectionMetadata@Workers@NodeKafka@@@8 0000000180048628     workers.obj
 0003:00002668       ??_R0?AVKafkaConsumerSeek@Workers@NodeKafka@@@8 0000000180048668     workers.obj
 0003:000026b0       ??_R0?AVKafkaConsumerConsumeNum@Workers@NodeKafka@@@8 00000001800486b0     workers.obj
 0003:000026f0       ??_R0?AVKafkaConsumerConsume@Workers@NodeKafka@@@8 00000001800486f0     workers.obj
 0003:00002730       ??_R0?AVAsyncWorker@Nan@@@8 0000000180048730     workers.obj
 0003:00002758       ??_R0?AVProducerConnect@Workers@NodeKafka@@@8 0000000180048758     workers.obj
 0003:00002790       ??_R0?AVKafkaConsumerDisconnect@Workers@NodeKafka@@@8 0000000180048790     workers.obj
 0003:000027d0       ??_R0?AVErrorAwareWorker@Workers@NodeKafka@@@8 00000001800487d0     workers.obj
 0003:00002810       ??_R0?AVMessageWorker@Workers@NodeKafka@@@8 0000000180048810     workers.obj
 0003:00002850       ??_R0?AVConnectionQueryWatermarkOffsets@Workers@NodeKafka@@@8 0000000180048850     workers.obj
 0003:00002898       ??_R0?AVProducerFlush@Workers@NodeKafka@@@8 0000000180048898     workers.obj
 0003:000028d0       ??_R0?AVProducerDisconnect@Workers@NodeKafka@@@8 00000001800488d0     workers.obj
 0003:00002910       ??_R0?AVKafkaConsumerConsumeLoop@Workers@NodeKafka@@@8 0000000180048910     workers.obj
 0003:00002958       ??_R0?AVKafkaConsumerConnect@Workers@NodeKafka@@@8 0000000180048958     workers.obj
 0003:00002998       ??_R0?AVKafkaConsumerCommitted@Workers@NodeKafka@@@8 0000000180048998     workers.obj
 0003:000029d8       __imp_?AtExit@node@@YAXP6AXPEAX@Z0@Z 00000001800489d8     node:node.exe
 0003:000029e0       __imp_node_module_register 00000001800489e0     node:node.exe
 0003:000029e8       __imp_?ToLocalEmpty@V8@v8@@CAXXZ 00000001800489e8     node:node.exe
 0003:000029f0       __imp_?FromJustIsNothing@V8@v8@@CAXXZ 00000001800489f0     node:node.exe
 0003:000029f8       __imp_?Escape@EscapableHandleScope@v8@@AEAAPEAPEAVObject@internal@2@PEAPEAV342@@Z 00000001800489f8     node:node.exe
 0003:00002a00       __imp_??0EscapableHandleScope@v8@@QEAA@PEAVIsolate@1@@Z 0000000180048a00     node:node.exe
 0003:00002a08       __imp_?Int32Value@Value@v8@@QEBA?AV?$Maybe@H@2@V?$Local@VContext@v8@@@2@@Z 0000000180048a08     node:node.exe
 0003:00002a10       __imp_?GetFunction@FunctionTemplate@v8@@QEAA?AV?$MaybeLocal@VFunction@v8@@@2@V?$Local@VContext@v8@@@2@@Z 0000000180048a10     node:node.exe
 0003:00002a18       __imp_?New@FunctionTemplate@v8@@SA?AV?$Local@VFunctionTemplate@v8@@@2@PEAVIsolate@2@P6AXAEBV?$FunctionCallbackInfo@VValue@v8@@@2@@ZV?$Local@VValue@v8@@@2@V?$Local@VSignature@v8@@@2@H@Z 0000000180048a18     node:node.exe
 0003:00002a20       __imp_?NewFromUtf8@String@v8@@SA?AV?$Local@VString@v8@@@2@PEAVIsolate@2@PEBDW4NewStringType@12@H@Z 0000000180048a20     node:node.exe
 0003:00002a28       __imp_?NewFromUtf8@String@v8@@SA?AV?$MaybeLocal@VString@v8@@@2@PEAVIsolate@2@PEBDW4NewStringType@2@H@Z 0000000180048a28     node:node.exe
 0003:00002a30       __imp_?CreateHandle@HandleScope@v8@@KAPEAPEAVObject@internal@2@PEAVIsolate@42@PEAV342@@Z 0000000180048a30     node:node.exe
 0003:00002a38       __imp_?CreateHandle@HandleScope@v8@@CAPEAPEAVObject@internal@2@PEAVHeapObject@42@PEAV342@@Z 0000000180048a38     node:node.exe
 0003:00002a40       __imp_??1HandleScope@v8@@QEAA@XZ 0000000180048a40     node:node.exe
 0003:00002a48       __imp_??0HandleScope@v8@@QEAA@PEAVIsolate@1@@Z 0000000180048a48     node:node.exe
 0003:00002a50       __imp_?New@Number@v8@@SA?AV?$Local@VNumber@v8@@@2@PEAVIsolate@2@N@Z 0000000180048a50     node:node.exe
 0003:00002a58       __imp_?SlowGetInternalField@Object@v8@@AEAA?AV?$Local@VValue@v8@@@2@H@Z 0000000180048a58     node:node.exe
 0003:00002a60       __imp_?New@Object@v8@@SA?AV?$Local@VObject@v8@@@2@PEAVIsolate@2@@Z 0000000180048a60     node:node.exe
 0003:00002a68       __imp_?GetIsolate@Object@v8@@QEAAPEAVIsolate@2@XZ 0000000180048a68     node:node.exe
 0003:00002a70       __imp_?SetInternalField@Object@v8@@QEAAXHV?$Local@VValue@v8@@@2@@Z 0000000180048a70     node:node.exe
 0003:00002a78       __imp_?ForceSet@Object@v8@@QEAA_NV?$Local@VValue@v8@@@2@0W4PropertyAttribute@2@@Z 0000000180048a78     node:node.exe
 0003:00002a80       __imp_?Set@Object@v8@@QEAA_NV?$Local@VValue@v8@@@2@0@Z 0000000180048a80     node:node.exe
 0003:00002a88       __imp_?SetInternalFieldCount@ObjectTemplate@v8@@QEAAXH@Z 0000000180048a88     node:node.exe
 0003:00002a90       __imp_?NewInstance@ObjectTemplate@v8@@QEAA?AV?$MaybeLocal@VObject@v8@@@2@V?$Local@VContext@v8@@@2@@Z 0000000180048a90     node:node.exe
 0003:00002a98       __imp_?New@ObjectTemplate@v8@@SA?AV?$Local@VObjectTemplate@v8@@@2@PEAVIsolate@2@V?$Local@VFunctionTemplate@v8@@@2@@Z 0000000180048a98     node:node.exe
 0003:00002aa0       __imp_?GetCurrentContext@Isolate@v8@@QEAA?AV?$Local@VContext@v8@@@2@XZ 0000000180048aa0     node:node.exe
 0003:00002aa8       __imp_?GetCurrent@Isolate@v8@@SAPEAV12@XZ 0000000180048aa8     node:node.exe
 0003:00002ab0       __imp_?Value@External@v8@@QEBAPEAXXZ 0000000180048ab0     node:node.exe
 0003:00002ab8       __imp_?New@External@v8@@SA?AV?$Local@VExternal@v8@@@2@PEAVIsolate@2@PEAX@Z 0000000180048ab8     node:node.exe
 0003:00002ac0       __imp_?New@Buffer@node@@YA?AV?$MaybeLocal@VObject@v8@@@v8@@PEAVIsolate@4@PEAD_K@Z 0000000180048ac0     node:node.exe
 0003:00002ac8       __imp_?MakeCallback@node@@YA?AV?$Local@VValue@v8@@@v8@@PEAVIsolate@3@V?$Local@VObject@v8@@@3@V?$Local@VFunction@v8@@@3@HPEAV23@@Z 0000000180048ac8     node:node.exe
 0003:00002ad0       __imp_uv_default_loop      0000000180048ad0     node:node.exe
 0003:00002ad8       __imp_?Global@Context@v8@@QEAA?AV?$Local@VObject@v8@@@2@XZ 0000000180048ad8     node:node.exe
 0003:00002ae0       __imp_?DisposeGlobal@V8@v8@@CAXPEAPEAVObject@internal@2@@Z 0000000180048ae0     node:node.exe
 0003:00002ae8       __imp_?CopyPersistent@V8@v8@@CAPEAPEAVObject@internal@2@PEAPEAV342@@Z 0000000180048ae8     node:node.exe
 0003:00002af0       __imp_?GlobalizeReference@V8@v8@@CAPEAPEAVObject@internal@2@PEAVIsolate@42@PEAPEAV342@@Z 0000000180048af0     node:node.exe
 0003:00002af8       __imp_?ToInt32@Value@v8@@QEBA?AV?$MaybeLocal@VInt32@v8@@@2@V?$Local@VContext@v8@@@2@@Z 0000000180048af8     node:node.exe
 0003:00002b00       __imp_?Error@Exception@v8@@SA?AV?$Local@VValue@v8@@@2@V?$Local@VString@v8@@@2@@Z 0000000180048b00     node:node.exe
 0003:00002b08       __imp_?New@Array@v8@@SA?AV?$Local@VArray@v8@@@2@PEAVIsolate@2@H@Z 0000000180048b08     node:node.exe
 0003:00002b10       __imp_?Set@Object@v8@@QEAA?AV?$Maybe@_N@2@V?$Local@VContext@v8@@@2@V?$Local@VValue@v8@@@2@1@Z 0000000180048b10     node:node.exe
 0003:00002b18       __imp_?Set@Object@v8@@QEAA_NIV?$Local@VValue@v8@@@2@@Z 0000000180048b18     node:node.exe
 0003:00002b20       __imp_?New@Integer@v8@@SA?AV?$Local@VInteger@v8@@@2@PEAVIsolate@2@H@Z 0000000180048b20     node:node.exe
 0003:00002b28       __imp_uv_mutex_unlock      0000000180048b28     node:node.exe
 0003:00002b30       __imp_uv_mutex_lock        0000000180048b30     node:node.exe
 0003:00002b38       __imp_uv_async_send        0000000180048b38     node:node.exe
 0003:00002b40       __imp_uv_mutex_destroy     0000000180048b40     node:node.exe
 0003:00002b48       __imp_uv_async_init        0000000180048b48     node:node.exe
 0003:00002b50       __imp_uv_close             0000000180048b50     node:node.exe
 0003:00002b58       __imp_uv_mutex_init        0000000180048b58     node:node.exe
 0003:00002b60       __imp_?IntegerValue@Value@v8@@QEBA?AV?$Maybe@_J@2@V?$Local@VContext@v8@@@2@@Z 0000000180048b60     node:node.exe
 0003:00002b68       __imp_?BooleanValue@Value@v8@@QEBA?AV?$Maybe@_N@2@V?$Local@VContext@v8@@@2@@Z 0000000180048b68     node:node.exe
 0003:00002b70       __imp_?ToObject@Value@v8@@QEBA?AV?$MaybeLocal@VObject@v8@@@2@V?$Local@VContext@v8@@@2@@Z 0000000180048b70     node:node.exe
 0003:00002b78       __imp_?ToString@Value@v8@@QEBA?AV?$MaybeLocal@VString@v8@@@2@V?$Local@VContext@v8@@@2@@Z 0000000180048b78     node:node.exe
 0003:00002b80       __imp_?IsRegExp@Value@v8@@QEBA_NXZ 0000000180048b80     node:node.exe
 0003:00002b88       __imp_?IsNumber@Value@v8@@QEBA_NXZ 0000000180048b88     node:node.exe
 0003:00002b90       __imp_?IsBoolean@Value@v8@@QEBA_NXZ 0000000180048b90     node:node.exe
 0003:00002b98       __imp_?IsObject@Value@v8@@QEBA_NXZ 0000000180048b98     node:node.exe
 0003:00002ba0       __imp_?IsArray@Value@v8@@QEBA_NXZ 0000000180048ba0     node:node.exe
 0003:00002ba8       __imp_?WriteUtf8@String@v8@@QEBAHPEADHPEAHH@Z 0000000180048ba8     node:node.exe
 0003:00002bb0       __imp_?Length@String@v8@@QEBAHXZ 0000000180048bb0     node:node.exe
 0003:00002bb8       __imp_?Length@Array@v8@@QEBAIXZ 0000000180048bb8     node:node.exe
 0003:00002bc0       __imp_?Has@Object@v8@@QEAA?AV?$Maybe@_N@2@V?$Local@VContext@v8@@@2@V?$Local@VValue@v8@@@2@@Z 0000000180048bc0     node:node.exe
 0003:00002bc8       __imp_?Get@Object@v8@@QEAA?AV?$MaybeLocal@VValue@v8@@@2@V?$Local@VContext@v8@@@2@V?$Local@VValue@v8@@@2@@Z 0000000180048bc8     node:node.exe
 0003:00002bd0       __imp_?Get@Object@v8@@QEAA?AV?$Local@VValue@v8@@@2@I@Z 0000000180048bd0     node:node.exe
 0003:00002bd8       __imp_?GetSource@RegExp@v8@@QEBA?AV?$Local@VString@v8@@@2@XZ 0000000180048bd8     node:node.exe
 0003:00002be0       __imp_?ToString@Value@v8@@QEBA?AV?$Local@VString@v8@@@2@XZ 0000000180048be0     node:node.exe
 0003:00002be8       __imp_?IsFunction@Value@v8@@QEBA_NXZ 0000000180048be8     node:node.exe
 0003:00002bf0       __imp_?GetOwnPropertyNames@Object@v8@@QEAA?AV?$Local@VArray@v8@@@2@XZ 0000000180048bf0     node:node.exe
 0003:00002bf8       __imp_?Get@Object@v8@@QEAA?AV?$Local@VValue@v8@@@2@V32@@Z 0000000180048bf8     node:node.exe
 0003:00002c00       __imp_?ClearWeak@V8@v8@@CAPEAXPEAPEAVObject@internal@2@@Z 0000000180048c00     node:node.exe
 0003:00002c08       __imp_?MakeWeak@V8@v8@@CAXPEAPEAVObject@internal@2@PEAXP6AXAEBV?$WeakCallbackInfo@X@2@@ZW4WeakCallbackType@2@@Z 0000000180048c08     node:node.exe
 0003:00002c10       __imp_?SlowGetAlignedPointerFromInternalField@Object@v8@@AEAAPEAXH@Z 0000000180048c10     node:node.exe
 0003:00002c18       __imp_?InternalFieldCount@Object@v8@@QEAAHXZ 0000000180048c18     node:node.exe
 0003:00002c20       __imp_?ThrowException@Isolate@v8@@QEAA?AV?$Local@VValue@v8@@@2@V32@@Z 0000000180048c20     node:node.exe
 0003:00002c28       __imp_uv_rwlock_init       0000000180048c28     node:node.exe
 0003:00002c30       __imp_uv_rwlock_destroy    0000000180048c30     node:node.exe
 0003:00002c38       __imp_uv_rwlock_rdunlock   0000000180048c38     node:node.exe
 0003:00002c40       __imp_uv_queue_work        0000000180048c40     node:node.exe
 0003:00002c48       __imp_uv_rwlock_rdlock     0000000180048c48     node:node.exe
 0003:00002c50       __imp_?New@Signature@v8@@SA?AV?$Local@VSignature@v8@@@2@PEAVIsolate@2@V?$Local@VFunctionTemplate@v8@@@2@@Z 0000000180048c50     node:node.exe
 0003:00002c58       __imp_?Uint32Value@Value@v8@@QEBA?AV?$Maybe@I@2@V?$Local@VContext@v8@@@2@@Z 0000000180048c58     node:node.exe
 0003:00002c60       __imp_?SetClassName@FunctionTemplate@v8@@QEAAXV?$Local@VString@v8@@@2@@Z 0000000180048c60     node:node.exe
 0003:00002c68       __imp_?PrototypeTemplate@FunctionTemplate@v8@@QEAA?AV?$Local@VObjectTemplate@v8@@@2@XZ 0000000180048c68     node:node.exe
 0003:00002c70       __imp_?InstanceTemplate@FunctionTemplate@v8@@QEAA?AV?$Local@VObjectTemplate@v8@@@2@XZ 0000000180048c70     node:node.exe
 0003:00002c78       __imp_?GetFunction@FunctionTemplate@v8@@QEAA?AV?$Local@VFunction@v8@@@2@XZ 0000000180048c78     node:node.exe
 0003:00002c80       __imp_?SetAlignedPointerInInternalField@Object@v8@@QEAAXHPEAX@Z 0000000180048c80     node:node.exe
 0003:00002c88       __imp_?Set@Template@v8@@QEAAXV?$Local@VName@v8@@@2@V?$Local@VData@v8@@@2@W4PropertyAttribute@2@@Z 0000000180048c88     node:node.exe
 0003:00002c90       __imp_uv_rwlock_wrunlock   0000000180048c90     node:node.exe
 0003:00002c98       __imp_uv_rwlock_wrlock     0000000180048c98     node:node.exe
 0003:00002ca0       __imp_?ToObject@Value@v8@@QEBA?AV?$Local@VObject@v8@@@2@XZ 0000000180048ca0     node:node.exe
 0003:00002ca8       __imp_?Length@Buffer@node@@YA_KV?$Local@VObject@v8@@@v8@@@Z 0000000180048ca8     node:node.exe
 0003:00002cb0       __imp_?Data@Buffer@node@@YAPEADV?$Local@VObject@v8@@@v8@@@Z 0000000180048cb0     node:node.exe
 0003:00002cb8       __imp_?HasInstance@Buffer@node@@YA_NV?$Local@VValue@v8@@@v8@@@Z 0000000180048cb8     node:node.exe
 0003:00002cc0       \177node_NULL_THUNK_DATA_DLA 0000000180048cc0     node:node.exe
 0003:00002ce0       __hmod__node_exe           0000000180048ce0     node:node.exe
 0003:00002cf0       ?_Id_cnt@id@locale@std@@0HA 0000000180048cf0     libcpmt:locale0.obj
 0003:00002d00       ?_Clocptr@_Locimp@locale@std@@0PEAV123@EA 0000000180048d00     libcpmt:locale0.obj
 0003:00002d10       ?id@?$codecvt@GDH@std@@2V0locale@2@A 0000000180048d10     libcpmt:locale0.obj
 0003:00002d18       ?id@?$ctype@D@std@@2V0locale@2@A 0000000180048d18     libcpmt:locale0.obj
 0003:00002d20       ?id@?$codecvt@_WDH@std@@2V0locale@2@A 0000000180048d20     libcpmt:locale0.obj
 0003:00002d38       ?id@?$ctype@G@std@@2V0locale@2@A 0000000180048d38     libcpmt:locale0.obj
 0003:00002d40       ?id@?$ctype@_W@std@@2V0locale@2@A 0000000180048d40     libcpmt:locale0.obj
 0003:00002d50       ?_Raise_handler@std@@3P6AXAEBVexception@stdext@@@ZEA 0000000180048d50     libcpmt:raisehan.obj
 0003:00002e00       ?cerr@std@@3V?$basic_ostream@DU?$char_traits@D@std@@@1@A 0000000180048e00     libcpmt:cerr.obj
 0003:00002e70       ?id@?$codecvt@DDH@std@@2V0locale@2@A 0000000180048e70     libcpmt:cerr.obj
 0003:00002e78       ?_Stinit@?1??_Init@?$basic_filebuf@DU?$char_traits@D@std@@@std@@IEAAXPEAU_iobuf@@W4_Initfl@23@@Z@4HA 0000000180048e78     libcpmt:cerr.obj
 0003:00002e80       ?_Psave@?$_Facetptr@V?$codecvt@DDH@std@@@std@@2PEBVfacet@locale@2@EB 0000000180048e80     libcpmt:cerr.obj
 0003:00002ff0       ?cout@std@@3V?$basic_ostream@DU?$char_traits@D@std@@@1@A 0000000180048ff0     libcpmt:cout.obj
 0003:00003060       ?_Ptr_cin@std@@3PEAV?$basic_istream@DU?$char_traits@D@std@@@1@EA 0000000180049060     libcpmt:iosptrs.obj
 0003:00003068       ?_Ptr_cout@std@@3PEAV?$basic_ostream@DU?$char_traits@D@std@@@1@EA 0000000180049068     libcpmt:iosptrs.obj
 0003:00003070       ?_Ptr_cerr@std@@3PEAV?$basic_ostream@DU?$char_traits@D@std@@@1@EA 0000000180049070     libcpmt:iosptrs.obj
 0003:00003078       ?_Ptr_clog@std@@3PEAV?$basic_ostream@DU?$char_traits@D@std@@@1@EA 0000000180049078     libcpmt:iosptrs.obj
 0003:00003080       ?_Ptr_wcin@std@@3PEAV?$basic_istream@_WU?$char_traits@_W@std@@@1@EA 0000000180049080     libcpmt:iosptrs.obj
 0003:00003088       ?_Ptr_wcout@std@@3PEAV?$basic_ostream@_WU?$char_traits@_W@std@@@1@EA 0000000180049088     libcpmt:iosptrs.obj
 0003:00003090       ?_Ptr_wcerr@std@@3PEAV?$basic_ostream@_WU?$char_traits@_W@std@@@1@EA 0000000180049090     libcpmt:iosptrs.obj
 0003:00003098       ?_Ptr_wclog@std@@3PEAV?$basic_ostream@_WU?$char_traits@_W@std@@@1@EA 0000000180049098     libcpmt:iosptrs.obj
 0003:000030f8       ?id@?$num_get@DV?$istreambuf_iterator@DU?$char_traits@D@std@@@std@@@std@@2V0locale@2@A 00000001800490f8     libcpmt:locale.obj
 0003:00003100       ?_Index@ios_base@std@@0HA  0000000180049100     libcpmt:ios.obj
 0003:00003170       ?id@?$time_put@_WV?$ostreambuf_iterator@_WU?$char_traits@_W@std@@@std@@@std@@2V0locale@2@A 0000000180049170     libcpmt:wlocale.obj
 0003:00003178       ?id@?$num_get@_WV?$istreambuf_iterator@_WU?$char_traits@_W@std@@@std@@@std@@2V0locale@2@A 0000000180049178     libcpmt:wlocale.obj
 0003:00003180       ?id@?$num_put@_WV?$ostreambuf_iterator@_WU?$char_traits@_W@std@@@std@@@std@@2V0locale@2@A 0000000180049180     libcpmt:wlocale.obj
 0003:00003188       ?id@?$collate@_W@std@@2V0locale@2@A 0000000180049188     libcpmt:wlocale.obj
 0003:00003190       ?id@?$messages@_W@std@@2V0locale@2@A 0000000180049190     libcpmt:wlocale.obj
 0003:00003198       ?id@?$money_get@_WV?$istreambuf_iterator@_WU?$char_traits@_W@std@@@std@@@std@@2V0locale@2@A 0000000180049198     libcpmt:wlocale.obj
 0003:000031a0       ?id@?$money_put@_WV?$ostreambuf_iterator@_WU?$char_traits@_W@std@@@std@@@std@@2V0locale@2@A 00000001800491a0     libcpmt:wlocale.obj
 0003:000031a8       ?id@?$moneypunct@_W$0A@@std@@2V0locale@2@A 00000001800491a8     libcpmt:wlocale.obj
 0003:000031b0       ?id@?$moneypunct@_W$00@std@@2V0locale@2@A 00000001800491b0     libcpmt:wlocale.obj
 0003:000031b8       ?id@?$time_get@_WV?$istreambuf_iterator@_WU?$char_traits@_W@std@@@std@@@std@@2V0locale@2@A 00000001800491b8     libcpmt:wlocale.obj
 0003:000031c0       ?id@?$num_get@GV?$istreambuf_iterator@GU?$char_traits@G@std@@@std@@@std@@2V0locale@2@A 00000001800491c0     libcpmt:wlocale.obj
 0003:000031c8       ?id@?$num_put@GV?$ostreambuf_iterator@GU?$char_traits@G@std@@@std@@@std@@2V0locale@2@A 00000001800491c8     libcpmt:wlocale.obj
 0003:000031d0       ?id@?$numpunct@G@std@@2V0locale@2@A 00000001800491d0     libcpmt:wlocale.obj
 0003:000031d8       ?id@?$collate@G@std@@2V0locale@2@A 00000001800491d8     libcpmt:wlocale.obj
 0003:000031e0       ?id@?$messages@G@std@@2V0locale@2@A 00000001800491e0     libcpmt:wlocale.obj
 0003:000031e8       ?id@?$money_get@GV?$istreambuf_iterator@GU?$char_traits@G@std@@@std@@@std@@2V0locale@2@A 00000001800491e8     libcpmt:wlocale.obj
 0003:000031f0       ?id@?$money_put@GV?$ostreambuf_iterator@GU?$char_traits@G@std@@@std@@@std@@2V0locale@2@A 00000001800491f0     libcpmt:wlocale.obj
 0003:000031f8       ?id@?$moneypunct@G$0A@@std@@2V0locale@2@A 00000001800491f8     libcpmt:wlocale.obj
 0003:00003200       ?id@?$moneypunct@G$00@std@@2V0locale@2@A 0000000180049200     libcpmt:wlocale.obj
 0003:00003208       ?id@?$time_get@GV?$istreambuf_iterator@GU?$char_traits@G@std@@@std@@@std@@2V0locale@2@A 0000000180049208     libcpmt:wlocale.obj
 0003:00003210       ?id@?$time_put@GV?$ostreambuf_iterator@GU?$char_traits@G@std@@@std@@@std@@2V0locale@2@A 0000000180049210     libcpmt:wlocale.obj
 0003:00003220       ?id@?$collate@D@std@@2V0locale@2@A 0000000180049220     libcpmt:xlocale.obj
 0003:00003228       ?id@?$messages@D@std@@2V0locale@2@A 0000000180049228     libcpmt:xlocale.obj
 0003:00003230       ?id@?$money_get@DV?$istreambuf_iterator@DU?$char_traits@D@std@@@std@@@std@@2V0locale@2@A 0000000180049230     libcpmt:xlocale.obj
 0003:00003238       ?id@?$money_put@DV?$ostreambuf_iterator@DU?$char_traits@D@std@@@std@@@std@@2V0locale@2@A 0000000180049238     libcpmt:xlocale.obj
 0003:00003240       ?id@?$moneypunct@D$0A@@std@@2V0locale@2@A 0000000180049240     libcpmt:xlocale.obj
 0003:00003248       ?id@?$moneypunct@D$00@std@@2V0locale@2@A 0000000180049248     libcpmt:xlocale.obj
 0003:00003250       ?id@?$time_get@DV?$istreambuf_iterator@DU?$char_traits@D@std@@@std@@@std@@2V0locale@2@A 0000000180049250     libcpmt:xlocale.obj
 0003:00003258       ?id@?$time_put@DV?$ostreambuf_iterator@DU?$char_traits@D@std@@@std@@@std@@2V0locale@2@A 0000000180049258     libcpmt:xlocale.obj
 0003:00003264       _FZero                     0000000180049264     libcpmt:xfvalues.obj
 0003:00003268       _Zero                      0000000180049268     libcpmt:xvalues.obj
 0003:00003270       _LZero                     0000000180049270     libcpmt:xlvalues.obj
 0003:00003278       __pInvalidArgHandler       0000000180049278     LIBCMT:invarg.obj
 0003:00003280       __lconv_static_null        0000000180049280     LIBCMT:lconv.obj
 0003:00003284       __lconv_static_W_null      0000000180049284     LIBCMT:lconv.obj
 0003:00003290       _aenvptr                   0000000180049290     LIBCMT:dllcrt0.obj
 0003:00003298       _wenvptr                   0000000180049298     LIBCMT:dllcrt0.obj
 0003:000032a0       __fastflag                 00000001800492a0     LIBCMT:fpinit.obj
 0003:000032a4       _cflush                    00000001800492a4     LIBCMT:_file.obj
 0003:000034e0       _maxwait                   00000001800494e0     LIBCMT:crtheap.obj
 0003:00003a64       __favor                    0000000180049a64     LIBCMT:cpu_disp.obj
 0003:00003a68       _C_Exit_Done               0000000180049a68     LIBCMT:crt0dat.obj
 0003:00003a6c       __argc                     0000000180049a6c     LIBCMT:crt0dat.obj
 0003:00003a70       __argv                     0000000180049a70     LIBCMT:crt0dat.obj
 0003:00003a78       __wargv                    0000000180049a78     LIBCMT:crt0dat.obj
 0003:00003a80       _environ                   0000000180049a80     LIBCMT:crt0dat.obj
 0003:00003a88       _wenviron                  0000000180049a88     LIBCMT:crt0dat.obj
 0003:00003a90       _pgmptr                    0000000180049a90     LIBCMT:crt0dat.obj
 0003:00003a98       _wpgmptr                   0000000180049a98     LIBCMT:crt0dat.obj
 0003:00003aa0       _umaskval                  0000000180049aa0     LIBCMT:crt0dat.obj
 0003:00003aa4       _exitflag                  0000000180049aa4     LIBCMT:crt0dat.obj
 0003:00003aa8       _C_Termination_Done        0000000180049aa8     LIBCMT:crt0dat.obj
 0003:00003ab0       __winitenv                 0000000180049ab0     LIBCMT:crt0dat.obj
 0003:00003ab8       __initenv                  0000000180049ab8     LIBCMT:crt0dat.obj
 0003:00003ac0       __error_mode               0000000180049ac0     LIBCMT:errmode.obj
 0003:00003b20       __app_type                 0000000180049b20     LIBCMT:crt0msg.obj
 0003:00004158       __pPurecall                000000018004a158     LIBCMT:inithelp.obj
 0003:00004170       ?_pnhHeap@@3P6AH_K@ZEA     000000018004a170     LIBCMT:handler.obj
 0003:00004178       _newmode                   000000018004a178     LIBCMT:_newmode.obj
 0003:00004180       _crtheap                   000000018004a180     LIBCMT:heapinit.obj
 0003:00004188       __mbcodepage               000000018004a188     LIBCMT:mbctype.obj
 0003:0000418c       __ismbcodepage             000000018004a18c     LIBCMT:mbctype.obj
 0003:00004190       __mbulinfo                 000000018004a190     LIBCMT:mbctype.obj
 0003:000041a0       __mblocalename             000000018004a1a0     LIBCMT:mbctype.obj
 0003:000041ac       __locale_changed           000000018004a1ac     LIBCMT:wsetloca.obj
 0003:000041b0       __pioinfo                  000000018004a1b0     LIBCMT:ioinit.obj
 0003:000044b8       ?g_OutOfMemoryExceptionCallback@@3P6APEAXXZEA 000000018004a4b8     LIBCMT:frame.obj
 0003:000044c0       ?__pInconsistency@@3P6AXXZEA 000000018004a4c0     LIBCMT:hooks.obj
 0003:00004598       _stdbuf                    000000018004a598     LIBCMT:_sftbuf.obj
 0003:000045a8       ?m_pGetParameter@UnDecorator@@0P6APEADJ@ZEA 000000018004a5a8     LIBCMT:undname.obj
 0003:000045b0       ?pArgList@UnDecorator@@0PEAVReplicator@@EA 000000018004a5b0     LIBCMT:undname.obj
 0003:000045b8       ?pZNameList@UnDecorator@@0PEAVReplicator@@EA 000000018004a5b8     LIBCMT:undname.obj
 0003:000045c0       ?pTemplateArgList@UnDecorator@@0PEAVReplicator@@EA 000000018004a5c0     LIBCMT:undname.obj
 0003:000045c8       ?gName@UnDecorator@@0PEBDEB 000000018004a5c8     LIBCMT:undname.obj
 0003:000045d0       ?name@UnDecorator@@0PEBDEB 000000018004a5d0     LIBCMT:undname.obj
 0003:000045d8       ?outputString@UnDecorator@@0PEADEA 000000018004a5d8     LIBCMT:undname.obj
 0003:000045e0       ?maxStringLength@UnDecorator@@0HA 000000018004a5e0     LIBCMT:undname.obj
 0003:000045e4       ?disableFlags@UnDecorator@@0KA 000000018004a5e4     LIBCMT:undname.obj
 0003:000045e8       ?fExplicitTemplateParams@UnDecorator@@0_NA 000000018004a5e8     LIBCMT:undname.obj
 0003:000045e9       ?fGetTemplateArgumentList@UnDecorator@@0_NA 000000018004a5e9     LIBCMT:undname.obj
 0003:00004620       _outputformat              000000018004a620     LIBCMT:outputformat.obj
 0003:00004628       __pfnDliFailureHook2       000000018004a628     DelayImp:delayhk1.obj
 0003:00004630       ?_Psave@?$_Facetptr@V?$ctype@D@std@@@std@@2PEBVfacet@locale@2@EB 000000018004a630     common.obj
 0003:00004638       ?id@?$num_put@_WV?$back_insert_iterator@V?$basic_string@_WU?$char_traits@_W@std@@V?$allocator@_W@2@@std@@@std@@@std@@2V0locale@2@A 000000018004a638     binding.obj
 0003:00004640       ?_System_object@?$_Error_objects@H@std@@2V_System_error_category@2@A 000000018004a640     binding.obj
 0003:00004648       ?id@?$numpunct@_W@std@@2V0locale@2@A 000000018004a648     binding.obj
 0003:00004650       ?id@?$num_put@DV?$back_insert_iterator@V?$basic_string@DU?$char_traits@D@std@@V?$allocator@D@2@@std@@@std@@@std@@2V0locale@2@A 000000018004a650     binding.obj
 0003:00004658       ?_Iostream_object@?$_Error_objects@H@std@@2V_Iostream_error_category@2@A 000000018004a658     binding.obj
 0003:00004670       ?constructor@KafkaConsumer@NodeKafka@@1V?$Persistent@VFunction@v8@@V?$NonCopyablePersistentTraits@VFunction@v8@@@2@@Nan@@A 000000018004a670     kafka-consumer.obj
 0003:00004678       ?constructor@Producer@NodeKafka@@1V?$Persistent@VFunction@v8@@V?$NonCopyablePersistentTraits@VFunction@v8@@@2@@Nan@@A 000000018004a678     producer.obj
 0003:00004680       ?constructor@Topic@NodeKafka@@1V?$Persistent@VFunction@v8@@V?$NonCopyablePersistentTraits@VFunction@v8@@@2@@Nan@@A 000000018004a680     topic.obj
 0003:00004690       ?_Generic_object@?$_Error_objects@H@std@@2V_Generic_error_category@2@A 000000018004a690     binding.obj
 0003:00004698       ?id@?$numpunct@D@std@@2V0locale@2@A 000000018004a698     binding.obj
 0003:000046a0       ?id@?$num_put@DV?$ostreambuf_iterator@DU?$char_traits@D@std@@@std@@@std@@2V0locale@2@A 000000018004a6a0     kafka-consumer.obj
 0003:000046a8       _nhandle                   000000018004a6a8     <common>
 0003:000046ac       _debugger_hook_dummy       000000018004a6ac     <common>
 0003:000046b0       __dyn_tls_init_callback    000000018004a6b0     <common>
 0003:000046b8       __onexitend                000000018004a6b8     <common>
 0003:000046c0       __onexitbegin              000000018004a6c0     <common>
 0003:000046c8       __mbctype_initialized      000000018004a6c8     <common>
 0003:000046cc       __env_initialized          000000018004a6cc     <common>
 0003:000046e0       encodedKERNEL32Functions   000000018004a6e0     <common>
 0003:000047e8       __piob                     000000018004a7e8     <common>
 0003:000047f0       _nstream                   000000018004a7f0     <common>
 0003:00004800       _bufin                     000000018004a800     <common>
 0003:00005800       _acmdln                    000000018004b800     <common>

 entry point at        0001:0001b8b4

 Static symbols

 0000:fffaf000       .debug$S                   0000000180000000     node:node.exe
 0000:fffaf000       .debug$S                   0000000180000000     kernel32:KERNEL32.dll
 0000:fffaf000       .debug$S                   0000000180000000     kernel32:KERNEL32.dll
 0000:fffaf000       .debug$S                   0000000180000000     kernel32:KERNEL32.dll
 0000:fffaf000       .debug$S                   0000000180000000     kernel32:KERNEL32.dll
 0000:fffaf000       .debug$S                   0000000180000000     kernel32:KERNEL32.dll
 0000:fffaf000       .debug$S                   0000000180000000     kernel32:KERNEL32.dll
 0000:fffaf000       .debug$S                   0000000180000000     kernel32:KERNEL32.dll
 0000:fffaf000       .debug$S                   0000000180000000     kernel32:KERNEL32.dll
 0000:fffaf000       .debug$S                   0000000180000000     kernel32:KERNEL32.dll
 0000:fffaf000       .debug$S                   0000000180000000     kernel32:KERNEL32.dll
 0000:fffaf000       .debug$S                   0000000180000000     kernel32:KERNEL32.dll
 0000:fffaf000       .debug$S                   0000000180000000     kernel32:KERNEL32.dll
 0000:fffaf000       .debug$S                   0000000180000000     kernel32:KERNEL32.dll
 0000:fffaf000       .debug$S                   0000000180000000     kernel32:KERNEL32.dll
 0000:fffaf000       .debug$S                   0000000180000000     kernel32:KERNEL32.dll
 0000:fffaf000       .debug$S                   0000000180000000     kernel32:KERNEL32.dll
 0000:fffaf000       .debug$S                   0000000180000000     kernel32:KERNEL32.dll
 0000:fffaf000       .debug$S                   0000000180000000     kernel32:KERNEL32.dll
 0000:fffaf000       .debug$S                   0000000180000000     kernel32:KERNEL32.dll
 0000:fffaf000       .debug$S                   0000000180000000     kernel32:KERNEL32.dll
 0000:fffaf000       .debug$S                   0000000180000000     kernel32:KERNEL32.dll
 0000:fffaf000       .debug$S                   0000000180000000     kernel32:KERNEL32.dll
 0000:fffaf000       .debug$S                   0000000180000000     kernel32:KERNEL32.dll
 0000:fffaf000       .debug$S                   0000000180000000     kernel32:KERNEL32.dll
 0000:fffaf000       .debug$S                   0000000180000000     kernel32:KERNEL32.dll
 0000:fffaf000       .debug$S                   0000000180000000     kernel32:KERNEL32.dll
 0000:fffaf000       .debug$S                   0000000180000000     kernel32:KERNEL32.dll
 0000:fffaf000       .debug$S                   0000000180000000     kernel32:KERNEL32.dll
 0000:fffaf000       .debug$S                   0000000180000000     kernel32:KERNEL32.dll
 0000:fffaf000       .debug$S                   0000000180000000     kernel32:KERNEL32.dll
 0000:fffaf000       .debug$S                   0000000180000000     kernel32:KERNEL32.dll
 0000:fffaf000       .debug$S                   0000000180000000     kernel32:KERNEL32.dll
 0000:fffaf000       .debug$S                   0000000180000000     kernel32:KERNEL32.dll
 0000:fffaf000       .debug$S                   0000000180000000     kernel32:KERNEL32.dll
 0000:fffaf000       .debug$S                   0000000180000000     kernel32:KERNEL32.dll
 0000:fffaf000       .debug$S                   0000000180000000     kernel32:KERNEL32.dll
 0000:fffaf000       .debug$S                   0000000180000000     kernel32:KERNEL32.dll
 0000:fffaf000       .debug$S                   0000000180000000     kernel32:KERNEL32.dll
 0000:fffaf000       .debug$S                   0000000180000000     kernel32:KERNEL32.dll
 0000:fffaf000       .debug$S                   0000000180000000     kernel32:KERNEL32.dll
 0000:fffaf000       .debug$S                   0000000180000000     kernel32:KERNEL32.dll
 0000:fffaf000       .debug$S                   0000000180000000     kernel32:KERNEL32.dll
 0000:fffaf000       .debug$S                   0000000180000000     kernel32:KERNEL32.dll
 0000:fffaf000       .debug$S                   0000000180000000     kernel32:KERNEL32.dll
 0000:fffaf000       .debug$S                   0000000180000000     kernel32:KERNEL32.dll
 0000:fffaf000       .debug$S                   0000000180000000     kernel32:KERNEL32.dll
 0000:fffaf000       .debug$S                   0000000180000000     kernel32:KERNEL32.dll
 0000:fffaf000       .debug$S                   0000000180000000     kernel32:KERNEL32.dll
 0000:fffaf000       .debug$S                   0000000180000000     kernel32:KERNEL32.dll
 0000:fffaf000       .debug$S                   0000000180000000     kernel32:KERNEL32.dll
 0000:fffaf000       .debug$S                   0000000180000000     kernel32:KERNEL32.dll
 0000:fffaf000       .debug$S                   0000000180000000     kernel32:KERNEL32.dll
 0000:fffaf000       .debug$S                   0000000180000000     kernel32:KERNEL32.dll
 0000:fffaf000       .debug$S                   0000000180000000     kernel32:KERNEL32.dll
 0000:fffaf000       .debug$S                   0000000180000000     kernel32:KERNEL32.dll
 0000:fffaf000       .debug$S                   0000000180000000     kernel32:KERNEL32.dll
 0000:fffaf000       .debug$S                   0000000180000000     kernel32:KERNEL32.dll
 0000:fffaf000       .debug$S                   0000000180000000     kernel32:KERNEL32.dll
 0000:fffaf000       .debug$S                   0000000180000000     kernel32:KERNEL32.dll
 0000:fffaf000       .debug$S                   0000000180000000     kernel32:KERNEL32.dll
 0000:fffaf000       .debug$S                   0000000180000000     kernel32:KERNEL32.dll
 0000:fffaf000       .debug$S                   0000000180000000     kernel32:KERNEL32.dll
 0000:fffaf000       .debug$S                   0000000180000000     kernel32:KERNEL32.dll
 0000:fffaf000       .debug$S                   0000000180000000     kernel32:KERNEL32.dll
 0000:fffaf000       .debug$S                   0000000180000000     kernel32:KERNEL32.dll
 0000:fffaf000       .debug$S                   0000000180000000     kernel32:KERNEL32.dll
 0000:fffaf000       .debug$S                   0000000180000000     kernel32:KERNEL32.dll
 0000:fffaf000       .debug$S                   0000000180000000     kernel32:KERNEL32.dll
 0000:fffaf000       .debug$S                   0000000180000000     kernel32:KERNEL32.dll
 0000:fffaf000       .debug$S                   0000000180000000     kernel32:KERNEL32.dll
 0000:fffaf000       .debug$S                   0000000180000000     kernel32:KERNEL32.dll
 0000:fffaf000       .debug$S                   0000000180000000     kernel32:KERNEL32.dll
 0000:fffaf000       .debug$S                   0000000180000000     kernel32:KERNEL32.dll
 0000:fffaf000       .debug$S                   0000000180000000     kernel32:KERNEL32.dll
 0000:fffaf000       .debug$S                   0000000180000000     kernel32:KERNEL32.dll
 0000:fffaf000       .debug$S                   0000000180000000     kernel32:KERNEL32.dll
 0000:fffaf000       .debug$S                   0000000180000000     kernel32:KERNEL32.dll
 0000:fffaf000       .debug$S                   0000000180000000     kernel32:KERNEL32.dll
 0000:fffaf000       .debug$S                   0000000180000000     kernel32:KERNEL32.dll
 0000:fffaf000       .debug$S                   0000000180000000     kernel32:KERNEL32.dll
 0000:fffaf000       .debug$S                   0000000180000000     kernel32:KERNEL32.dll
 0000:fffaf000       .debug$S                   0000000180000000     kernel32:KERNEL32.dll
 0000:fffaf000       .debug$S                   0000000180000000     kernel32:KERNEL32.dll
 0000:fffaf000       .debug$S                   0000000180000000     kernel32:KERNEL32.dll
 0000:fffaf000       .debug$S                   0000000180000000     kernel32:KERNEL32.dll
 0000:fffaf000       .debug$S                   0000000180000000     kernel32:KERNEL32.dll
 0000:fffaf000       .debug$S                   0000000180000000     kernel32:KERNEL32.dll
 0000:fffaf000       .debug$S                   0000000180000000     node:node.exe
 0000:fffaf000       .debug$S                   0000000180000000     node:node.exe
 0000:fffaf000       .debug$S                   0000000180000000     node:node.exe
 0000:fffaf000       .debug$S                   0000000180000000     node:node.exe
 0000:fffaf000       .debug$S                   0000000180000000     node:node.exe
 0000:fffaf000       .debug$S                   0000000180000000     node:node.exe
 0000:fffaf000       .debug$S                   0000000180000000     node:node.exe
 0000:fffaf000       .debug$S                   0000000180000000     node:node.exe
 0000:fffaf000       .debug$S                   0000000180000000     node:node.exe
 0000:fffaf000       .debug$S                   0000000180000000     node:node.exe
 0000:fffaf000       .debug$S                   0000000180000000     node:node.exe
 0000:fffaf000       .debug$S                   0000000180000000     node:node.exe
 0000:fffaf000       .debug$S                   0000000180000000     node:node.exe
 0000:fffaf000       .debug$S                   0000000180000000     node:node.exe
 0000:fffaf000       .debug$S                   0000000180000000     node:node.exe
 0000:fffaf000       .debug$S                   0000000180000000     node:node.exe
 0000:fffaf000       .debug$S                   0000000180000000     node:node.exe
 0000:fffaf000       .debug$S                   0000000180000000     node:node.exe
 0000:fffaf000       .debug$S                   0000000180000000     node:node.exe
 0000:fffaf000       .debug$S                   0000000180000000     node:node.exe
 0000:fffaf000       .debug$S                   0000000180000000     node:node.exe
 0000:fffaf000       .debug$S                   0000000180000000     node:node.exe
 0000:fffaf000       .debug$S                   0000000180000000     node:node.exe
 0000:fffaf000       .debug$S                   0000000180000000     node:node.exe
 0000:fffaf000       .debug$S                   0000000180000000     node:node.exe
 0000:fffaf000       .debug$S                   0000000180000000     node:node.exe
 0000:fffaf000       .debug$S                   0000000180000000     node:node.exe
 0000:fffaf000       .debug$S                   0000000180000000     node:node.exe
 0000:fffaf000       .debug$S                   0000000180000000     node:node.exe
 0000:fffaf000       .debug$S                   0000000180000000     node:node.exe
 0000:fffaf000       .debug$S                   0000000180000000     node:node.exe
 0000:fffaf000       .debug$S                   0000000180000000     node:node.exe
 0000:fffaf000       .debug$S                   0000000180000000     node:node.exe
 0000:fffaf000       .debug$S                   0000000180000000     node:node.exe
 0000:fffaf000       .debug$S                   0000000180000000     node:node.exe
 0000:fffaf000       .debug$S                   0000000180000000     node:node.exe
 0000:fffaf000       .debug$S                   0000000180000000     node:node.exe
 0000:fffaf000       .debug$S                   0000000180000000     node:node.exe
 0000:fffaf000       .debug$S                   0000000180000000     node:node.exe
 0000:fffaf000       .debug$S                   0000000180000000     node:node.exe
 0000:fffaf000       .debug$S                   0000000180000000     node:node.exe
 0000:fffaf000       .debug$S                   0000000180000000     node:node.exe
 0000:fffaf000       .debug$S                   0000000180000000     node:node.exe
 0000:fffaf000       .debug$S                   0000000180000000     node:node.exe
 0000:fffaf000       .debug$S                   0000000180000000     node:node.exe
 0000:fffaf000       .debug$S                   0000000180000000     node:node.exe
 0000:fffaf000       .debug$S                   0000000180000000     node:node.exe
 0000:fffaf000       .debug$S                   0000000180000000     node:node.exe
 0000:fffaf000       .debug$S                   0000000180000000     node:node.exe
 0000:fffaf000       .debug$S                   0000000180000000     node:node.exe
 0000:fffaf000       .debug$S                   0000000180000000     node:node.exe
 0000:fffaf000       .debug$S                   0000000180000000     node:node.exe
 0000:fffaf000       .debug$S                   0000000180000000     node:node.exe
 0000:fffaf000       .debug$S                   0000000180000000     node:node.exe
 0000:fffaf000       .debug$S                   0000000180000000     node:node.exe
 0000:fffaf000       .debug$S                   0000000180000000     node:node.exe
 0000:fffaf000       .debug$S                   0000000180000000     node:node.exe
 0000:fffaf000       .debug$S                   0000000180000000     node:node.exe
 0000:fffaf000       .debug$S                   0000000180000000     node:node.exe
 0000:fffaf000       .debug$S                   0000000180000000     node:node.exe
 0000:fffaf000       .debug$S                   0000000180000000     node:node.exe
 0000:fffaf000       .debug$S                   0000000180000000     node:node.exe
 0000:fffaf000       .debug$S                   0000000180000000     node:node.exe
 0000:fffaf000       .debug$S                   0000000180000000     node:node.exe
 0000:fffaf000       .debug$S                   0000000180000000     node:node.exe
 0000:fffaf000       .debug$S                   0000000180000000     node:node.exe
 0000:fffaf000       .debug$S                   0000000180000000     node:node.exe
 0000:fffaf000       .debug$S                   0000000180000000     node:node.exe
 0000:fffaf000       .debug$S                   0000000180000000     node:node.exe
 0000:fffaf000       .debug$S                   0000000180000000     node:node.exe
 0000:fffaf000       .debug$S                   0000000180000000     node:node.exe
 0000:fffaf000       .debug$S                   0000000180000000     node:node.exe
 0000:fffaf000       .debug$S                   0000000180000000     node:node.exe
 0000:fffaf000       .debug$S                   0000000180000000     node:node.exe
 0000:fffaf000       .debug$S                   0000000180000000     node:node.exe
 0000:fffaf000       .debug$S                   0000000180000000     librdkafkacpp:librdkafkacpp.dll
 0000:fffaf000       .debug$S                   0000000180000000     librdkafkacpp:librdkafkacpp.dll
 0000:fffaf000       .debug$S                   0000000180000000     librdkafkacpp:librdkafkacpp.dll
 0000:fffaf000       .debug$S                   0000000180000000     librdkafkacpp:librdkafkacpp.dll
 0000:fffaf000       .debug$S                   0000000180000000     librdkafkacpp:librdkafkacpp.dll
 0000:fffaf000       .debug$S                   0000000180000000     librdkafkacpp:librdkafkacpp.dll
 0000:fffaf000       .debug$S                   0000000180000000     librdkafkacpp:librdkafkacpp.dll
 0000:fffaf000       .debug$S                   0000000180000000     librdkafkacpp:librdkafkacpp.dll
 0000:fffaf000       .debug$S                   0000000180000000     librdkafkacpp:librdkafkacpp.dll
 0000:fffaf000       .debug$S                   0000000180000000     librdkafkacpp:librdkafkacpp.dll
 0000:fffaf000       .debug$S                   0000000180000000     librdkafkacpp:librdkafkacpp.dll
 0000:fffaf000       .debug$S                   0000000180000000     librdkafkacpp:librdkafkacpp.dll
 0000:fffaf000       .debug$S                   0000000180000000     librdkafkacpp:librdkafkacpp.dll
 0000:fffaf000       .debug$S                   0000000180000000     librdkafkacpp:librdkafkacpp.dll
 0000:fffaf000       .debug$S                   0000000180000000     librdkafkacpp:librdkafkacpp.dll
 0000:fffaf000       .debug$S                   0000000180000000     librdkafkacpp:librdkafkacpp.dll
 0000:fffaf000       .debug$S                   0000000180000000     librdkafkacpp:librdkafkacpp.dll
 0000:fffaf000       .debug$S                   0000000180000000     librdkafkacpp:librdkafkacpp.dll
 0000:fffaf000       .debug$S                   0000000180000000     librdkafkacpp:librdkafkacpp.dll
 0000:fffaf000       .debug$S                   0000000180000000     librdkafkacpp:librdkafkacpp.dll
 0000:fffaf000       .debug$S                   0000000180000000     librdkafkacpp:librdkafkacpp.dll
 0000:fffaf000       .debug$S                   0000000180000000     librdkafkacpp:librdkafkacpp.dll
 0000:fffaf000       .debug$S                   0000000180000000     librdkafkacpp:librdkafkacpp.dll
 0000:fffaf000       .debug$S                   0000000180000000     librdkafkacpp:librdkafkacpp.dll
 0000:fffaf000       .debug$S                   0000000180000000     librdkafkacpp:librdkafkacpp.dll
 0000:fffaf000       .debug$S                   0000000180000000     librdkafkacpp:librdkafkacpp.dll
 0000:fffaf000       .debug$S                   0000000180000000     librdkafkacpp:librdkafkacpp.dll
 0000:fffaf000       .debug$S                   0000000180000000     librdkafkacpp:librdkafkacpp.dll
 0000:fffaf000       .debug$S                   0000000180000000     librdkafkacpp:librdkafkacpp.dll
 0000:fffaf000       .debug$S                   0000000180000000     node:node.exe
 0000:fffaf000       .debug$S                   0000000180000000     node:node.exe
 0000:fffaf000       .debug$S                   0000000180000000     node:node.exe
 0000:fffaf000       .debug$S                   0000000180000000     node:node.exe
 0000:fffaf000       .debug$S                   0000000180000000     node:node.exe
 0000:fffaf000       .debug$S                   0000000180000000     node:node.exe
 0000:fffaf000       .debug$S                   0000000180000000     node:node.exe
 0000:fffaf000       .debug$S                   0000000180000000     node:node.exe
 0000:fffaf000       .debug$S                   0000000180000000     node:node.exe
 0000:fffaf000       .debug$S                   0000000180000000     node:node.exe
 0000:fffaf000       .debug$S                   0000000180000000     node:node.exe
 0000:fffaf000       .debug$S                   0000000180000000     node:node.exe
 0000:fffaf000       .debug$S                   0000000180000000     node:node.exe
 0000:fffaf000       .debug$S                   0000000180000000     node:node.exe
 0000:fffaf000       .debug$S                   0000000180000000     node:node.exe
 0000:fffaf000       .debug$S                   0000000180000000     node:node.exe
 0000:fffaf000       .debug$S                   0000000180000000     node:node.exe
 0000:fffaf000       .debug$S                   0000000180000000     node:node.exe
 0000:fffaf000       .debug$S                   0000000180000000     node:node.exe
 0000:fffaf000       .debug$S                   0000000180000000     node:node.exe
 0000:fffaf000       .debug$S                   0000000180000000     node:node.exe
 0000:fffaf000       .debug$S                   0000000180000000     node:node.exe
 0000:fffaf000       .debug$S                   0000000180000000     node:node.exe
 0000:fffaf000       .debug$S                   0000000180000000     node:node.exe
 0000:fffaf000       .debug$S                   0000000180000000     node:node.exe
 0000:fffaf000       .debug$S                   0000000180000000     node:node.exe
 0000:fffaf000       .debug$S                   0000000180000000     node:node.exe
 0000:fffaf000       .debug$S                   0000000180000000     node:node.exe
 0000:fffaf000       .debug$S                   0000000180000000     node:node.exe
 0000:fffaf000       .debug$S                   0000000180000000     node:node.exe
 0000:fffaf000       .debug$S                   0000000180000000     node:node.exe
 0000:fffaf000       .debug$S                   0000000180000000     node:node.exe
 0000:fffaf000       .debug$S                   0000000180000000     node:node.exe
 0000:fffaf000       .debug$S                   0000000180000000     node:node.exe
 0001:00000000       ??__Epiecewise_construct@std@@YAXXZ 0000000180001000 f   binding.obj
 0001:00000010       ??__Eallocator_arg@std@@YAXXZ 0000000180001010 f   binding.obj
 0001:00000020       ??__Epiecewise_construct@std@@YAXXZ 0000000180001020 f   callbacks.obj
 0001:00000030       ??__Eallocator_arg@std@@YAXXZ 0000000180001030 f   callbacks.obj
 0001:00000040       ??__Epiecewise_construct@std@@YAXXZ 0000000180001040 f   common.obj
 0001:00000050       ??__Eallocator_arg@std@@YAXXZ 0000000180001050 f   common.obj
 0001:00000060       ??__Epiecewise_construct@std@@YAXXZ 0000000180001060 f   config.obj
 0001:00000070       ??__Eallocator_arg@std@@YAXXZ 0000000180001070 f   config.obj
 0001:00000080       ??__Epiecewise_construct@std@@YAXXZ 0000000180001080 f   connection.obj
 0001:00000090       ??__Eallocator_arg@std@@YAXXZ 0000000180001090 f   connection.obj
 0001:000000a0       ??__Epiecewise_construct@std@@YAXXZ 00000001800010a0 f   errors.obj
 0001:000000b0       ??__Eallocator_arg@std@@YAXXZ 00000001800010b0 f   errors.obj
 0001:000000c0       ??__Epiecewise_construct@std@@YAXXZ 00000001800010c0 f   kafka-consumer.obj
 0001:000000d0       ??__Eallocator_arg@std@@YAXXZ 00000001800010d0 f   kafka-consumer.obj
 0001:000000e0       ??__E?constructor@KafkaConsumer@NodeKafka@@1V?$Persistent@VFunction@v8@@V?$NonCopyablePersistentTraits@VFunction@v8@@@2@@Nan@@A@@YAXXZ 00000001800010e0 f   kafka-consumer.obj
 0001:00000100       ??__Epiecewise_construct@std@@YAXXZ 0000000180001100 f   producer.obj
 0001:00000110       ??__Eallocator_arg@std@@YAXXZ 0000000180001110 f   producer.obj
 0001:00000120       ??__E?constructor@Producer@NodeKafka@@1V?$Persistent@VFunction@v8@@V?$NonCopyablePersistentTraits@VFunction@v8@@@2@@Nan@@A@@YAXXZ 0000000180001120 f   producer.obj
 0001:00000140       ??__Epiecewise_construct@std@@YAXXZ 0000000180001140 f   topic.obj
 0001:00000150       ??__Eallocator_arg@std@@YAXXZ 0000000180001150 f   topic.obj
 0001:00000160       ??__E?constructor@Topic@NodeKafka@@1V?$Persistent@VFunction@v8@@V?$NonCopyablePersistentTraits@VFunction@v8@@@2@@Nan@@A@@YAXXZ 0000000180001160 f   topic.obj
 0001:00000180       ??__Epiecewise_construct@std@@YAXXZ 0000000180001180 f   workers.obj
 0001:00000190       ??__Eallocator_arg@std@@YAXXZ 0000000180001190 f   workers.obj
 0001:00000194       ??__E_Fac_tidy_reg@std@@YAXXZ 0000000180001194 f   libcpmt:locale0.obj
 0001:000001a0       ??__Eclassic_locale@std@@YAXXZ 00000001800011a0 f   libcpmt:locale0.obj
 0001:000001ac       ??__Ecerr@std@@YAXXZ       00000001800011ac f   libcpmt:cerr.obj
 0001:000001dc       ??__Eferr@std@@YAXXZ       00000001800011dc f   libcpmt:cerr.obj
 0001:00000228       ??__Einit_cerr@std@@YAXXZ  0000000180001228 f   libcpmt:cerr.obj
 0001:00000260       ??__Einitlocks@@YAXXZ      0000000180001260 f   libcpmt:cerr.obj
 0001:00000280       ??__Einitlocks@std@@YAXXZ  0000000180001280 f   libcpmt:xlock.obj
 0001:000002a0       ??__Ecout@std@@YAXXZ       00000001800012a0 f   libcpmt:cout.obj
 0001:000002d0       ??__Efout@std@@YAXXZ       00000001800012d0 f   libcpmt:cout.obj
 0001:0000031c       ??__Einit_cout@std@@YAXXZ  000000018000131c f   libcpmt:cout.obj
 0001:00000328       ??__Einitlocks@@YAXXZ      0000000180001328 f   libcpmt:cout.obj
 0001:00000348       ??__Einit_atexit@@YAXXZ    0000000180001348 f   libcpmt:iosptrs.obj
 0001:00000354       ??__Einitlocks@std@@YAXXZ  0000000180001354 f   libcpmt:iosptrs.obj
 0001:00000380       ?FunctionCallbackWrapper@imp@Nan@@YAXAEBV?$FunctionCallbackInfo@VValue@v8@@@v8@@@Z 0000000180001380 f   binding.obj
 0001:00000620       ?RdKafkaCleanup@@YAXPEAX@Z 0000000180001620 f   binding.obj
 0001:00002570       _register_kafka            0000000180003570 f   binding.obj
 0001:00017ad0       load_exe_hook              0000000180018ad0 f   win_delay_load_hook.obj
 0001:0001853c       tidy_global                000000018001953c f   libcpmt:locale0.obj
 0001:0001a030       $$000000                   000000018001b030     LIBCMT:amdsecgs.obj
 0001:0001a060       $$000000                   000000018001b060     LIBCMT:memcpy.obj
 0001:0001a150       MoveSmall                  000000018001b150     LIBCMT:memcpy.obj
 0001:0001af18       swprintf                   000000018001bf18 f   LIBCMT:wassert.obj
 0001:0001b8f4       __DllMainCRTStartup        000000018001c8f4 f   LIBCMT:dllcrt0.obj
 0001:0001ba20       $$000000                   000000018001ca20     LIBCMT:strlen.obj
 0001:0001cb70       flsall                     000000018001db70 f   LIBCMT:fflush.obj
 0001:0001d540       $$000000                   000000018001e540     LIBCMT:memset.obj
 0001:0001d6e5       MsetTab                    000000018001e6e5     LIBCMT:memset.obj
 0001:0001e0d4       ?__crtLCMapStringA_stat@@YAHPEAUlocaleinfo_struct@@PEB_WKPEBDHPEADHHH@Z 000000018001f0d4 f   LIBCMT:a_map.obj
 0001:0001e6b8       ?x_ismbbtype_l@@YAHPEAUlocaleinfo_struct@@IHH@Z 000000018001f6b8 f   LIBCMT:ismbbyte.obj
 0001:0001e750       $$000000                   000000018001f750     LIBCMT:strcmp.obj
 0001:0001eff0       $$000000                   000000018001fff0     LIBCMT:memcmp.obj
 0001:0001f27c       __crtEnumLocalesProc       000000018002027c f   LIBCMT:winapinls.obj
 0001:0001fce4       _initterm                  0000000180020ce4 f   LIBCMT:crt0dat.obj
 0001:0001fd98       doexit                     0000000180020d98 f   LIBCMT:crt0dat.obj
 0001:0001ff98       xtow_s                     0000000180020f98 f   LIBCMT:xtows.obj
 0001:00021810       ?getSystemCP@@YAHH@Z       0000000180022810 f   LIBCMT:mbctype.obj
 0001:00021890       ?setSBCS@@YAXPEAUthreadmbcinfostruct@@@Z 0000000180022890 f   LIBCMT:mbctype.obj
 0001:00021920       ?setSBUpLow@@YAXPEAUthreadmbcinfostruct@@@Z 0000000180022920 f   LIBCMT:mbctype.obj
 0001:000223dc       _copytlocinfo_nolock       00000001800233dc f   LIBCMT:wsetloca.obj
 0001:00022a70       _wsetlocale_get_all        0000000180023a70 f   LIBCMT:wsetloca.obj
 0001:00022c44       _wsetlocale_nolock         0000000180023c44 f   LIBCMT:wsetloca.obj
 0001:00022eb0       _wsetlocale_set_cat        0000000180023eb0 f   LIBCMT:wsetloca.obj
 0001:00023838       parse_cmdline              0000000180024838 f   LIBCMT:stdargv.obj
 0001:00023e24       ?CatchIt@@YAXPEAUEHExceptionRecord@@PEA_KPEAU_CONTEXT@@PEAU_xDISPATCHER_CONTEXT@@PEBU_s_FuncInfo@@PEBU_s_HandlerType@@PEBU_s_CatchableType@@PEBU_s_TryBlockMapEntry@@H1EE@Z 0000000180024e24 f   LIBCMT:frame.obj
 0001:00023ee8       ?FindHandler@@YAXPEAUEHExceptionRecord@@PEA_KPEAU_CONTEXT@@PEAU_xDISPATCHER_CONTEXT@@PEBU_s_FuncInfo@@EH1@Z 0000000180024ee8 f   LIBCMT:frame.obj
 0001:0002439c       ?FindHandlerForForeignException@@YAXPEAUEHExceptionRecord@@PEA_KPEAU_CONTEXT@@PEAU_xDISPATCHER_CONTEXT@@PEBU_s_FuncInfo@@HH1@Z 000000018002539c f   LIBCMT:frame.obj
 0001:00024604       ?IsInExceptionSpec@@YAEPEAUEHExceptionRecord@@PEBU_s_ESTypeList@@@Z 0000000180025604 f   LIBCMT:frame.obj
 0001:0002572c       _cftoe2_l                  000000018002672c f   LIBCMT:cvt.obj
 0001:00025a20       _cftof2_l                  0000000180026a20 f   LIBCMT:cvt.obj
 0001:00027ad4       ?__crtGetStringTypeA_stat@@YAHPEAUlocaleinfo_struct@@KPEBDHPEAGHH@Z 0000000180028ad4 f   LIBCMT:a_str.obj
 0001:00027cd0       $$000000                   0000000180028cd0     LIBCMT:chkstk.obj
 0001:00028d38       write_char                 0000000180029d38 f   LIBCMT:woutput.obj
 0001:00028d70       write_multi_char           0000000180029d70 f   LIBCMT:woutput.obj
 0001:00028dc4       write_string               0000000180029dc4 f   LIBCMT:woutput.obj
 0001:00028f30       $$000000                   0000000180029f30     LIBCMT:jmpuwind.obj
 0001:00029060       ?__crtGetLocaleInfoA_stat@@YAHPEAUlocaleinfo_struct@@PEB_WKPEADH@Z 000000018002a060 f   LIBCMT:a_loc.obj
 0001:00029240       $$000000                   000000018002a240     LIBCMT:fpsr.obj
 0001:0002a294       _get_lc_time               000000018002b294 f   LIBCMT:inittime.obj
 0001:0002aef0       GetLocaleNameFromLangCountry 000000018002bef0 f   LIBCMT:getqloc.obj
 0001:0002afa0       GetLocaleNameFromLanguage  000000018002bfa0 f   LIBCMT:getqloc.obj
 0001:0002b028       LangCountryEnumProcEx      000000018002c028 f   LIBCMT:getqloc.obj
 0001:0002b3b4       LanguageEnumProcEx         000000018002c3b4 f   LIBCMT:getqloc.obj
 0001:0002b494       ProcessCodePage            000000018002c494 f   LIBCMT:getqloc.obj
 0001:0002b548       TestDefaultCountry         000000018002c548 f   LIBCMT:getqloc.obj
 0001:0002b5b0       TranslateName              000000018002c5b0 f   LIBCMT:getqloc.obj
 0001:0002b5b0       TranslateName              000000018002c5b0 f   LIBCMT:getqloc.obj
 0001:0002b8d8       CountryEnumProc            000000018002c8d8 f   LIBCMT:getqloc_downlevel.obj
 0001:0002b9c4       GetLcidFromLangCountry     000000018002c9c4 f   LIBCMT:getqloc_downlevel.obj
 0001:0002ba78       GetLcidFromLanguage        000000018002ca78 f   LIBCMT:getqloc_downlevel.obj
 0001:0002bb0c       LangCountryEnumProc        000000018002cb0c f   LIBCMT:getqloc_downlevel.obj
 0001:0002bd3c       LanguageEnumProc           000000018002cd3c f   LIBCMT:getqloc_downlevel.obj
 0001:0002be38       LcidFromHexString          000000018002ce38 f   LIBCMT:getqloc_downlevel.obj
 0001:0002be88       ProcessCodePage            000000018002ce88 f   LIBCMT:getqloc_downlevel.obj
 0001:0002bf38       TestDefaultLanguage        000000018002cf38 f   LIBCMT:getqloc_downlevel.obj
 0001:0002c290       $$000000                   000000018002d290     LIBCMT:handlers.obj
 0001:0002d87c       ?wcstoxl@@YAKPEB_WPEAPEB_WHH@Z 000000018002e87c f   LIBCMT:wcstol.obj
 0001:000303b4       ?FindMITargetTypeInstance@@YAPEBU_s_RTTIBaseClassDescriptor@@PEAXPEBU_s_RTTICompleteObjectLocator@@PEAUTypeDescriptor@@_J2_K@Z 00000001800313b4 f   LIBCMT:rtti.obj
 0001:0003052c       ?FindSITargetTypeInstance@@YAPEBU_s_RTTIBaseClassDescriptor@@PEBU_s_RTTICompleteObjectLocator@@PEAUTypeDescriptor@@1_K@Z 000000018003152c f   LIBCMT:rtti.obj
 0001:00030600       ?FindVITargetTypeInstance@@YAPEBU_s_RTTIBaseClassDescriptor@@PEAXPEBU_s_RTTICompleteObjectLocator@@PEAUTypeDescriptor@@_J2_K@Z 0000000180031600 f   LIBCMT:rtti.obj
 0001:000309c0       ?dtor$0@?0??_Init@locale@std@@CAPEAV_Locimp@12@_N@Z@4HA 00000001800319c0 f   libcpmt:locale0.obj
 0001:000309c0       ?dtor$0@?0??_Locimp_dtor@_Locimp@locale@std@@CAXPEAV123@@Z@4HA 00000001800319c0 f   libcpmt:locale0.obj
 0001:000309cc       ?dtor$0@?0???$use_facet@V?$codecvt@DDH@std@@@std@@YAAEBV?$codecvt@DDH@0@AEBVlocale@0@@Z@4HA 00000001800319cc f   libcpmt:cerr.obj
 0001:000309d8       ?dtor$0@?0???0?$basic_ostream@DU?$char_traits@D@std@@@std@@QEAA@PEAV?$basic_streambuf@DU?$char_traits@D@std@@@1@_N@Z@4HA 00000001800319d8 f   libcpmt:cerr.obj
 0001:00030a02       ?dtor$0@?0??_Endwrite@?$basic_filebuf@DU?$char_traits@D@std@@@std@@IEAA_NXZ@4HA 0000000180031a02 f   libcpmt:cerr.obj
 0001:00030a0e       ?dtor$0@?0??_Getcat@?$codecvt@DDH@std@@SA_KPEAPEBVfacet@locale@2@PEBV42@@Z@4HA 0000000180031a0e f   libcpmt:cerr.obj
 0001:00030a1a       ?dtor$0@?0??init@?$basic_ios@DU?$char_traits@D@std@@@std@@IEAAXPEAV?$basic_streambuf@DU?$char_traits@D@std@@@2@_N@Z@4HA 0000000180031a1a f   libcpmt:cerr.obj
 0001:00030a26       ?dtor$0@?0??overflow@?$basic_filebuf@DU?$char_traits@D@std@@@std@@MEAAHH@Z@4HA 0000000180031a26 f   libcpmt:cerr.obj
 0001:00030a26       ?dtor$0@?0??uflow@?$basic_filebuf@DU?$char_traits@D@std@@@std@@MEAAHXZ@4HA 0000000180031a26 f   libcpmt:cerr.obj
 0001:00030a32       _onexit$fin$0              0000000180031a32 f   LIBCMT:onexit.obj
 0001:00030a46       _CRT_INIT$fin$0            0000000180031a46 f   LIBCMT:dllcrt0.obj
 0001:00030a6c       __DllMainCRTStartup$filt$0 0000000180031a6c f   LIBCMT:dllcrt0.obj
 0001:00030ab5       _CallSETranslator$filt$0   0000000180031ab5 f   LIBCMT:trnsctrl.obj
 0001:00030afb       setlocale$fin$0            0000000180031afb f   LIBCMT:setlocal.obj
 0001:00030b16       flsall$fin$0               0000000180031b16 f   LIBCMT:fflush.obj
 0001:00030b3e       flsall$fin$1               0000000180031b3e f   LIBCMT:fflush.obj
 0001:00030b57       fwrite$fin$0               0000000180031b57 f   LIBCMT:fwrite.obj
 0001:00030b6f       setvbuf$fin$0              0000000180031b6f f   LIBCMT:setvbuf.obj
 0001:00030b87       ungetc$fin$0               0000000180031b87 f   LIBCMT:ungetc.obj
 0001:00030b87       fputc$fin$0                0000000180031b87 f   LIBCMT:ungetc.obj
 0001:00030b9f       _mtinitlocknum$fin$0       0000000180031b9f f   LIBCMT:mlock.obj
 0001:00030bbc       doexit$fin$0               0000000180031bbc f   LIBCMT:crt0dat.obj
 0001:00030be0       fwprintf$fin$0             0000000180031be0 f   LIBCMT:fwprintf.obj
 0001:00030bfa       raise$fin$0                0000000180031bfa f   LIBCMT:winsig.obj
 0001:00030c18       ?fin$0@?0??_Type_info_dtor@type_info@@CAXPEAV1@@Z@4HA 0000000180031c18 f   LIBCMT:typname.obj
 0001:00030c31       _initptd$fin$1             0000000180031c31 f   LIBCMT:tidtable.obj
 0001:00030c31       _freefls$fin$1             0000000180031c31 f   LIBCMT:tidtable.obj
 0001:00030c4a       _initptd$fin$0             0000000180031c4a f   LIBCMT:tidtable.obj
 0001:00030c4a       _freefls$fin$0             0000000180031c4a f   LIBCMT:tidtable.obj
 0001:00030c63       _setmbcp$fin$0             0000000180031c63 f   LIBCMT:mbctype.obj
 0001:00030c63       __updatetmbcinfo$fin$0     0000000180031c63 f   LIBCMT:mbctype.obj
 0001:00030c7c       _locterm$fin$0             0000000180031c7c f   LIBCMT:wsetloca.obj
 0001:00030c7c       __updatetlocinfo$fin$0     0000000180031c7c f   LIBCMT:wsetloca.obj
 0001:00030c95       _wsetlocale$fin$1          0000000180031c95 f   LIBCMT:wsetloca.obj
 0001:00030cb0       _wsetlocale$fin$0          0000000180031cb0 f   LIBCMT:wsetloca.obj
 0001:00030ccb       _wsetlocale$fin$2          0000000180031ccb f   LIBCMT:wsetloca.obj
 0001:00030ce6       _ioinit$fin$0              0000000180031ce6 f   LIBCMT:ioinit.obj
 0001:00030d01       __CxxCallCatchBlock$filt$0 0000000180031d01 f   LIBCMT:frame.obj
 0001:00030df5       __CxxCallCatchBlock$fin$1  0000000180031df5 f   LIBCMT:frame.obj
 0001:00030e73       __DestructExceptionObject$filt$0 0000000180031e73 f   LIBCMT:frame.obj
 0001:00030e8b       __FrameUnwindToState$filt$0 0000000180031e8b f   LIBCMT:frame.obj
 0001:00030ea1       __FrameUnwindToState$fin$1 0000000180031ea1 f   LIBCMT:frame.obj
 0001:00030eca       _fcloseall$fin$0           0000000180031eca f   LIBCMT:closeall.obj
 0001:00030ee3       _close$fin$0               0000000180031ee3 f   LIBCMT:commit.obj
 0001:00030ee3       _commit$fin$0              0000000180031ee3 f   LIBCMT:commit.obj
 0001:00030efa       fclose$fin$0               0000000180031efa f   LIBCMT:ftelli64.obj
 0001:00030efa       _ftelli64$fin$0            0000000180031efa f   LIBCMT:ftelli64.obj
 0001:00030efa       _fseeki64$fin$0            0000000180031efa f   LIBCMT:ftelli64.obj
 0001:00030efa       fflush$fin$0               0000000180031efa f   LIBCMT:ftelli64.obj
 0001:00030efa       fgetc$fin$0                0000000180031efa f   LIBCMT:ftelli64.obj
 0001:00030f12       _lseeki64$fin$0            0000000180031f12 f   LIBCMT:lseeki64.obj
 0001:00030f12       _read$fin$0                0000000180031f12 f   LIBCMT:lseeki64.obj
 0001:00030f12       _write$fin$0               0000000180031f12 f   LIBCMT:lseeki64.obj
 0001:00030f30       _IsNonwritableInCurrentImage$filt$0 0000000180031f30 f   LIBCMT:pesect.obj
 0001:00030f50       __lock_fhandle$fin$0       0000000180031f50 f   LIBCMT:osfinfo.obj
 0001:00030f69       __RTDynamicCast$filt$0     0000000180031f69 f   LIBCMT:rtti.obj
 0001:00030f90       ??__F?constructor@KafkaConsumer@NodeKafka@@1V?$Persistent@VFunction@v8@@V?$NonCopyablePersistentTraits@VFunction@v8@@@2@@Nan@@A@@YAXXZ 0000000180031f90 f   kafka-consumer.obj
 0001:00030fa0       ??__F?constructor@Producer@NodeKafka@@1V?$Persistent@VFunction@v8@@V?$NonCopyablePersistentTraits@VFunction@v8@@@2@@Nan@@A@@YAXXZ 0000000180031fa0 f   producer.obj
 0001:00030fb0       ??__F?constructor@Topic@NodeKafka@@1V?$Persistent@VFunction@v8@@V?$NonCopyablePersistentTraits@VFunction@v8@@@2@@Nan@@A@@YAXXZ 0000000180031fb0 f   topic.obj
 0001:00030fb4       ??__F_Fac_tidy_reg@std@@YAXXZ 0000000180031fb4 f   libcpmt:locale0.obj
 0001:00031000       ??__Fclassic_locale@std@@YAXXZ 0000000180032000 f   libcpmt:locale0.obj
 0001:00031030       ??__Fcerr@std@@YAXXZ       0000000180032030 f   libcpmt:cerr.obj
 0001:0003107c       ??__Fferr@std@@YAXXZ       000000018003207c f   libcpmt:cerr.obj
 0001:00031088       ??__Finitlocks@@YAXXZ      0000000180032088 f   libcpmt:cerr.obj
 0001:00031094       ??__Finitlocks@std@@YAXXZ  0000000180032094 f   libcpmt:xlock.obj
 0001:000310a0       ??__Fcout@std@@YAXXZ       00000001800320a0 f   libcpmt:cout.obj
 0001:000310ec       ??__Ffout@std@@YAXXZ       00000001800320ec f   libcpmt:cout.obj
 0001:000310f8       ??__Finitlocks@@YAXXZ      00000001800320f8 f   libcpmt:cout.obj
 0001:00031104       ??__Finit_atexit@@YAXXZ    0000000180032104 f   libcpmt:iosptrs.obj
 0001:00031140       ??__Finitlocks@std@@YAXXZ  0000000180032140 f   libcpmt:iosptrs.obj
 0002:000002f0       initlocks$initializer$     00000001800332f0     libcpmt:cerr.obj
 0002:000002f8       ferr$initializer$          00000001800332f8     libcpmt:cerr.obj
 0002:00000300       cerr$initializer$          0000000180033300     libcpmt:cerr.obj
 0002:00000308       init_cerr$initializer$     0000000180033308     libcpmt:cerr.obj
 0002:00000310       initlocks$initializer$     0000000180033310     libcpmt:xlock.obj
 0002:00000318       initlocks$initializer$     0000000180033318     libcpmt:cout.obj
 0002:00000320       fout$initializer$          0000000180033320     libcpmt:cout.obj
 0002:00000328       cout$initializer$          0000000180033328     libcpmt:cout.obj
 0002:00000330       init_cout$initializer$     0000000180033330     libcpmt:cout.obj
 0002:00000338       initlocks$initializer$     0000000180033338     libcpmt:iosptrs.obj
 0002:00000340       init_atexit$initializer$   0000000180033340     libcpmt:iosptrs.obj
 0002:00000348       _Fac_tidy_reg$initializer$ 0000000180033348     libcpmt:locale0.obj
 0002:00000350       classic_locale$initializer$ 0000000180033350     libcpmt:locale0.obj
 0002:00000358       piecewise_construct$initializer$ 0000000180033358     binding.obj
 0002:00000360       allocator_arg$initializer$ 0000000180033360     binding.obj
 0002:00000368       piecewise_construct$initializer$ 0000000180033368     callbacks.obj
 0002:00000370       allocator_arg$initializer$ 0000000180033370     callbacks.obj
 0002:00000378       piecewise_construct$initializer$ 0000000180033378     common.obj
 0002:00000380       allocator_arg$initializer$ 0000000180033380     common.obj
 0002:00000388       piecewise_construct$initializer$ 0000000180033388     config.obj
 0002:00000390       allocator_arg$initializer$ 0000000180033390     config.obj
 0002:00000398       piecewise_construct$initializer$ 0000000180033398     connection.obj
 0002:000003a0       allocator_arg$initializer$ 00000001800333a0     connection.obj
 0002:000003a8       piecewise_construct$initializer$ 00000001800333a8     errors.obj
 0002:000003b0       allocator_arg$initializer$ 00000001800333b0     errors.obj
 0002:000003b8       piecewise_construct$initializer$ 00000001800333b8     kafka-consumer.obj
 0002:000003c0       ?constructor$initializer$@KafkaConsumer@NodeKafka@@1P6AXXZEA 00000001800333c0     kafka-consumer.obj
 0002:000003c8       allocator_arg$initializer$ 00000001800333c8     kafka-consumer.obj
 0002:000003d0       ?constructor$initializer$@Producer@NodeKafka@@1P6AXXZEA 00000001800333d0     producer.obj
 0002:000003d8       piecewise_construct$initializer$ 00000001800333d8     producer.obj
 0002:000003e0       allocator_arg$initializer$ 00000001800333e0     producer.obj
 0002:000003e8       piecewise_construct$initializer$ 00000001800333e8     topic.obj
 0002:000003f0       allocator_arg$initializer$ 00000001800333f0     topic.obj
 0002:000003f8       ?constructor$initializer$@Topic@NodeKafka@@1P6AXXZEA 00000001800333f8     topic.obj
 0002:00000400       piecewise_construct$initializer$ 0000000180033400     workers.obj
 0002:00000408       allocator_arg$initializer$ 0000000180033408     workers.obj
 0002:00000428       pinit                      0000000180033428     LIBCMT:onexit.obj
 0002:00000430       pinit                      0000000180033430     LIBCMT:_file.obj
 0002:00000438       pinit                      0000000180033438     LIBCMT:cpu_disp.obj
 0002:00000440       pinit                      0000000180033440     LIBCMT:mbctype.obj
 0002:00000458       pterm                      0000000180033458     LIBCMT:wsetloca.obj
 0002:00000460       pterm                      0000000180033460     LIBCMT:initcon.obj
 0002:00000468       pterm                      0000000180033468     LIBCMT:_file.obj
 0002:000004e0       _Win_errtab                00000001800334e0     libcpmt:syserror.obj
 0002:00000990       _Sys_errtab                0000000180033990     libcpmt:syserror.obj
 0002:00001840       $cppxdata$?_Locimp_dtor@_Locimp@locale@std@@CAXPEAV123@@Z 0000000180034840     libcpmt:locale0.obj
 0002:00001868       $cppxdata$?_Init@locale@std@@CAPEAV_Locimp@12@_N@Z 0000000180034868     libcpmt:locale0.obj
 0002:000018d8       $cppxdata$?init@?$basic_ios@DU?$char_traits@D@std@@@std@@IEAAXPEAV?$basic_streambuf@DU?$char_traits@D@std@@@2@_N@Z 00000001800348d8     libcpmt:cerr.obj
 0002:00001900       $cppxdata$??0?$basic_ostream@DU?$char_traits@D@std@@@std@@QEAA@PEAV?$basic_streambuf@DU?$char_traits@D@std@@@1@_N@Z 0000000180034900     libcpmt:cerr.obj
 0002:00001928       $cppxdata$?overflow@?$basic_filebuf@DU?$char_traits@D@std@@@std@@MEAAHH@Z 0000000180034928     libcpmt:cerr.obj
 0002:00001950       $cppxdata$?uflow@?$basic_filebuf@DU?$char_traits@D@std@@@std@@MEAAHXZ 0000000180034950     libcpmt:cerr.obj
 0002:00001978       $cppxdata$?_Endwrite@?$basic_filebuf@DU?$char_traits@D@std@@@std@@IEAA_NXZ 0000000180034978     libcpmt:cerr.obj
 0002:000019a0       $cppxdata$?_Getcat@?$codecvt@DDH@std@@SA_KPEAPEBVfacet@locale@2@PEBV42@@Z 00000001800349a0     libcpmt:cerr.obj
 0002:000019c8       $cppxdata$??$use_facet@V?$codecvt@DDH@std@@@std@@YAAEBV?$codecvt@DDH@0@AEBVlocale@0@@Z 00000001800349c8     libcpmt:cerr.obj
 0002:00001c00       digits                     0000000180034c00     libcpmt:xstoul.obj
 0002:00001c28       ndigs                      0000000180034c28     libcpmt:xstoul.obj
 0002:00001c50       digits                     0000000180034c50     libcpmt:xstoull.obj
 0002:00001c78       ndigs                      0000000180034c78     libcpmt:xstoull.obj
 0002:00001ca0       ?digits@?1??_Stoxflt@@9@9  0000000180034ca0     libcpmt:xstoxflt.obj
 0002:00001cb8       ?vals@?1??_Stoxflt@@9@9    0000000180034cb8     libcpmt:xstoxflt.obj
 0002:00001cd0       tenth                      0000000180034cd0     libcpmt:xfdtento.obj
 0002:00001ce8       tenth                      0000000180034ce8     libcpmt:xdtento.obj
 0002:00001d00       tenth                      0000000180034d00     libcpmt:xldtento.obj
 0002:00001d18       ?mask@?3??_FDint@@9@9      0000000180034d18     libcpmt:xfdint.obj
 0002:00001d38       ?sub@?3??_FDint@@9@9       0000000180034d38     libcpmt:xfdint.obj
 0002:00001d48       ?mask@?3??_Dint@@9@9       0000000180034d48     libcpmt:xdint.obj
 0002:00001d68       ?sub@?3??_Dint@@9@9        0000000180034d68     libcpmt:xdint.obj
 0002:00002020       ?ExceptionTemplate@?1??_CxxThrowException@@9@4UEHExceptionRecord@@B 0000000180035020     LIBCMT:throw.obj
 0002:00002060       ?ExceptionTemplate@?1??_UnwindNestedFrames@@9@4U_EXCEPTION_RECORD@@B 0000000180035060     LIBCMT:trnsctrl.obj
 0002:00006008       GS_ExceptionPointers       0000000180039008     LIBCMT:gs_report.obj
 0002:000060d0       rterrs                     00000001800390d0     LIBCMT:crt0msg.obj
 0002:00006fc8       _mb_locale_names           0000000180039fc8     LIBCMT:mbctype.obj
 0002:00007100       _first_127char             000000018003a100     LIBCMT:wsetloca.obj
 0002:000073b0       __real@433fffffffffffff    000000018003a3b0     LIBCMT:fpsr.obj
 0002:000073b8       __real@c33fffffffffffff    000000018003a3b8     LIBCMT:fpsr.obj
 0002:000073c0       tokenTable                 000000018003a3c0     LIBCMT:undname.obj
 0002:00007430       nameTable                  000000018003a430     LIBCMT:undname.obj
 0002:000076b0       rttiTable                  000000018003a6b0     LIBCMT:undname.obj
 0002:0000ceb0       $unwind$?FunctionCallbackWrapper@imp@Nan@@YAXAEBV?$FunctionCallbackInfo@VValue@v8@@@v8@@@Z 000000018003feb0     binding.obj
 0002:0000ceb0       $unwind$_setargv           000000018003feb0     LIBCMT:stdargv.obj
 0002:0000cec0       $unwind$?New@?$Factory@VFunctionTemplate@v8@@@imp@Nan@@SA?AV?$Local@VFunctionTemplate@v8@@@v8@@P6AXAEBV?$FunctionCallbackInfo@VValue@v8@@@3@@ZV?$Local@VValue@v8@@@5@V?$Local@VSignature@v8@@@5@@Z 000000018003fec0     binding.obj
 0002:0000ced0       $chain$0$?New@?$Factory@VFunctionTemplate@v8@@@imp@Nan@@SA?AV?$Local@VFunctionTemplate@v8@@@v8@@P6AXAEBV?$FunctionCallbackInfo@VValue@v8@@@3@@ZV?$Local@VValue@v8@@@5@V?$Local@VSignature@v8@@@5@@Z 000000018003fed0     binding.obj
 0002:0000cee4       $chain$1$?New@?$Factory@VFunctionTemplate@v8@@@imp@Nan@@SA?AV?$Local@VFunctionTemplate@v8@@@v8@@P6AXAEBV?$FunctionCallbackInfo@VValue@v8@@@3@@ZV?$Local@VValue@v8@@@5@V?$Local@VSignature@v8@@@5@@Z 000000018003fee4     binding.obj
 0002:0000cef8       $chain$2$?New@?$Factory@VFunctionTemplate@v8@@@imp@Nan@@SA?AV?$Local@VFunctionTemplate@v8@@@v8@@P6AXAEBV?$FunctionCallbackInfo@VValue@v8@@@3@@ZV?$Local@VValue@v8@@@5@V?$Local@VSignature@v8@@@5@@Z 000000018003fef8     binding.obj
 0002:0000cf08       $chain$3$?New@?$Factory@VFunctionTemplate@v8@@@imp@Nan@@SA?AV?$Local@VFunctionTemplate@v8@@@v8@@P6AXAEBV?$FunctionCallbackInfo@VValue@v8@@@3@@ZV?$Local@VValue@v8@@@5@V?$Local@VSignature@v8@@@5@@Z 000000018003ff08     binding.obj
 0002:0000cf18       $unwind$?NodeRdKafkaErr2Str@@YAXAEBV?$FunctionCallbackInfo@VValue@v8@@@Nan@@@Z 000000018003ff18     binding.obj
 0002:0000cf38       $unwind$?NodeRdKafkaBuildInFeatures@@YAXAEBV?$FunctionCallbackInfo@VValue@v8@@@Nan@@@Z 000000018003ff38     binding.obj
 0002:0000cf4c       $chain$3$?NodeRdKafkaBuildInFeatures@@YAXAEBV?$FunctionCallbackInfo@VValue@v8@@@Nan@@@Z 000000018003ff4c     binding.obj
 0002:0000cf6c       $chain$4$?NodeRdKafkaBuildInFeatures@@YAXAEBV?$FunctionCallbackInfo@VValue@v8@@@Nan@@@Z 000000018003ff6c     binding.obj
 0002:0000cf80       $chain$5$?NodeRdKafkaBuildInFeatures@@YAXAEBV?$FunctionCallbackInfo@VValue@v8@@@Nan@@@Z 000000018003ff80     binding.obj
 0002:0000cf90       $chain$6$?NodeRdKafkaBuildInFeatures@@YAXAEBV?$FunctionCallbackInfo@VValue@v8@@@Nan@@@Z 000000018003ff90     binding.obj
 0002:0000cfa0       $unwind$?ConstantsInit@@YAXV?$Local@VObject@v8@@@v8@@@Z 000000018003ffa0     binding.obj
 0002:0000cfac       $unwind$?Init@@YAXV?$Local@VObject@v8@@@v8@@0@Z 000000018003ffac     binding.obj
 0002:0000cfbc       $unwind$_lock_file         000000018003ffbc     LIBCMT:_file.obj
 0002:0000cfbc       $unwind$??_G_System_error@std@@UEAAPEAXI@Z 000000018003ffbc     common.obj
 0002:0000cfbc       $unwind$??1?$basic_filebuf@DU?$char_traits@D@std@@@std@@UEAA@XZ 000000018003ffbc     libcpmt:cerr.obj
 0002:0000cfbc       $unwind$?AsyncExecuteComplete@Nan@@YAXPEAUuv_work_s@@@Z 000000018003ffbc     connection.obj
 0002:0000cfbc       $unwind$__onexitinit       000000018003ffbc     LIBCMT:onexit.obj
 0002:0000cfbc       $unwind$_lock_file2        000000018003ffbc     LIBCMT:_file.obj
 0002:0000cfbc       $unwind$?do_narrow@?$ctype@D@std@@MEBAPEBDPEBD0DPEAD@Z 000000018003ffbc     common.obj
 0002:0000cfbc       $unwind$?AsyncQueueWorker@Nan@@YAXPEAVAsyncWorker@1@@Z 000000018003ffbc     connection.obj
 0002:0000cfbc       $unwind$?do_widen@?$ctype@D@std@@MEBAPEBDPEBD0PEAD@Z 000000018003ffbc     common.obj
 0002:0000cfbc       $unwind$??0exception@std@@QEAA@AEBQEBD@Z 000000018003ffbc     LIBCMT:stdexcpt.obj
 0002:0000cfbc       $unwind$?setbuf@?$basic_filebuf@DU?$char_traits@D@std@@@std@@MEAAPEAV?$basic_streambuf@DU?$char_traits@D@std@@@2@PEAD_J@Z 000000018003ffbc     libcpmt:cerr.obj
 0002:0000cfbc       $unwind$?imbue@?$basic_filebuf@DU?$char_traits@D@std@@@std@@MEAAXAEBVlocale@2@@Z 000000018003ffbc     libcpmt:cerr.obj
 0002:0000cfbc       $unwind$??1?$basic_string@DU?$char_traits@D@std@@V?$allocator@D@2@@std@@QEAA@XZ 000000018003ffbc     binding.obj
 0002:0000cfbc       $unwind$??1Topic@NodeKafka@@EEAA@XZ 000000018003ffbc     topic.obj
 0002:0000cfbc       $unwind$??0exception@std@@QEAA@AEBV01@@Z 000000018003ffbc     LIBCMT:stdexcpt.obj
 0002:0000cfbc       $unwind$load_exe_hook      000000018003ffbc     win_delay_load_hook.obj
 0002:0000cfbc       $unwind$??1ObjectWrap@Nan@@UEAA@XZ 000000018003ffbc     connection.obj
 0002:0000cfbc       $unwind$__crtIsPackagedApp 000000018003ffbc     LIBCMT:winapisupp.obj
 0002:0000cfbc       $unwind$?AsyncClose_@MessageWorker@Workers@NodeKafka@@CAXPEAUuv_handle_s@@@Z 000000018003ffbc     workers.obj
 0002:0000cfbc       $unwind$_Getctype          000000018003ffbc     libcpmt:_tolower.obj
 0002:0000cfbc       $unwind$?Ref@ObjectWrap@Nan@@MEAAXXZ 000000018003ffbc     connection.obj
 0002:0000cfbc       $unwind$__crtUnhandledException 000000018003ffbc     LIBCMT:winapisupp.obj
 0002:0000cfbc       $unwind$??_G?$codecvt@DDH@std@@MEAAPEAXI@Z 000000018003ffbc     libcpmt:cerr.obj
 0002:0000cfbc       $unwind$?_Tidy@exception@std@@AEAAXXZ 000000018003ffbc     LIBCMT:stdexcpt.obj
 0002:0000cfbc       $unwind$?DeactivateDispatchers@Producer@NodeKafka@@UEAAXXZ 000000018003ffbc     producer.obj
 0002:0000cfbc       $unwind$__crtTerminateProcess 000000018003ffbc     LIBCMT:winapisupp.obj
 0002:0000cfbc       $unwind$write_char         000000018003ffbc     LIBCMT:woutput.obj
 0002:0000cfbc       $unwind$??_Gfailure@ios_base@std@@UEAAPEAXI@Z 000000018003ffbc     common.obj
 0002:0000cfbc       $unwind$??0_LocaleUpdate@@QEAA@PEAUlocaleinfo_struct@@@Z 000000018003ffbc     LIBCMT:stricmp.obj
 0002:0000cfbc       $unwind$??__Efout@std@@YAXXZ 000000018003ffbc     libcpmt:cout.obj
 0002:0000cfbc       $unwind$??_G_Facet_base@std@@UEAAPEAXI@Z 000000018003ffbc     common.obj
 0002:0000cfbc       $unwind$?Unref@ObjectWrap@Nan@@MEAAXXZ 000000018003ffbc     connection.obj
 0002:0000cfbc       $unwind$wcsncpy_s          000000018003ffbc     LIBCMT:wcsncpy_s.obj
 0002:0000cfbc       $unwind$?_Addstd@ios_base@std@@SAXPEAV12@@Z 000000018003ffbc     libcpmt:ios.obj
 0002:0000cfbc       $unwind$_callnewh          000000018003ffbc     LIBCMT:handler.obj
 0002:0000cfbc       $unwind$__crtLoadWinApiPointers 000000018003ffbc     LIBCMT:winapisupp.obj
 0002:0000cfbc       $unwind$??_Gruntime_error@std@@UEAAPEAXI@Z 000000018003ffbc     common.obj
 0002:0000cfbc       $unwind$??0logic_error@std@@QEAA@AEBV01@@Z 000000018003ffbc     libcpmt:xthrow.obj
 0002:0000cfbc       $unwind$?_Ios_base_dtor@ios_base@std@@CAXPEAV12@@Z 000000018003ffbc     libcpmt:ios.obj
 0002:0000cfbc       $unwind$?WeakCallback@ObjectWrap@Nan@@CAXAEBV?$WeakCallbackInfo@VObjectWrap@Nan@@@v8@@@Z 000000018003ffbc     connection.obj
 0002:0000cfbc       $unwind$??_Gexception@stdext@@UEAAPEAXI@Z 000000018003ffbc     common.obj
 0002:0000cfbc       $unwind$calloc             000000018003ffbc     LIBCMT:calloc.obj
 0002:0000cfbc       $unwind$_getptd            000000018003ffbc     LIBCMT:tidtable.obj
 0002:0000cfbc       $unwind$_time64            000000018003ffbc     LIBCMT:time64.obj
 0002:0000cfbc       $unwind$_freeptd           000000018003ffbc     LIBCMT:tidtable.obj
 0002:0000cfbc       $unwind$??0?$basic_string@DU?$char_traits@D@std@@V?$allocator@D@2@@std@@QEAA@PEBD@Z 000000018003ffbc     binding.obj
 0002:0000cfbc       $unwind$_mtinit            000000018003ffbc     LIBCMT:tidtable.obj
 0002:0000cfbc       $unwind$wcsncat_s          000000018003ffbc     LIBCMT:wcsncat_s.obj
 0002:0000cfbc       $unwind$??0_Lockit@std@@QEAA@H@Z 000000018003ffbc     libcpmt:xlock.obj
 0002:0000cfbc       $unwind$?_Facet_Register@std@@YAXPEAV_Facet_base@1@@Z 000000018003ffbc     libcpmt:locale0.obj
 0002:0000cfbc       $unwind$GetLocaleNameFromLangCountry 000000018003ffbc     LIBCMT:getqloc.obj
 0002:0000cfbc       $unwind$wcscpy_s           000000018003ffbc     LIBCMT:wcscpy_s.obj
 0002:0000cfbc       $unwind$??1ConnectionMetadata@Workers@NodeKafka@@UEAA@XZ 000000018003ffbc     workers.obj
 0002:0000cfbc       $unwind$wcscat_s           000000018003ffbc     LIBCMT:wcscat_s.obj
 0002:0000cfbc       $unwind$GetLocaleNameFromLanguage 000000018003ffbc     LIBCMT:getqloc.obj
 0002:0000cfbc       $unwind$?getloc@ios_base@std@@QEBA?AVlocale@2@XZ 000000018003ffbc     common.obj
 0002:0000cfbc       $unwind$_getbuf            000000018003ffbc     LIBCMT:_getbuf.obj
 0002:0000cfbc       $unwind$_amsg_exit         000000018003ffbc     LIBCMT:crt0dat.obj
 0002:0000cfbc       $unwind$__crtExitProcess   000000018003ffbc     LIBCMT:crt0dat.obj
 0002:0000cfbc       $unwind$??0bad_cast@std@@QEAA@AEBV01@@Z 000000018003ffbc     LIBCMT:stdexcpt.obj
 0002:0000cfbc       $unwind$__crtCorExitProcess 000000018003ffbc     LIBCMT:crt0dat.obj
 0002:0000cfbc       $unwind$_cinit             000000018003ffbc     LIBCMT:crt0dat.obj
 0002:0000cfbc       $unwind$_init_pointers     000000018003ffbc     LIBCMT:crt0dat.obj
 0002:0000cfbc       $unwind$strncpy_s          000000018003ffbc     LIBCMT:strncpy_s.obj
 0002:0000cfbc       $unwind$??__F_Fac_tidy_reg@std@@YAXXZ 000000018003ffbc     libcpmt:locale0.obj
 0002:0000cfbc       $unwind$strcpy_s           000000018003ffbc     LIBCMT:strcpy_s.obj
 0002:0000cfbc       $unwind$_fflush_nolock     000000018003ffbc     LIBCMT:fflush.obj
 0002:0000cfbc       $unwind$?_Reserve@?$vector@Uevent_topic_partition_t@Callbacks@NodeKafka@@V?$allocator@Uevent_topic_partition_t@Callbacks@NodeKafka@@@std@@@std@@IEAAX_K@Z 000000018003ffbc     callbacks.obj
 0002:0000cfbc       $unwind$?_Reserve@?$vector@VDeliveryReport@Callbacks@NodeKafka@@V?$allocator@VDeliveryReport@Callbacks@NodeKafka@@@std@@@std@@IEAAX_K@Z 000000018003ffbc     callbacks.obj
 0002:0000cfbc       $unwind$__GSHandlerCheckCommon 000000018003ffbc     LIBCMT:gshandler.obj
 0002:0000cfbc       $unwind$__raise_securityfailure 000000018003ffbc     LIBCMT:gs_report.obj
 0002:0000cfbc       $unwind$??0length_error@std@@QEAA@AEBV01@@Z 000000018003ffbc     libcpmt:xthrow.obj
 0002:0000cfbc       $unwind$?_Reserve@?$vector@Uevent_t@Callbacks@NodeKafka@@V?$allocator@Uevent_t@Callbacks@NodeKafka@@@std@@@std@@IEAAX_K@Z 000000018003ffbc     callbacks.obj
 0002:0000cfbc       $unwind$??0bad_typeid@std@@QEAA@AEBV01@@Z 000000018003ffbc     LIBCMT:stdexcpt.obj
 0002:0000cfbc       $unwind$?_Setgloballocale@locale@std@@CAXPEAX@Z 000000018003ffbc     libcpmt:locale0.obj
 0002:0000cfbc       $unwind$??1ConnectionQueryWatermarkOffsets@Workers@NodeKafka@@UEAA@XZ 000000018003ffbc     workers.obj
 0002:0000cfbc       $unwind$?uflow@?$basic_streambuf@DU?$char_traits@D@std@@@std@@MEAAHXZ 000000018003ffbc     libcpmt:cerr.obj
 0002:0000cfbc       $unwind$??0__non_rtti_object@std@@QEAA@PEBD@Z 000000018003ffbc     LIBCMT:stdexcpt.obj
 0002:0000cfbc       $unwind$_freebuf           000000018003ffbc     LIBCMT:_freebuf.obj
 0002:0000cfbc       $unwind$??0out_of_range@std@@QEAA@AEBV01@@Z 000000018003ffbc     libcpmt:xthrow.obj
 0002:0000cfbc       $unwind$??0__non_rtti_object@std@@QEAA@AEBV01@@Z 000000018003ffbc     LIBCMT:stdexcpt.obj
 0002:0000cfbc       $unwind$??0bad_alloc@std@@QEAA@AEBV01@@Z 000000018003ffbc     libcpmt:xthrow.obj
 0002:0000cfbc       $unwind$_CreateFrameInfo   000000018003ffbc     LIBCMT:trnsctrl.obj
 0002:0000cfbc       $unwind$??0bad_exception@std@@QEAA@AEBV01@@Z 000000018003ffbc     LIBCMT:frame.obj
 0002:0000cfbc       $unwind$_IsExceptionObjectToBeDestroyed 000000018003ffbc     LIBCMT:trnsctrl.obj
 0002:0000cfbc       $unwind$_SetImageBase      000000018003ffbc     LIBCMT:trnsctrl.obj
 0002:0000cfbc       $unwind$_SetThrowImageBase 000000018003ffbc     LIBCMT:trnsctrl.obj
 0002:0000cfbc       $unwind$??1KafkaConsumerSeek@Workers@NodeKafka@@UEAA@XZ 000000018003ffbc     workers.obj
 0002:0000cfbc       $unwind$?__GetUnwindTryBlock@@YAHPEA_KPEAU_xDISPATCHER_CONTEXT@@PEBU_s_FuncInfo@@@Z 000000018003ffbc     LIBCMT:ehstate.obj
 0002:0000cfbc       $unwind$??__Eferr@std@@YAXXZ 000000018003ffbc     libcpmt:cerr.obj
 0002:0000cfc4       $unwind$__freetlocinfo     000000018003ffc4     LIBCMT:localref.obj
 0002:0000cfc4       $unwind$_initterm          000000018003ffc4     LIBCMT:crt0dat.obj
 0002:0000cfc4       $unwind$?__StateFromIp@@YAHPEBU_s_FuncInfo@@PEAU_xDISPATCHER_CONTEXT@@_J@Z 000000018003ffc4     LIBCMT:ehstate.obj
 0002:0000cfc4       $unwind$xtow_s             000000018003ffc4     LIBCMT:xtows.obj
 0002:0000cfc4       $unwind$_mtdeletelocks     000000018003ffc4     LIBCMT:mlock.obj
 0002:0000cfc4       $unwind$_fseeki64_nolock   000000018003ffc4     LIBCMT:fseeki64.obj
 0002:0000cfc4       $unwind$?_Copy@?$basic_string@DU?$char_traits@D@std@@V?$allocator@D@2@@std@@QEAAX_K0@Z 000000018003ffc4     binding.obj
 0002:0000cfc4       $unwind$?append@?$basic_string@DU?$char_traits@D@std@@V?$allocator@D@2@@std@@QEAAAEAV12@_KD@Z 000000018003ffc4     libcpmt:cerr.obj
 0002:0000cfc4       $unwind$?assign@?$basic_string@DU?$char_traits@D@std@@V?$allocator@D@2@@std@@QEAAAEAV12@AEBV12@_K1@Z 000000018003ffc4     binding.obj
 0002:0000cfc4       $unwind$_XcptFilter        000000018003ffc4     LIBCMT:winxfltr.obj
 0002:0000cfc4       $unwind$?setSBCS@@YAXPEAUthreadmbcinfostruct@@@Z 000000018003ffc4     LIBCMT:mbctype.obj
 0002:0000cfc4       $unwind$??1Dispatcher@Callbacks@NodeKafka@@QEAA@XZ 000000018003ffc4     callbacks.obj
 0002:0000cfd8       $unwind$??1Producer@NodeKafka@@MEAA@XZ 000000018003ffd8     producer.obj
 0002:0000cfd8       $unwind$realloc            000000018003ffd8     LIBCMT:realloc.obj
 0002:0000cfd8       $unwind$_DllMainCRTStartup 000000018003ffd8     LIBCMT:dllcrt0.obj
 0002:0000cfd8       $unwind$?assign@?$basic_string@DU?$char_traits@D@std@@V?$allocator@D@2@@std@@QEAAAEAV12@PEBD_K@Z 000000018003ffd8     binding.obj
 0002:0000cfd8       $unwind$__crtGetLocaleInfoEx 000000018003ffd8     LIBCMT:winapinls.obj
 0002:0000cfd8       $unwind$??_GDelivery@Callbacks@NodeKafka@@UEAAPEAXI@Z 000000018003ffd8     callbacks.obj
 0002:0000cfd8       $unwind$_ioterm            000000018003ffd8     LIBCMT:ioinit.obj
 0002:0000cfd8       $unwind$??1KafkaConsumerCommitted@Workers@NodeKafka@@UEAA@XZ 000000018003ffd8     workers.obj
 0002:0000cfd8       $unwind$_lseeki64_nolock   000000018003ffd8     LIBCMT:lseeki64.obj
 0002:0000cfd8       $unwind$??_G?$basic_streambuf@DU?$char_traits@D@std@@@std@@UEAAPEAXI@Z 000000018003ffd8     libcpmt:cerr.obj
 0002:0000cfd8       $unwind$_filbuf            000000018003ffd8     LIBCMT:_filbuf.obj
 0002:0000cfd8       $unwind$memcpy_s           000000018003ffd8     LIBCMT:memcpy_s.obj
 0002:0000cfd8       $unwind$?DeactivateDispatchers@KafkaConsumer@NodeKafka@@UEAAXXZ 000000018003ffd8     kafka-consumer.obj
 0002:0000cfd8       $unwind$_mtinitlocks       000000018003ffd8     LIBCMT:mlock.obj
 0002:0000cfd8       $unwind$_flush             000000018003ffd8     LIBCMT:fflush.obj
 0002:0000cfd8       $unwind$?put@?$basic_ostream@DU?$char_traits@D@std@@@std@@QEAAAEAV12@D@Z 000000018003ffd8     common.obj
 0002:0000cfd8       $unwind$??1Connection@NodeKafka@@MEAA@XZ 000000018003ffd8     connection.obj
 0002:0000cfd8       $unwind$malloc             000000018003ffd8     LIBCMT:malloc.obj
 0002:0000cfd8       $unwind$??0?$vector@PEAVTopicPartition@RdKafka@@V?$allocator@PEAVTopicPartition@RdKafka@@@std@@@std@@QEAA@AEBV01@@Z 000000018003ffd8     callbacks.obj
 0002:0000cfd8       $unwind$??_GEvent@Callbacks@NodeKafka@@UEAAPEAXI@Z 000000018003ffd8     callbacks.obj
 0002:0000cfd8       $unwind$??_GOffsetCommit@Callbacks@NodeKafka@@UEAAPEAXI@Z 000000018003ffd8     callbacks.obj
 0002:0000cfd8       $unwind$?Add@OffsetCommitDispatcher@Callbacks@NodeKafka@@QEAAXAEBUoffset_commit_event_t@23@@Z 000000018003ffd8     callbacks.obj
 0002:0000cfd8       $unwind$??_GRebalance@Callbacks@NodeKafka@@UEAAPEAXI@Z 000000018003ffd8     callbacks.obj
 0002:0000cfd8       $unwind$?Add@RebalanceDispatcher@Callbacks@NodeKafka@@QEAAXAEBUrebalance_event_t@23@@Z 000000018003ffd8     callbacks.obj
 0002:0000cfd8       $unwind$??4?$_Yarn@D@std@@QEAAAEAV01@PEBD@Z 000000018003ffd8     libcpmt:locale0.obj
 0002:0000cfd8       $unwind$??0_Init_locks@std@@QEAA@XZ 000000018003ffd8     libcpmt:xlock.obj
 0002:0000cfe8       $unwind$GetLcidFromLangCountry 000000018003ffe8     LIBCMT:getqloc_downlevel.obj
 0002:0000cfe8       $unwind$??1_Init_locks@std@@QEAA@XZ 000000018003ffe8     libcpmt:xlock.obj
 0002:0000cfe8       $unwind$??_GKafkaConsumerCommitted@Workers@NodeKafka@@UEAAPEAXI@Z 000000018003ffe8     workers.obj
 0002:0000cfe8       $unwind$?underflow@?$basic_filebuf@DU?$char_traits@D@std@@@std@@MEAAHXZ 000000018003ffe8     libcpmt:cerr.obj
 0002:0000cfe8       $unwind$??_GKafkaConsumerSeek@Workers@NodeKafka@@UEAAPEAXI@Z 000000018003ffe8     workers.obj
 0002:0000cfe8       $unwind$??0DeliveryReport@Callbacks@NodeKafka@@QEAA@AEBV012@@Z 000000018003ffe8     callbacks.obj
 0002:0000cfe8       $unwind$??_G?$ctype@D@std@@MEAAPEAXI@Z 000000018003ffe8     common.obj
 0002:0000cfe8       $unwind$??_GKafkaConsumerConsume@Workers@NodeKafka@@UEAAPEAXI@Z 000000018003ffe8     workers.obj
 0002:0000cfe8       $unwind$__crtGetUserDefaultLocaleName 000000018003ffe8     LIBCMT:winapinls.obj
 0002:0000cfe8       $unwind$?sync@?$basic_filebuf@DU?$char_traits@D@std@@@std@@MEAAHXZ 000000018003ffe8     libcpmt:cerr.obj
 0002:0000cfe8       $unwind$??_GTopic@NodeKafka@@EEAAPEAXI@Z 000000018003ffe8     topic.obj
 0002:0000cfe8       $unwind$??1KafkaConsumerConsumeNum@Workers@NodeKafka@@UEAA@XZ 000000018003ffe8     workers.obj
 0002:0000cfe8       $unwind$GetLcidFromLanguage 000000018003ffe8     LIBCMT:getqloc_downlevel.obj
 0002:0000cfe8       $unwind$??_G__non_rtti_object@std@@UEAAPEAXI@Z 000000018003ffe8     LIBCMT:stdexcpt.obj
 0002:0000cfe8       $unwind$??_GKafkaConsumerConsumeNum@Workers@NodeKafka@@UEAAPEAXI@Z 000000018003ffe8     workers.obj
 0002:0000cfe8       $unwind$?erase@?$basic_string@DU?$char_traits@D@std@@V?$allocator@D@2@@std@@QEAAAEAV12@_K0@Z 000000018003ffe8     binding.obj
 0002:0000cfe8       $unwind$_initp_misc_cfltcvt_tab 000000018003ffe8     LIBCMT:cmiscdat.obj
 0002:0000cfe8       $unwind$_close_nolock      000000018003ffe8     LIBCMT:close.obj
 0002:0000cfe8       $unwind$??_GKafkaConsumerConsumeLoop@Workers@NodeKafka@@UEAAPEAXI@Z 000000018003ffe8     workers.obj
 0002:0000cfe8       $unwind$??_Gbad_typeid@std@@UEAAPEAXI@Z 000000018003ffe8     LIBCMT:stdexcpt.obj
 0002:0000cfe8       $unwind$?_Initcvt@?$basic_filebuf@DU?$char_traits@D@std@@@std@@IEAAXPEBV?$codecvt@DDH@2@@Z 000000018003ffe8     libcpmt:cerr.obj
 0002:0000cfe8       $unwind$??_Gbad_alloc@std@@UEAAPEAXI@Z 000000018003ffe8     libcpmt:xthrow.obj
 0002:0000cfe8       $unwind$??_G?$basic_filebuf@DU?$char_traits@D@std@@@std@@UEAAPEAXI@Z 000000018003ffe8     libcpmt:cerr.obj
 0002:0000cfe8       $unwind$??_GKafkaConsumerDisconnect@Workers@NodeKafka@@UEAAPEAXI@Z 000000018003ffe8     workers.obj
 0002:0000cfe8       $unwind$??_GProducer@NodeKafka@@MEAAPEAXI@Z 000000018003ffe8     producer.obj
 0002:0000cfe8       $unwind$??_Gbad_cast@std@@UEAAPEAXI@Z 000000018003ffe8     LIBCMT:stdexcpt.obj
 0002:0000cfe8       $unwind$??_GKafkaConsumerConnect@Workers@NodeKafka@@UEAAPEAXI@Z 000000018003ffe8     workers.obj
 0002:0000cfe8       $unwind$??_G?$basic_ostream@DU?$char_traits@D@std@@@std@@UEAAPEAXI@Z 000000018003ffe8     libcpmt:cerr.obj
 0002:0000cfe8       $unwind$??_GProducerFlush@Workers@NodeKafka@@UEAAPEAXI@Z 000000018003ffe8     workers.obj
 0002:0000cfe8       $unwind$??_GProducerDisconnect@Workers@NodeKafka@@UEAAPEAXI@Z 000000018003ffe8     workers.obj
 0002:0000cfe8       $unwind$??_GProducerConnect@Workers@NodeKafka@@UEAAPEAXI@Z 000000018003ffe8     workers.obj
 0002:0000cfe8       $unwind$??_Gexception@std@@UEAAPEAXI@Z 000000018003ffe8     LIBCMT:stdexcpt.obj
 0002:0000cfe8       $unwind$??_GConnectionQueryWatermarkOffsets@Workers@NodeKafka@@UEAAPEAXI@Z 000000018003ffe8     workers.obj
 0002:0000cfe8       $unwind$??0?$basic_streambuf@DU?$char_traits@D@std@@@std@@IEAA@XZ 000000018003ffe8     libcpmt:cerr.obj
 0002:0000cfe8       $unwind$??_GConnectionMetadata@Workers@NodeKafka@@UEAAPEAXI@Z 000000018003ffe8     workers.obj
 0002:0000cfe8       $unwind$_RTC_Terminate     000000018003ffe8     LIBCMT:initsect.obj
 0002:0000cfe8       $unwind$_ungetc_nolock     000000018003ffe8     LIBCMT:ungetc.obj
 0002:0000cfe8       $unwind$??4exception@std@@QEAAAEAV01@AEBV01@@Z 000000018003ffe8     LIBCMT:stdexcpt.obj
 0002:0000cfe8       $unwind$??_GMessageWorker@Workers@NodeKafka@@UEAAPEAXI@Z 000000018003ffe8     workers.obj
 0002:0000cfe8       $unwind$??_G?$basic_ios@DU?$char_traits@D@std@@@std@@UEAAPEAXI@Z 000000018003ffe8     libcpmt:cerr.obj
 0002:0000cfe8       $unwind$??0?$basic_string@DU?$char_traits@D@std@@V?$allocator@D@2@@std@@QEAA@$$QEAV01@@Z 000000018003ffe8     common.obj
 0002:0000cfe8       $unwind$??1MessageWorker@Workers@NodeKafka@@UEAA@XZ 000000018003ffe8     workers.obj
 0002:0000cfe8       $unwind$??0MessageWorker@Workers@NodeKafka@@QEAA@PEAVCallback@Nan@@@Z 000000018003ffe8     workers.obj
 0002:0000cfe8       $unwind$??_Gtype_info@@UEAAPEAXI@Z 000000018003ffe8     LIBCMT:typinfo.obj
 0002:0000cfe8       $unwind$??_GErrorAwareWorker@Workers@NodeKafka@@UEAAPEAXI@Z 000000018003ffe8     workers.obj
 0002:0000cfe8       $unwind$??_Gios_base@std@@UEAAPEAXI@Z 000000018003ffe8     libcpmt:cerr.obj
 0002:0000cfe8       $unwind$??_GAsyncWorker@Nan@@UEAAPEAXI@Z 000000018003ffe8     workers.obj
 0002:0000cfe8       $unwind$??1_Locinfo@std@@QEAA@XZ 000000018003ffe8     common.obj
 0002:0000cfe8       $unwind$?_Init@ios_base@std@@IEAAXXZ 000000018003ffe8     libcpmt:cerr.obj
 0002:0000cfe8       $unwind$?_Tidy@ios_base@std@@AEAAXXZ 000000018003ffe8     libcpmt:ios.obj
 0002:0000cfe8       $unwind$??_GKafkaConsumer@NodeKafka@@MEAAPEAXI@Z 000000018003ffe8     kafka-consumer.obj
 0002:0000cfe8       $unwind$_calloc_impl       000000018003ffe8     LIBCMT:calloc_impl.obj
 0002:0000cfe8       $unwind$_dosmaperr         000000018003ffe8     LIBCMT:dosmap.obj
 0002:0000cfe8       $unwind$__initstdio        000000018003ffe8     LIBCMT:_file.obj
 0002:0000cfe8       $unwind$_getptd_noexit     000000018003ffe8     LIBCMT:tidtable.obj
 0002:0000cfe8       $unwind$?ActivateDispatchers@KafkaConsumer@NodeKafka@@UEAAXXZ 000000018003ffe8     kafka-consumer.obj
 0002:0000cfe8       $unwind$_RTC_Initialize    000000018003ffe8     LIBCMT:initsect.obj
 0002:0000cfe8       $unwind$??_GObjectWrap@Nan@@UEAAPEAXI@Z 000000018003ffe8     connection.obj
 0002:0000cfe8       $unwind$fgetpos            000000018003ffe8     LIBCMT:fgetpos.obj
 0002:0000cfe8       $unwind$_lock              000000018003ffe8     LIBCMT:mlock.obj
 0002:0000cfe8       $unwind$??_GPartitioner@Callbacks@NodeKafka@@UEAAPEAXI@Z 000000018003ffe8     callbacks.obj
 0002:0000cfe8       $unwind$??_Glogic_error@std@@UEAAPEAXI@Z 000000018003ffe8     libcpmt:xthrow.obj
 0002:0000cfe8       $unwind$?pbackfail@?$basic_filebuf@DU?$char_traits@D@std@@@std@@MEAAHH@Z 000000018003ffe8     libcpmt:cerr.obj
 0002:0000cfe8       $unwind$??_GConnection@NodeKafka@@MEAAPEAXI@Z 000000018003ffe8     connection.obj
 0002:0000cfe8       $unwind$_fptostr           000000018003ffe8     LIBCMT:_fptostr.obj
 0002:0000cfe8       $unwind$__freeCrtMemory    000000018003ffe8     LIBCMT:crt0dat.obj
 0002:0000cfe8       $unwind$??0sentry@?$basic_ostream@DU?$char_traits@D@std@@@std@@QEAA@AEAV12@@Z 000000018003ffe8     common.obj
 0002:0000cfe8       $unwind$?__SetUnwindTryBlock@@YAXPEA_KPEAU_xDISPATCHER_CONTEXT@@PEBU_s_FuncInfo@@H@Z 000000018003ffe8     LIBCMT:ehstate.obj
 0002:0000cfe8       $unwind$_fclose_nolock     000000018003ffe8     LIBCMT:fclose.obj
 0002:0000cfe8       $unwind$_initterm_e        000000018003ffe8     LIBCMT:crt0dat.obj
 0002:0000cfe8       $unwind$?_Locinfo_ctor@_Locinfo@std@@SAXPEAV12@PEBD@Z 000000018003ffe8     libcpmt:locale0.obj
 0002:0000cfe8       $unwind$??_Glength_error@std@@UEAAPEAXI@Z 000000018003ffe8     libcpmt:xthrow.obj
 0002:0000cfe8       $unwind$_updatetlocinfoEx_nolock 000000018003ffe8     LIBCMT:localref.obj
 0002:0000cfe8       $unwind$?_New_Locimp@_Locimp@locale@std@@CAPEAV123@_N@Z 000000018003ffe8     libcpmt:locale0.obj
 0002:0000cfe8       $unwind$??_G_Locimp@locale@std@@MEAAPEAXI@Z 000000018003ffe8     libcpmt:locale0.obj
 0002:0000cfe8       $unwind$??_Gout_of_range@std@@UEAAPEAXI@Z 000000018003ffe8     libcpmt:xthrow.obj
 0002:0000cfe8       $unwind$??_Gbad_exception@std@@UEAAPEAXI@Z 000000018003ffe8     LIBCMT:frame.obj
 0002:0000cfe8       $unwind$_FindAndUnlinkFrame 000000018003ffe8     LIBCMT:trnsctrl.obj
 0002:0000cfe8       $unwind$?_Assign_rv@?$basic_string@DU?$char_traits@D@std@@V?$allocator@D@2@@std@@QEAAX$$QEAV12@@Z 000000018003ffe8     callbacks.obj
 0002:0000cfe8       $unwind$??0event_t@Callbacks@NodeKafka@@QEAA@AEBU012@@Z 000000018003ffe8     callbacks.obj
 0002:0000cff4       $unwind$?_Grow@?$basic_string@DU?$char_traits@D@std@@V?$allocator@D@2@@std@@QEAA_N_K_N@Z 000000018003fff4     binding.obj
 0002:0000d000       $chain$0$?_Grow@?$basic_string@DU?$char_traits@D@std@@V?$allocator@D@2@@std@@QEAA_N_K_N@Z 0000000180040000     binding.obj
 0002:0000d014       $chain$1$?_Grow@?$basic_string@DU?$char_traits@D@std@@V?$allocator@D@2@@std@@QEAA_N_K_N@Z 0000000180040014     binding.obj
 0002:0000d028       $chain$2$?_Grow@?$basic_string@DU?$char_traits@D@std@@V?$allocator@D@2@@std@@QEAA_N_K_N@Z 0000000180040028     binding.obj
 0002:0000d03c       $chain$3$?_Grow@?$basic_string@DU?$char_traits@D@std@@V?$allocator@D@2@@std@@QEAA_N_K_N@Z 000000018004003c     binding.obj
 0002:0000d04c       $chain$4$?_Grow@?$basic_string@DU?$char_traits@D@std@@V?$allocator@D@2@@std@@QEAA_N_K_N@Z 000000018004004c     binding.obj
 0002:0000d05c       $chain$5$?_Grow@?$basic_string@DU?$char_traits@D@std@@V?$allocator@D@2@@std@@QEAA_N_K_N@Z 000000018004005c     binding.obj
 0002:0000d06c       $unwind$?Call@Callback@Nan@@QEBA?AV?$Local@VValue@v8@@@v8@@HQEAV34@@Z 000000018004006c     callbacks.obj
 0002:0000d080       $unwind$??0rebalance_event_t@Callbacks@NodeKafka@@QEAA@W4ErrorCode@RdKafka@@V?$vector@PEAVTopicPartition@RdKafka@@V?$allocator@PEAVTopicPartition@RdKafka@@@std@@@std@@@Z 0000000180040080     callbacks.obj
 0002:0000d098       $chain$1$??0rebalance_event_t@Callbacks@NodeKafka@@QEAA@W4ErrorCode@RdKafka@@V?$vector@PEAVTopicPartition@RdKafka@@V?$allocator@PEAVTopicPartition@RdKafka@@@std@@@std@@@Z 0000000180040098     callbacks.obj
 0002:0000d0b0       $chain$4$??0rebalance_event_t@Callbacks@NodeKafka@@QEAA@W4ErrorCode@RdKafka@@V?$vector@PEAVTopicPartition@RdKafka@@V?$allocator@PEAVTopicPartition@RdKafka@@@std@@@std@@@Z 00000001800400b0     callbacks.obj
 0002:0000d0cc       $chain$5$??0rebalance_event_t@Callbacks@NodeKafka@@QEAA@W4ErrorCode@RdKafka@@V?$vector@PEAVTopicPartition@RdKafka@@V?$allocator@PEAVTopicPartition@RdKafka@@@std@@@std@@@Z 00000001800400cc     callbacks.obj
 0002:0000d0dc       $chain$6$??0rebalance_event_t@Callbacks@NodeKafka@@QEAA@W4ErrorCode@RdKafka@@V?$vector@PEAVTopicPartition@RdKafka@@V?$allocator@PEAVTopicPartition@RdKafka@@@std@@@std@@@Z 00000001800400dc     callbacks.obj
 0002:0000d0ec       $unwind$??0offset_commit_event_t@Callbacks@NodeKafka@@QEAA@W4ErrorCode@RdKafka@@AEBV?$vector@PEAVTopicPartition@RdKafka@@V?$allocator@PEAVTopicPartition@RdKafka@@@std@@@std@@@Z 00000001800400ec     callbacks.obj
 0002:0000d108       $chain$2$??0offset_commit_event_t@Callbacks@NodeKafka@@QEAA@W4ErrorCode@RdKafka@@AEBV?$vector@PEAVTopicPartition@RdKafka@@V?$allocator@PEAVTopicPartition@RdKafka@@@std@@@std@@@Z 0000000180040108     callbacks.obj
 0002:0000d124       $chain$3$??0offset_commit_event_t@Callbacks@NodeKafka@@QEAA@W4ErrorCode@RdKafka@@AEBV?$vector@PEAVTopicPartition@RdKafka@@V?$allocator@PEAVTopicPartition@RdKafka@@@std@@@std@@@Z 0000000180040124     callbacks.obj
 0002:0000d134       $unwind$?TopicPartitionListToV8Array@Callbacks@NodeKafka@@YA?AV?$Local@VArray@v8@@@v8@@V?$vector@Uevent_topic_partition_t@Callbacks@NodeKafka@@V?$allocator@Uevent_topic_partition_t@Callbacks@NodeKafka@@@std@@@std@@@Z 0000000180040134     callbacks.obj
 0002:0000d150       $chain$0$?TopicPartitionListToV8Array@Callbacks@NodeKafka@@YA?AV?$Local@VArray@v8@@@v8@@V?$vector@Uevent_topic_partition_t@Callbacks@NodeKafka@@V?$allocator@Uevent_topic_partition_t@Callbacks@NodeKafka@@@std@@@std@@@Z 0000000180040150     callbacks.obj
 0002:0000d164       $chain$2$?TopicPartitionListToV8Array@Callbacks@NodeKafka@@YA?AV?$Local@VArray@v8@@@v8@@V?$vector@Uevent_topic_partition_t@Callbacks@NodeKafka@@V?$allocator@Uevent_topic_partition_t@Callbacks@NodeKafka@@@std@@@std@@@Z 0000000180040164     callbacks.obj
 0002:0000d17c       $chain$3$?TopicPartitionListToV8Array@Callbacks@NodeKafka@@YA?AV?$Local@VArray@v8@@@v8@@V?$vector@Uevent_topic_partition_t@Callbacks@NodeKafka@@V?$allocator@Uevent_topic_partition_t@Callbacks@NodeKafka@@@std@@@std@@@Z 000000018004017c     callbacks.obj
 0002:0000d18c       $chain$4$?TopicPartitionListToV8Array@Callbacks@NodeKafka@@YA?AV?$Local@VArray@v8@@@v8@@V?$vector@Uevent_topic_partition_t@Callbacks@NodeKafka@@V?$allocator@Uevent_topic_partition_t@Callbacks@NodeKafka@@@std@@@std@@@Z 000000018004018c     callbacks.obj
 0002:0000d19c       $unwind$?Dispatch@Dispatcher@Callbacks@NodeKafka@@QEAAXHQEAV?$Local@VValue@v8@@@v8@@@Z 000000018004019c     callbacks.obj
 0002:0000d1a8       $chain$0$?Dispatch@Dispatcher@Callbacks@NodeKafka@@QEAAXHQEAV?$Local@VValue@v8@@@v8@@@Z 00000001800401a8     callbacks.obj
 0002:0000d1bc       $chain$3$?Dispatch@Dispatcher@Callbacks@NodeKafka@@QEAAXHQEAV?$Local@VValue@v8@@@v8@@@Z 00000001800401bc     callbacks.obj
 0002:0000d1d8       $chain$4$?Dispatch@Dispatcher@Callbacks@NodeKafka@@QEAAXHQEAV?$Local@VValue@v8@@@v8@@@Z 00000001800401d8     callbacks.obj
 0002:0000d1e8       $chain$5$?Dispatch@Dispatcher@Callbacks@NodeKafka@@QEAAXHQEAV?$Local@VValue@v8@@@v8@@@Z 00000001800401e8     callbacks.obj
 0002:0000d1f8       $unwind$?ActivateDispatchers@Producer@NodeKafka@@UEAAXXZ 00000001800401f8     producer.obj
 0002:0000d1f8       $unwind$?AddCallback@DeliveryReportDispatcher@Callbacks@NodeKafka@@QEAAXV?$Local@VFunction@v8@@@v8@@@Z 00000001800401f8     callbacks.obj
 0002:0000d1f8       $unwind$?push_back@?$vector@V?$Persistent@VFunction@v8@@U?$CopyablePersistentTraits@VFunction@v8@@@2@@v8@@V?$allocator@V?$Persistent@VFunction@v8@@U?$CopyablePersistentTraits@VFunction@v8@@@2@@v8@@@std@@@std@@QEAAX$$QEAV?$Persistent@VFunction@v8@@U?$CopyablePersistentTraits@VFunction@v8@@@2@@v8@@@Z 00000001800401f8     callbacks.obj
 0002:0000d1f8       $unwind$?listen@Conf@NodeKafka@@QEAAXXZ 00000001800401f8     config.obj
 0002:0000d1f8       $unwind$?AddCallback@Dispatcher@Callbacks@NodeKafka@@QEAAXV?$Local@VFunction@v8@@@v8@@@Z 00000001800401f8     callbacks.obj
 0002:0000d204       $unwind$??0event_t@Callbacks@NodeKafka@@QEAA@AEBVEvent@RdKafka@@@Z 0000000180040204     callbacks.obj
 0002:0000d228       $unwind$?event_cb@Event@Callbacks@NodeKafka@@UEAAXAEAV1RdKafka@@@Z 0000000180040228     callbacks.obj
 0002:0000d23c       $chain$0$?event_cb@Event@Callbacks@NodeKafka@@UEAAXAEAV1RdKafka@@@Z 000000018004023c     callbacks.obj
 0002:0000d250       $chain$1$?event_cb@Event@Callbacks@NodeKafka@@UEAAXAEAV1RdKafka@@@Z 0000000180040250     callbacks.obj
 0002:0000d264       $chain$2$?event_cb@Event@Callbacks@NodeKafka@@UEAAXAEAV1RdKafka@@@Z 0000000180040264     callbacks.obj
 0002:0000d278       $chain$3$?event_cb@Event@Callbacks@NodeKafka@@UEAAXAEAV1RdKafka@@@Z 0000000180040278     callbacks.obj
 0002:0000d288       $chain$4$?event_cb@Event@Callbacks@NodeKafka@@UEAAXAEAV1RdKafka@@@Z 0000000180040288     callbacks.obj
 0002:0000d298       $chain$5$?event_cb@Event@Callbacks@NodeKafka@@UEAAXAEAV1RdKafka@@@Z 0000000180040298     callbacks.obj
 0002:0000d2a8       $unwind$?Flush@EventDispatcher@Callbacks@NodeKafka@@UEAAXXZ 00000001800402a8     callbacks.obj
 0002:0000d2b8       $chain$1$?Flush@EventDispatcher@Callbacks@NodeKafka@@UEAAXXZ 00000001800402b8     callbacks.obj
 0002:0000d2d0       $chain$3$?Flush@EventDispatcher@Callbacks@NodeKafka@@UEAAXXZ 00000001800402d0     callbacks.obj
 0002:0000d2e8       $chain$4$?Flush@EventDispatcher@Callbacks@NodeKafka@@UEAAXXZ 00000001800402e8     callbacks.obj
 0002:0000d2fc       $chain$5$?Flush@EventDispatcher@Callbacks@NodeKafka@@UEAAXXZ 00000001800402fc     callbacks.obj
 0002:0000d30c       $chain$6$?Flush@EventDispatcher@Callbacks@NodeKafka@@UEAAXXZ 000000018004030c     callbacks.obj
 0002:0000d320       $chain$7$?Flush@EventDispatcher@Callbacks@NodeKafka@@UEAAXXZ 0000000180040320     callbacks.obj
 0002:0000d330       $unwind$?Flush@DeliveryReportDispatcher@Callbacks@NodeKafka@@UEAAXXZ 0000000180040330     callbacks.obj
 0002:0000d348       $chain$2$?Flush@DeliveryReportDispatcher@Callbacks@NodeKafka@@UEAAXXZ 0000000180040348     callbacks.obj
 0002:0000d364       $chain$5$?Flush@DeliveryReportDispatcher@Callbacks@NodeKafka@@UEAAXXZ 0000000180040364     callbacks.obj
 0002:0000d380       $chain$6$?Flush@DeliveryReportDispatcher@Callbacks@NodeKafka@@UEAAXXZ 0000000180040380     callbacks.obj
 0002:0000d390       $chain$7$?Flush@DeliveryReportDispatcher@Callbacks@NodeKafka@@UEAAXXZ 0000000180040390     callbacks.obj
 0002:0000d3a0       $unwind$??0DeliveryReport@Callbacks@NodeKafka@@QEAA@AEAVMessage@RdKafka@@_N@Z 00000001800403a0     callbacks.obj
 0002:0000d3bc       $unwind$?dr_cb@Delivery@Callbacks@NodeKafka@@UEAAXAEAVMessage@RdKafka@@@Z 00000001800403bc     callbacks.obj
 0002:0000d3d0       $chain$1$?dr_cb@Delivery@Callbacks@NodeKafka@@UEAAXAEAVMessage@RdKafka@@@Z 00000001800403d0     callbacks.obj
 0002:0000d3e8       $chain$2$?dr_cb@Delivery@Callbacks@NodeKafka@@UEAAXAEAVMessage@RdKafka@@@Z 00000001800403e8     callbacks.obj
 0002:0000d3fc       $chain$3$?dr_cb@Delivery@Callbacks@NodeKafka@@UEAAXAEAVMessage@RdKafka@@@Z 00000001800403fc     callbacks.obj
 0002:0000d40c       $chain$4$?dr_cb@Delivery@Callbacks@NodeKafka@@UEAAXAEAVMessage@RdKafka@@@Z 000000018004040c     callbacks.obj
 0002:0000d41c       $unwind$?Flush@RebalanceDispatcher@Callbacks@NodeKafka@@UEAAXXZ 000000018004041c     callbacks.obj
 0002:0000d42c       $chain$2$?Flush@RebalanceDispatcher@Callbacks@NodeKafka@@UEAAXXZ 000000018004042c     callbacks.obj
 0002:0000d448       $chain$4$?Flush@RebalanceDispatcher@Callbacks@NodeKafka@@UEAAXXZ 0000000180040448     callbacks.obj
 0002:0000d460       $chain$5$?Flush@RebalanceDispatcher@Callbacks@NodeKafka@@UEAAXXZ 0000000180040460     callbacks.obj
 0002:0000d474       $chain$6$?Flush@RebalanceDispatcher@Callbacks@NodeKafka@@UEAAXXZ 0000000180040474     callbacks.obj
 0002:0000d484       $unwind$?rebalance_cb@Rebalance@Callbacks@NodeKafka@@UEAAXPEAVKafkaConsumer@RdKafka@@W4ErrorCode@5@AEAV?$vector@PEAVTopicPartition@RdKafka@@V?$allocator@PEAVTopicPartition@RdKafka@@@std@@@std@@@Z 0000000180040484     callbacks.obj
 0002:0000d490       $unwind$?Flush@OffsetCommitDispatcher@Callbacks@NodeKafka@@UEAAXXZ 0000000180040490     callbacks.obj
 0002:0000d4a0       $chain$4$?Flush@OffsetCommitDispatcher@Callbacks@NodeKafka@@UEAAXXZ 00000001800404a0     callbacks.obj
 0002:0000d4c4       $chain$5$?Flush@OffsetCommitDispatcher@Callbacks@NodeKafka@@UEAAXXZ 00000001800404c4     callbacks.obj
 0002:0000d4d4       $unwind$?getSystemCP@@YAHH@Z 00000001800404d4     LIBCMT:mbctype.obj
 0002:0000d4d4       $unwind$?offset_commit_cb@OffsetCommit@Callbacks@NodeKafka@@UEAAXW4ErrorCode@RdKafka@@AEAV?$vector@PEAVTopicPartition@RdKafka@@V?$allocator@PEAVTopicPartition@RdKafka@@@std@@@std@@@Z 00000001800404d4     callbacks.obj
 0002:0000d4d4       $unwind$??2@YAPEAX_K@Z     00000001800404d4     LIBCMT:new.obj
 0002:0000d4d4       $unwind$?HandleOKCallback@AsyncWorker@Nan@@MEAAXXZ 00000001800404d4     workers.obj
 0002:0000d4d4       $unwind$isupper            00000001800404d4     LIBCMT:_ctype.obj
 0002:0000d4d4       $unwind$islower            00000001800404d4     LIBCMT:_ctype.obj
 0002:0000d4d4       $unwind$?NodeSetPartitioner@Producer@NodeKafka@@CAXAEBV?$FunctionCallbackInfo@VValue@v8@@@Nan@@@Z 00000001800404d4     producer.obj
 0002:0000d4d4       $unwind$_forcdecpt_l       00000001800404d4     LIBCMT:cvt.obj
 0002:0000d4d4       $unwind$_isleadbyte_l      00000001800404d4     LIBCMT:_wctype.obj
 0002:0000d4d4       $unwind$isleadbyte         00000001800404d4     LIBCMT:_wctype.obj
 0002:0000d4d4       $unwind$?NodePoll@Producer@NodeKafka@@CAXAEBV?$FunctionCallbackInfo@VValue@v8@@@Nan@@@Z 00000001800404d4     producer.obj
 0002:0000d4d4       $unwind$_cropzeros_l       00000001800404d4     LIBCMT:cvt.obj
 0002:0000d4d4       $unwind$isdigit            00000001800404d4     LIBCMT:_ctype.obj
 0002:0000d4d4       $unwind$?NodeOnEvent@Connection@NodeKafka@@KAXAEBV?$FunctionCallbackInfo@VValue@v8@@@Nan@@@Z 00000001800404d4     connection.obj
 0002:0000d4dc       $unwind$?partitioner_cb@Partitioner@Callbacks@NodeKafka@@UEAAHPEBVTopic@RdKafka@@PEBV?$basic_string@DU?$char_traits@D@std@@V?$allocator@D@2@@std@@HPEAX@Z 00000001800404dc     callbacks.obj
 0002:0000d4f8       $chain$0$?partitioner_cb@Partitioner@Callbacks@NodeKafka@@UEAAHPEBVTopic@RdKafka@@PEBV?$basic_string@DU?$char_traits@D@std@@V?$allocator@D@2@@std@@HPEAX@Z 00000001800404f8     callbacks.obj
 0002:0000d50c       $chain$1$?partitioner_cb@Partitioner@Callbacks@NodeKafka@@UEAAHPEBVTopic@RdKafka@@PEBV?$basic_string@DU?$char_traits@D@std@@V?$allocator@D@2@@std@@HPEAX@Z 000000018004050c     callbacks.obj
 0002:0000d51c       $unwind$?SetCallback@Partitioner@Callbacks@NodeKafka@@QEAAXV?$Local@VFunction@v8@@@v8@@@Z 000000018004051c     callbacks.obj
 0002:0000d52c       $chain$0$?push_back@?$vector@V?$Persistent@VFunction@v8@@U?$CopyablePersistentTraits@VFunction@v8@@@2@@v8@@V?$allocator@V?$Persistent@VFunction@v8@@U?$CopyablePersistentTraits@VFunction@v8@@@2@@v8@@@std@@@std@@QEAAX$$QEAV?$Persistent@VFunction@v8@@U?$CopyablePersistentTraits@VFunction@v8@@@2@@v8@@@Z 000000018004052c     callbacks.obj
 0002:0000d540       $chain$1$?push_back@?$vector@V?$Persistent@VFunction@v8@@U?$CopyablePersistentTraits@VFunction@v8@@@2@@v8@@V?$allocator@V?$Persistent@VFunction@v8@@U?$CopyablePersistentTraits@VFunction@v8@@@2@@v8@@@std@@@std@@QEAAX$$QEAV?$Persistent@VFunction@v8@@U?$CopyablePersistentTraits@VFunction@v8@@@2@@v8@@@Z 0000000180040540     callbacks.obj
 0002:0000d550       $unwind$??0?$vector@V?$basic_string@DU?$char_traits@D@std@@V?$allocator@D@2@@std@@V?$allocator@V?$basic_string@DU?$char_traits@D@std@@V?$allocator@D@2@@std@@@2@@std@@QEAA@AEBV01@@Z 0000000180040550     kafka-consumer.obj
 0002:0000d550       $unwind$??0?$vector@Uevent_topic_partition_t@Callbacks@NodeKafka@@V?$allocator@Uevent_topic_partition_t@Callbacks@NodeKafka@@@std@@@std@@QEAA@AEBV01@@Z 0000000180040550     callbacks.obj
 0002:0000d564       $chain$0$??0?$vector@Uevent_topic_partition_t@Callbacks@NodeKafka@@V?$allocator@Uevent_topic_partition_t@Callbacks@NodeKafka@@@std@@@std@@QEAA@AEBV01@@Z 0000000180040564     callbacks.obj
 0002:0000d578       $chain$1$??0?$vector@Uevent_topic_partition_t@Callbacks@NodeKafka@@V?$allocator@Uevent_topic_partition_t@Callbacks@NodeKafka@@@std@@@std@@QEAA@AEBV01@@Z 0000000180040578     callbacks.obj
 0002:0000d588       $unwind$__crtEnumSystemLocalesEx 0000000180040588     LIBCMT:winapinls.obj
 0002:0000d588       $unwind$_get_osfhandle     0000000180040588     LIBCMT:osfinfo.obj
 0002:0000d588       $unwind$??1locale@std@@QEAA@XZ 0000000180040588     common.obj
 0002:0000d588       $unwind$?_Reserve@?$vector@V?$basic_string@DU?$char_traits@D@std@@V?$allocator@D@2@@std@@V?$allocator@V?$basic_string@DU?$char_traits@D@std@@V?$allocator@D@2@@std@@@2@@std@@IEAAX_K@Z 0000000180040588     common.obj
 0002:0000d588       $unwind$__crtDownlevelLocaleNameToLCID 0000000180040588     LIBCMT:winapinls.obj
 0002:0000d588       $unwind$?__GetCurrentState@@YAHPEA_KPEAU_xDISPATCHER_CONTEXT@@PEBU_s_FuncInfo@@@Z 0000000180040588     LIBCMT:ehstate.obj
 0002:0000d588       $unwind$_purecall          0000000180040588     LIBCMT:purevirt.obj
 0002:0000d588       $unwind$__FrameUnwindFilter 0000000180040588     LIBCMT:frame.obj
 0002:0000d588       $unwind$___lc_codepage_func 0000000180040588     LIBCMT:initctyp.obj
 0002:0000d588       $unwind$_wcsicmp           0000000180040588     LIBCMT:wcsicmp.obj
 0002:0000d588       $unwind$__GSHandlerCheck   0000000180040588     LIBCMT:gshandler.obj
 0002:0000d588       $unwind$__pctype_func      0000000180040588     LIBCMT:ctype.obj
 0002:0000d588       $unwind$_wcsnicmp          0000000180040588     LIBCMT:wcsnicmp.obj
 0002:0000d588       $unwind$_fileno            0000000180040588     LIBCMT:fileno.obj
 0002:0000d588       $unwind$atexit             0000000180040588     LIBCMT:onexit.obj
 0002:0000d588       $unwind$?_Reserve@?$vector@V?$Persistent@VFunction@v8@@U?$CopyablePersistentTraits@VFunction@v8@@@2@@v8@@V?$allocator@V?$Persistent@VFunction@v8@@U?$CopyablePersistentTraits@VFunction@v8@@@2@@v8@@@std@@@std@@IEAAX_K@Z 0000000180040588     callbacks.obj
 0002:0000d588       $unwind$??__Ecerr@std@@YAXXZ 0000000180040588     libcpmt:cerr.obj
 0002:0000d588       $unwind$abort              0000000180040588     LIBCMT:abort.obj
 0002:0000d588       $unwind$__crtIsValidLocaleName 0000000180040588     LIBCMT:winapinls.obj
 0002:0000d588       $unwind$?Execute@MessageWorker@Workers@NodeKafka@@EEAAXXZ 0000000180040588     workers.obj
 0002:0000d588       $unwind$??__Einitlocks@@YAXXZ 0000000180040588     libcpmt:cout.obj
 0002:0000d588       $unwind$__initmbctable     0000000180040588     LIBCMT:mbctype.obj
 0002:0000d588       $unwind$?_Unlock@?$basic_filebuf@DU?$char_traits@D@std@@@std@@UEAAXXZ 0000000180040588     libcpmt:cerr.obj
 0002:0000d588       $unwind$_heap_init         0000000180040588     LIBCMT:heapinit.obj
 0002:0000d588       $unwind$_isatty            0000000180040588     LIBCMT:isatty.obj
 0002:0000d588       $unwind$?_Reserve@?$vector@PEAVMessage@RdKafka@@V?$allocator@PEAVMessage@RdKafka@@@std@@@std@@IEAAX_K@Z 0000000180040588     workers.obj
 0002:0000d588       $unwind$__termconout       0000000180040588     LIBCMT:initcon.obj
 0002:0000d588       $unwind$?_Reserve@?$vector@Uoffset_commit_event_t@Callbacks@NodeKafka@@V?$allocator@Uoffset_commit_event_t@Callbacks@NodeKafka@@@std@@@std@@IEAAX_K@Z 0000000180040588     callbacks.obj
 0002:0000d588       $unwind$_set_error_mode    0000000180040588     LIBCMT:errmode.obj
 0002:0000d588       $unwind$??8type_info@@QEBA_NAEBV0@@Z 0000000180040588     LIBCMT:typinfo.obj
 0002:0000d588       $unwind$_Deletegloballocale 0000000180040588     libcpmt:locale0.obj
 0002:0000d588       $unwind$??__Ecout@std@@YAXXZ 0000000180040588     libcpmt:cout.obj
 0002:0000d588       $unwind$?_Reserve@?$vector@Urebalance_event_t@Callbacks@NodeKafka@@V?$allocator@Urebalance_event_t@Callbacks@NodeKafka@@@std@@@std@@IEAAX_K@Z 0000000180040588     callbacks.obj
 0002:0000d588       $unwind$_errno             0000000180040588     LIBCMT:dosmap.obj
 0002:0000d588       $unwind$?_Lock@?$basic_filebuf@DU?$char_traits@D@std@@@std@@UEAAXXZ 0000000180040588     libcpmt:cerr.obj
 0002:0000d588       $unwind$??1_Lockit@std@@QEAA@XZ 0000000180040588     libcpmt:xlock.obj
 0002:0000d588       $unwind$?_Reserve@?$vector@PEAVTopicPartition@RdKafka@@V?$allocator@PEAVTopicPartition@RdKafka@@@std@@@std@@IEAAX_K@Z 0000000180040588     common.obj
 0002:0000d588       $unwind$__crtInitializeCriticalSectionEx 0000000180040588     LIBCMT:winapisupp.obj
 0002:0000d588       $unwind$__endstdio         0000000180040588     LIBCMT:_file.obj
 0002:0000d588       $unwind$_FF_MSGBANNER      0000000180040588     LIBCMT:crt0msg.obj
 0002:0000d588       $unwind$rand               0000000180040588     LIBCMT:rand.obj
 0002:0000d588       $unwind$?_Locinfo_dtor@_Locinfo@std@@SAXPEAV12@@Z 0000000180040588     libcpmt:locale0.obj
 0002:0000d588       $unwind$__report_rangecheckfailure 0000000180040588     LIBCMT:gs_report.obj
 0002:0000d588       $unwind$??__Fclassic_locale@std@@YAXXZ 0000000180040588     libcpmt:locale0.obj
 0002:0000d588       $unwind$_GetImageBase      0000000180040588     LIBCMT:trnsctrl.obj
 0002:0000d588       $unwind$??__Einitlocks@@YAXXZ 0000000180040588     libcpmt:cerr.obj
 0002:0000d588       $unwind$tidy_global        0000000180040588     libcpmt:locale0.obj
 0002:0000d588       $unwind$_invoke_watson     0000000180040588     LIBCMT:invarg.obj
 0002:0000d588       $unwind$___lc_locale_name_func 0000000180040588     LIBCMT:initctyp.obj
 0002:0000d588       $unwind$_GetThrowImageBase 0000000180040588     LIBCMT:trnsctrl.obj
 0002:0000d588       $unwind$_copytlocinfo_nolock 0000000180040588     LIBCMT:wsetloca.obj
 0002:0000d588       $unwind$_mtterm            0000000180040588     LIBCMT:tidtable.obj
 0002:0000d588       $unwind$_stricmp           0000000180040588     LIBCMT:stricmp.obj
 0002:0000d588       $unwind$_msize             0000000180040588     LIBCMT:msize.obj
 0002:0000d588       $unwind$??__Einitlocks@std@@YAXXZ 0000000180040588     libcpmt:xlock.obj
 0002:0000d588       $unwind$_initp_eh_hooks    0000000180040588     LIBCMT:hooks.obj
 0002:0000d588       $unwind$?_Atexit@@YAXP6AXXZ@Z 0000000180040588     libcpmt:iosptrs.obj
 0002:0000d588       $unwind$??__Finit_atexit@@YAXXZ 0000000180040588     libcpmt:iosptrs.obj
 0002:0000d588       $unwind$fsetpos            0000000180040588     LIBCMT:fsetpos.obj
 0002:0000d588       $unwind$??__Einitlocks@std@@YAXXZ 0000000180040588     libcpmt:iosptrs.obj
 0002:0000d588       $unwind$__doserrno         0000000180040588     LIBCMT:dosmap.obj
 0002:0000d590       $unwind$?_Tidy@?$vector@Uevent_topic_partition_t@Callbacks@NodeKafka@@V?$allocator@Uevent_topic_partition_t@Callbacks@NodeKafka@@@std@@@std@@IEAAXXZ 0000000180040590     callbacks.obj
 0002:0000d590       $unwind$?_Tidy@?$vector@V?$basic_string@DU?$char_traits@D@std@@V?$allocator@D@2@@std@@V?$allocator@V?$basic_string@DU?$char_traits@D@std@@V?$allocator@D@2@@std@@@2@@std@@IEAAXXZ 0000000180040590     common.obj
 0002:0000d59c       $chain$1$?_Tidy@?$vector@Uevent_topic_partition_t@Callbacks@NodeKafka@@V?$allocator@Uevent_topic_partition_t@Callbacks@NodeKafka@@@std@@@std@@IEAAXXZ 000000018004059c     callbacks.obj
 0002:0000d5b4       $chain$2$?_Tidy@?$vector@Uevent_topic_partition_t@Callbacks@NodeKafka@@V?$allocator@Uevent_topic_partition_t@Callbacks@NodeKafka@@@std@@@std@@IEAAXXZ 00000001800405b4     callbacks.obj
 0002:0000d5c4       $unwind$?_Reallocate@?$vector@V?$Persistent@VFunction@v8@@U?$CopyablePersistentTraits@VFunction@v8@@@2@@v8@@V?$allocator@V?$Persistent@VFunction@v8@@U?$CopyablePersistentTraits@VFunction@v8@@@2@@v8@@@std@@@std@@IEAAX_K@Z 00000001800405c4     callbacks.obj
 0002:0000d5d4       $chain$2$?_Reallocate@?$vector@V?$Persistent@VFunction@v8@@U?$CopyablePersistentTraits@VFunction@v8@@@2@@v8@@V?$allocator@V?$Persistent@VFunction@v8@@U?$CopyablePersistentTraits@VFunction@v8@@@2@@v8@@@std@@@std@@IEAAX_K@Z 00000001800405d4     callbacks.obj
 0002:0000d5f0       $chain$3$?_Reallocate@?$vector@V?$Persistent@VFunction@v8@@U?$CopyablePersistentTraits@VFunction@v8@@@2@@v8@@V?$allocator@V?$Persistent@VFunction@v8@@U?$CopyablePersistentTraits@VFunction@v8@@@2@@v8@@@std@@@std@@IEAAX_K@Z 00000001800405f0     callbacks.obj
 0002:0000d600       $unwind$?_Destroy@?$vector@Uevent_t@Callbacks@NodeKafka@@V?$allocator@Uevent_t@Callbacks@NodeKafka@@@std@@@std@@IEAAXPEAUevent_t@Callbacks@NodeKafka@@0@Z 0000000180040600     callbacks.obj
 0002:0000d608       $chain$1$?_Destroy@?$vector@Uevent_t@Callbacks@NodeKafka@@V?$allocator@Uevent_t@Callbacks@NodeKafka@@@std@@@std@@IEAAXPEAUevent_t@Callbacks@NodeKafka@@0@Z 0000000180040608     callbacks.obj
 0002:0000d620       $chain$2$?_Destroy@?$vector@Uevent_t@Callbacks@NodeKafka@@V?$allocator@Uevent_t@Callbacks@NodeKafka@@@std@@@std@@IEAAXPEAUevent_t@Callbacks@NodeKafka@@0@Z 0000000180040620     callbacks.obj
 0002:0000d630       $unwind$?_Reallocate@?$vector@VDeliveryReport@Callbacks@NodeKafka@@V?$allocator@VDeliveryReport@Callbacks@NodeKafka@@@std@@@std@@IEAAX_K@Z 0000000180040630     callbacks.obj
 0002:0000d630       $unwind$?_Reallocate@?$vector@Uevent_t@Callbacks@NodeKafka@@V?$allocator@Uevent_t@Callbacks@NodeKafka@@@std@@@std@@IEAAX_K@Z 0000000180040630     callbacks.obj
 0002:0000d63c       $chain$0$?_Reallocate@?$vector@Uevent_t@Callbacks@NodeKafka@@V?$allocator@Uevent_t@Callbacks@NodeKafka@@@std@@@std@@IEAAX_K@Z 000000018004063c     callbacks.obj
 0002:0000d650       $chain$2$?_Reallocate@?$vector@Uevent_t@Callbacks@NodeKafka@@V?$allocator@Uevent_t@Callbacks@NodeKafka@@@std@@@std@@IEAAX_K@Z 0000000180040650     callbacks.obj
 0002:0000d668       $chain$3$?_Reallocate@?$vector@Uevent_t@Callbacks@NodeKafka@@V?$allocator@Uevent_t@Callbacks@NodeKafka@@@std@@@std@@IEAAX_K@Z 0000000180040668     callbacks.obj
 0002:0000d678       $chain$4$?_Reallocate@?$vector@Uevent_t@Callbacks@NodeKafka@@V?$allocator@Uevent_t@Callbacks@NodeKafka@@@std@@@std@@IEAAX_K@Z 0000000180040678     callbacks.obj
 0002:0000d688       $unwind$?_Destroy@?$vector@VDeliveryReport@Callbacks@NodeKafka@@V?$allocator@VDeliveryReport@Callbacks@NodeKafka@@@std@@@std@@IEAAXPEAVDeliveryReport@Callbacks@NodeKafka@@0@Z 0000000180040688     callbacks.obj
 0002:0000d690       $chain$1$?_Destroy@?$vector@VDeliveryReport@Callbacks@NodeKafka@@V?$allocator@VDeliveryReport@Callbacks@NodeKafka@@@std@@@std@@IEAAXPEAVDeliveryReport@Callbacks@NodeKafka@@0@Z 0000000180040690     callbacks.obj
 0002:0000d6a8       $chain$2$?_Destroy@?$vector@VDeliveryReport@Callbacks@NodeKafka@@V?$allocator@VDeliveryReport@Callbacks@NodeKafka@@@std@@@std@@IEAAXPEAVDeliveryReport@Callbacks@NodeKafka@@0@Z 00000001800406a8     callbacks.obj
 0002:0000d6b8       $chain$0$?_Reallocate@?$vector@VDeliveryReport@Callbacks@NodeKafka@@V?$allocator@VDeliveryReport@Callbacks@NodeKafka@@@std@@@std@@IEAAX_K@Z 00000001800406b8     callbacks.obj
 0002:0000d6cc       $chain$2$?_Reallocate@?$vector@VDeliveryReport@Callbacks@NodeKafka@@V?$allocator@VDeliveryReport@Callbacks@NodeKafka@@@std@@@std@@IEAAX_K@Z 00000001800406cc     callbacks.obj
 0002:0000d6e4       $chain$3$?_Reallocate@?$vector@VDeliveryReport@Callbacks@NodeKafka@@V?$allocator@VDeliveryReport@Callbacks@NodeKafka@@@std@@@std@@IEAAX_K@Z 00000001800406e4     callbacks.obj
 0002:0000d6f4       $chain$4$?_Reallocate@?$vector@VDeliveryReport@Callbacks@NodeKafka@@V?$allocator@VDeliveryReport@Callbacks@NodeKafka@@@std@@@std@@IEAAX_K@Z 00000001800406f4     callbacks.obj
 0002:0000d704       $unwind$?_Reallocate@?$vector@Uevent_topic_partition_t@Callbacks@NodeKafka@@V?$allocator@Uevent_topic_partition_t@Callbacks@NodeKafka@@@std@@@std@@IEAAX_K@Z 0000000180040704     callbacks.obj
 0002:0000d704       $unwind$?_Reallocate@?$vector@V?$basic_string@DU?$char_traits@D@std@@V?$allocator@D@2@@std@@V?$allocator@V?$basic_string@DU?$char_traits@D@std@@V?$allocator@D@2@@std@@@2@@std@@IEAAX_K@Z 0000000180040704     common.obj
 0002:0000d714       $chain$2$?_Reallocate@?$vector@Uevent_topic_partition_t@Callbacks@NodeKafka@@V?$allocator@Uevent_topic_partition_t@Callbacks@NodeKafka@@@std@@@std@@IEAAX_K@Z 0000000180040714     callbacks.obj
 0002:0000d730       $chain$3$?_Reallocate@?$vector@Uevent_topic_partition_t@Callbacks@NodeKafka@@V?$allocator@Uevent_topic_partition_t@Callbacks@NodeKafka@@@std@@@std@@IEAAX_K@Z 0000000180040730     callbacks.obj
 0002:0000d740       $unwind$?_Destroy@?$vector@Urebalance_event_t@Callbacks@NodeKafka@@V?$allocator@Urebalance_event_t@Callbacks@NodeKafka@@@std@@@std@@IEAAXPEAUrebalance_event_t@Callbacks@NodeKafka@@0@Z 0000000180040740     callbacks.obj
 0002:0000d740       $unwind$?_Destroy@?$vector@Uoffset_commit_event_t@Callbacks@NodeKafka@@V?$allocator@Uoffset_commit_event_t@Callbacks@NodeKafka@@@std@@@std@@IEAAXPEAUoffset_commit_event_t@Callbacks@NodeKafka@@0@Z 0000000180040740     callbacks.obj
 0002:0000d748       $chain$3$?_Destroy@?$vector@Urebalance_event_t@Callbacks@NodeKafka@@V?$allocator@Urebalance_event_t@Callbacks@NodeKafka@@@std@@@std@@IEAAXPEAUrebalance_event_t@Callbacks@NodeKafka@@0@Z 0000000180040748     callbacks.obj
 0002:0000d748       $chain$3$?_Destroy@?$vector@Uoffset_commit_event_t@Callbacks@NodeKafka@@V?$allocator@Uoffset_commit_event_t@Callbacks@NodeKafka@@@std@@@std@@IEAAXPEAUoffset_commit_event_t@Callbacks@NodeKafka@@0@Z 0000000180040748     callbacks.obj
 0002:0000d768       $chain$4$?_Destroy@?$vector@Urebalance_event_t@Callbacks@NodeKafka@@V?$allocator@Urebalance_event_t@Callbacks@NodeKafka@@@std@@@std@@IEAAXPEAUrebalance_event_t@Callbacks@NodeKafka@@0@Z 0000000180040768     callbacks.obj
 0002:0000d768       $chain$4$?_Destroy@?$vector@Uoffset_commit_event_t@Callbacks@NodeKafka@@V?$allocator@Uoffset_commit_event_t@Callbacks@NodeKafka@@@std@@@std@@IEAAXPEAUoffset_commit_event_t@Callbacks@NodeKafka@@0@Z 0000000180040768     callbacks.obj
 0002:0000d778       $unwind$?_Reallocate@?$vector@Urebalance_event_t@Callbacks@NodeKafka@@V?$allocator@Urebalance_event_t@Callbacks@NodeKafka@@@std@@@std@@IEAAX_K@Z 0000000180040778     callbacks.obj
 0002:0000d778       $unwind$?_Reallocate@?$vector@Uoffset_commit_event_t@Callbacks@NodeKafka@@V?$allocator@Uoffset_commit_event_t@Callbacks@NodeKafka@@@std@@@std@@IEAAX_K@Z 0000000180040778     callbacks.obj
 0002:0000d784       $chain$0$?_Reallocate@?$vector@Uoffset_commit_event_t@Callbacks@NodeKafka@@V?$allocator@Uoffset_commit_event_t@Callbacks@NodeKafka@@@std@@@std@@IEAAX_K@Z 0000000180040784     callbacks.obj
 0002:0000d784       $chain$0$?_Reallocate@?$vector@Urebalance_event_t@Callbacks@NodeKafka@@V?$allocator@Urebalance_event_t@Callbacks@NodeKafka@@@std@@@std@@IEAAX_K@Z 0000000180040784     callbacks.obj
 0002:0000d798       $chain$2$?_Reallocate@?$vector@Uoffset_commit_event_t@Callbacks@NodeKafka@@V?$allocator@Uoffset_commit_event_t@Callbacks@NodeKafka@@@std@@@std@@IEAAX_K@Z 0000000180040798     callbacks.obj
 0002:0000d798       $chain$2$?_Reallocate@?$vector@Urebalance_event_t@Callbacks@NodeKafka@@V?$allocator@Urebalance_event_t@Callbacks@NodeKafka@@@std@@@std@@IEAAX_K@Z 0000000180040798     callbacks.obj
 0002:0000d7b0       $chain$3$?_Reallocate@?$vector@Uoffset_commit_event_t@Callbacks@NodeKafka@@V?$allocator@Uoffset_commit_event_t@Callbacks@NodeKafka@@@std@@@std@@IEAAX_K@Z 00000001800407b0     callbacks.obj
 0002:0000d7b0       $chain$3$?_Reallocate@?$vector@Urebalance_event_t@Callbacks@NodeKafka@@V?$allocator@Urebalance_event_t@Callbacks@NodeKafka@@@std@@@std@@IEAAX_K@Z 00000001800407b0     callbacks.obj
 0002:0000d7c0       $chain$4$?_Reallocate@?$vector@Uoffset_commit_event_t@Callbacks@NodeKafka@@V?$allocator@Uoffset_commit_event_t@Callbacks@NodeKafka@@@std@@@std@@IEAAX_K@Z 00000001800407c0     callbacks.obj
 0002:0000d7c0       $chain$4$?_Reallocate@?$vector@Urebalance_event_t@Callbacks@NodeKafka@@V?$allocator@Urebalance_event_t@Callbacks@NodeKafka@@@std@@@std@@IEAAX_K@Z 00000001800407c0     callbacks.obj
 0002:0000d7d0       $unwind$??$_Umove@PEAUevent_topic_partition_t@Callbacks@NodeKafka@@@?$vector@Uevent_topic_partition_t@Callbacks@NodeKafka@@V?$allocator@Uevent_topic_partition_t@Callbacks@NodeKafka@@@std@@@std@@IEAAPEAUevent_topic_partition_t@Callbacks@NodeKafka@@PEAU234@00@Z 00000001800407d0     callbacks.obj
 0002:0000d7dc       $chain$2$??$_Umove@PEAUevent_topic_partition_t@Callbacks@NodeKafka@@@?$vector@Uevent_topic_partition_t@Callbacks@NodeKafka@@V?$allocator@Uevent_topic_partition_t@Callbacks@NodeKafka@@@std@@@std@@IEAAPEAUevent_topic_partition_t@Callbacks@NodeKafka@@PEAU234@00@Z 00000001800407dc     callbacks.obj
 0002:0000d7f8       $chain$3$??$_Umove@PEAUevent_topic_partition_t@Callbacks@NodeKafka@@@?$vector@Uevent_topic_partition_t@Callbacks@NodeKafka@@V?$allocator@Uevent_topic_partition_t@Callbacks@NodeKafka@@@std@@@std@@IEAAPEAUevent_topic_partition_t@Callbacks@NodeKafka@@PEAU234@00@Z 00000001800407f8     callbacks.obj
 0002:0000d808       $unwind$_itow_s            0000000180040808     LIBCMT:xtows.obj
 0002:0000d808       $unwind$_invalid_parameter_noinfo 0000000180040808     LIBCMT:invarg.obj
 0002:0000d808       $unwind$_cfltcvt_l         0000000180040808     LIBCMT:cvt.obj
 0002:0000d808       $unwind$?_Doraise@failure@ios_base@std@@MEBAXXZ 0000000180040808     common.obj
 0002:0000d808       $unwind$wctomb_s           0000000180040808     LIBCMT:wctomb.obj
 0002:0000d808       $unwind$?_Doraise@runtime_error@std@@MEBAXXZ 0000000180040808     common.obj
 0002:0000d808       $unwind$_vswprintf_c_l     0000000180040808     LIBCMT:vswprnc.obj
 0002:0000d808       $unwind$mbstowcs_s         0000000180040808     LIBCMT:mbstowcs.obj
 0002:0000d810       $unwind$??0_Locinfo@std@@QEAA@PEBD@Z 0000000180040810     common.obj
 0002:0000d810       $unwind$?x_ismbbtype_l@@YAHPEAUlocaleinfo_struct@@IHH@Z 0000000180040810     LIBCMT:ismbbyte.obj
 0002:0000d810       $unwind$_stricmp_l         0000000180040810     LIBCMT:stricmp.obj
 0002:0000d820       $unwind$?_Getcat@?$ctype@D@std@@SA_KPEAPEBVfacet@locale@2@PEBV42@@Z 0000000180040820     common.obj
 0002:0000d834       $chain$0$?_Getcat@?$ctype@D@std@@SA_KPEAPEBVfacet@locale@2@PEBV42@@Z 0000000180040834     common.obj
 0002:0000d848       $chain$1$?_Getcat@?$ctype@D@std@@SA_KPEAPEBVfacet@locale@2@PEBV42@@Z 0000000180040848     common.obj
 0002:0000d858       $unwind$?do_toupper@?$ctype@D@std@@MEBAPEBDPEADPEBD@Z 0000000180040858     common.obj
 0002:0000d858       $unwind$??$endl@DU?$char_traits@D@std@@@std@@YAAEAV?$basic_ostream@DU?$char_traits@D@std@@@0@AEAV10@@Z 0000000180040858     common.obj
 0002:0000d858       $unwind$?_Reallocate@?$vector@PEAVMessage@RdKafka@@V?$allocator@PEAVMessage@RdKafka@@@std@@@std@@IEAAX_K@Z 0000000180040858     workers.obj
 0002:0000d858       $unwind$?do_tolower@?$ctype@D@std@@MEBAPEBDPEADPEBD@Z 0000000180040858     common.obj
 0002:0000d858       $unwind$ProcessCodePage    0000000180040858     LIBCMT:getqloc_downlevel.obj
 0002:0000d858       $unwind$?_Reallocate@?$vector@PEAVTopicPartition@RdKafka@@V?$allocator@PEAVTopicPartition@RdKafka@@@std@@@std@@IEAAX_K@Z 0000000180040858     common.obj
 0002:0000d858       $unwind$??$_Umove@PEAV?$basic_string@DU?$char_traits@D@std@@V?$allocator@D@2@@std@@@?$vector@V?$basic_string@DU?$char_traits@D@std@@V?$allocator@D@2@@std@@V?$allocator@V?$basic_string@DU?$char_traits@D@std@@V?$allocator@D@2@@std@@@2@@std@@IEAAPEAV?$basic_string@DU?$char_traits@D@std@@V?$allocator@D@2@@1@PEAV21@00@Z 0000000180040858     common.obj
 0002:0000d858       $unwind$ProcessCodePage    0000000180040858     LIBCMT:getqloc.obj
 0002:0000d868       $chain$0$?do_tolower@?$ctype@D@std@@MEBAPEBDPEADPEBD@Z 0000000180040868     common.obj
 0002:0000d87c       $chain$1$?do_tolower@?$ctype@D@std@@MEBAPEBDPEADPEBD@Z 000000018004087c     common.obj
 0002:0000d88c       $chain$0$?do_toupper@?$ctype@D@std@@MEBAPEBDPEADPEBD@Z 000000018004088c     common.obj
 0002:0000d8a0       $chain$1$?do_toupper@?$ctype@D@std@@MEBAPEBDPEADPEBD@Z 00000001800408a0     common.obj
 0002:0000d8b0       $unwind$??0_System_error@std@@IEAA@Verror_code@1@AEBV?$basic_string@DU?$char_traits@D@std@@V?$allocator@D@2@@1@@Z 00000001800408b0     common.obj
 0002:0000d8cc       $unwind$?clear@ios_base@std@@QEAAXH_N@Z 00000001800408cc     common.obj
 0002:0000d8e0       $chain$0$?clear@ios_base@std@@QEAAXH_N@Z 00000001800408e0     common.obj
 0002:0000d8f4       $chain$1$?clear@ios_base@std@@QEAAXH_N@Z 00000001800408f4     common.obj
 0002:0000d904       $chain$2$?clear@ios_base@std@@QEAAXH_N@Z 0000000180040904     common.obj
 0002:0000d918       $unwind$??0Utf8String@Nan@@QEAA@V?$Local@VValue@v8@@@v8@@@Z 0000000180040918     common.obj
 0002:0000d920       $chain$0$??0Utf8String@Nan@@QEAA@V?$Local@VValue@v8@@@v8@@@Z 0000000180040920     common.obj
 0002:0000d934       $chain$1$??0Utf8String@Nan@@QEAA@V?$Local@VValue@v8@@@v8@@@Z 0000000180040934     common.obj
 0002:0000d944       $unwind$??$GetParameter@_J@NodeKafka@@YA_JV?$Local@VObject@v8@@@v8@@V?$basic_string@DU?$char_traits@D@std@@V?$allocator@D@2@@std@@_J@Z 0000000180040944     common.obj
 0002:0000d95c       $unwind$??$GetParameter@_N@NodeKafka@@YA_NV?$Local@VObject@v8@@@v8@@V?$basic_string@DU?$char_traits@D@std@@V?$allocator@D@2@@std@@_N@Z 000000018004095c     common.obj
 0002:0000d974       $unwind$??$GetParameter@H@NodeKafka@@YAHV?$Local@VObject@v8@@@v8@@V?$basic_string@DU?$char_traits@D@std@@V?$allocator@D@2@@std@@H@Z 0000000180040974     common.obj
 0002:0000d980       $unwind$??$GetParameter@V?$basic_string@DU?$char_traits@D@std@@V?$allocator@D@2@@std@@@NodeKafka@@YA?AV?$basic_string@DU?$char_traits@D@std@@V?$allocator@D@2@@std@@V?$Local@VObject@v8@@@v8@@V12@1@Z 0000000180040980     common.obj
 0002:0000d9a0       $unwind$?ToStringVector@Topic@Conversion@NodeKafka@@YA?AV?$vector@V?$basic_string@DU?$char_traits@D@std@@V?$allocator@D@2@@std@@V?$allocator@V?$basic_string@DU?$char_traits@D@std@@V?$allocator@D@2@@std@@@2@@std@@V?$Local@VArray@v8@@@v8@@@Z 00000001800409a0     common.obj
 0002:0000d9b8       $chain$0$?ToStringVector@Topic@Conversion@NodeKafka@@YA?AV?$vector@V?$basic_string@DU?$char_traits@D@std@@V?$allocator@D@2@@std@@V?$allocator@V?$basic_string@DU?$char_traits@D@std@@V?$allocator@D@2@@std@@@2@@std@@V?$Local@VArray@v8@@@v8@@@Z 00000001800409b8     common.obj
 0002:0000d9cc       $chain$1$?ToStringVector@Topic@Conversion@NodeKafka@@YA?AV?$vector@V?$basic_string@DU?$char_traits@D@std@@V?$allocator@D@2@@std@@V?$allocator@V?$basic_string@DU?$char_traits@D@std@@V?$allocator@D@2@@std@@@2@@std@@V?$Local@VArray@v8@@@v8@@@Z 00000001800409cc     common.obj
 0002:0000d9e0       $chain$2$?ToStringVector@Topic@Conversion@NodeKafka@@YA?AV?$vector@V?$basic_string@DU?$char_traits@D@std@@V?$allocator@D@2@@std@@V?$allocator@V?$basic_string@DU?$char_traits@D@std@@V?$allocator@D@2@@std@@@2@@std@@V?$Local@VArray@v8@@@v8@@@Z 00000001800409e0     common.obj
 0002:0000d9f0       $chain$5$?ToStringVector@Topic@Conversion@NodeKafka@@YA?AV?$vector@V?$basic_string@DU?$char_traits@D@std@@V?$allocator@D@2@@std@@V?$allocator@V?$basic_string@DU?$char_traits@D@std@@V?$allocator@D@2@@std@@@2@@std@@V?$Local@VArray@v8@@@v8@@@Z 00000001800409f0     common.obj
 0002:0000d9f0       $chain$3$?ToStringVector@Topic@Conversion@NodeKafka@@YA?AV?$vector@V?$basic_string@DU?$char_traits@D@std@@V?$allocator@D@2@@std@@V?$allocator@V?$basic_string@DU?$char_traits@D@std@@V?$allocator@D@2@@std@@@2@@std@@V?$Local@VArray@v8@@@v8@@@Z 00000001800409f0     common.obj
 0002:0000da00       $chain$4$?ToStringVector@Topic@Conversion@NodeKafka@@YA?AV?$vector@V?$basic_string@DU?$char_traits@D@std@@V?$allocator@D@2@@std@@V?$allocator@V?$basic_string@DU?$char_traits@D@std@@V?$allocator@D@2@@std@@@2@@std@@V?$Local@VArray@v8@@@v8@@@Z 0000000180040a00     common.obj
 0002:0000da14       $unwind$?ToV8Array@Topic@Conversion@NodeKafka@@YA?AV?$Local@VArray@v8@@@v8@@V?$vector@V?$basic_string@DU?$char_traits@D@std@@V?$allocator@D@2@@std@@V?$allocator@V?$basic_string@DU?$char_traits@D@std@@V?$allocator@D@2@@std@@@2@@std@@@Z 0000000180040a14     common.obj
 0002:0000da30       $chain$1$?ToV8Array@Topic@Conversion@NodeKafka@@YA?AV?$Local@VArray@v8@@@v8@@V?$vector@V?$basic_string@DU?$char_traits@D@std@@V?$allocator@D@2@@std@@V?$allocator@V?$basic_string@DU?$char_traits@D@std@@V?$allocator@D@2@@std@@@2@@std@@@Z 0000000180040a30     common.obj
 0002:0000da48       $chain$2$?ToV8Array@Topic@Conversion@NodeKafka@@YA?AV?$Local@VArray@v8@@@v8@@V?$vector@V?$basic_string@DU?$char_traits@D@std@@V?$allocator@D@2@@std@@V?$allocator@V?$basic_string@DU?$char_traits@D@std@@V?$allocator@D@2@@std@@@2@@std@@@Z 0000000180040a48     common.obj
 0002:0000da58       $unwind$?ToV8Array@TopicPartition@Conversion@NodeKafka@@YA?AV?$Local@VArray@v8@@@v8@@AEAV?$vector@PEAVTopicPartition@RdKafka@@V?$allocator@PEAVTopicPartition@RdKafka@@@std@@@std@@@Z 0000000180040a58     common.obj
 0002:0000da74       $chain$3$?ToV8Array@TopicPartition@Conversion@NodeKafka@@YA?AV?$Local@VArray@v8@@@v8@@AEAV?$vector@PEAVTopicPartition@RdKafka@@V?$allocator@PEAVTopicPartition@RdKafka@@@std@@@std@@@Z 0000000180040a74     common.obj
 0002:0000da94       $chain$4$?ToV8Array@TopicPartition@Conversion@NodeKafka@@YA?AV?$Local@VArray@v8@@@v8@@AEAV?$vector@PEAVTopicPartition@RdKafka@@V?$allocator@PEAVTopicPartition@RdKafka@@@std@@@std@@@Z 0000000180040a94     common.obj
 0002:0000daa4       $unwind$?FromV8Array@TopicPartition@Conversion@NodeKafka@@YA?AV?$vector@PEAVTopicPartition@RdKafka@@V?$allocator@PEAVTopicPartition@RdKafka@@@std@@@std@@AEBV?$Local@VArray@v8@@@v8@@@Z 0000000180040aa4     common.obj
 0002:0000dab4       $chain$0$?FromV8Array@TopicPartition@Conversion@NodeKafka@@YA?AV?$vector@PEAVTopicPartition@RdKafka@@V?$allocator@PEAVTopicPartition@RdKafka@@@std@@@std@@AEBV?$Local@VArray@v8@@@v8@@@Z 0000000180040ab4     common.obj
 0002:0000dac8       $chain$1$?FromV8Array@TopicPartition@Conversion@NodeKafka@@YA?AV?$vector@PEAVTopicPartition@RdKafka@@V?$allocator@PEAVTopicPartition@RdKafka@@@std@@@std@@AEBV?$Local@VArray@v8@@@v8@@@Z 0000000180040ac8     common.obj
 0002:0000dad8       $unwind$?FromV8Object@TopicPartition@Conversion@NodeKafka@@YAPEAV1RdKafka@@V?$Local@VObject@v8@@@v8@@@Z 0000000180040ad8     common.obj
 0002:0000daf4       $unwind$?ToV8Object@Metadata@Conversion@NodeKafka@@YA?AV?$Local@VObject@v8@@@v8@@PEAV1RdKafka@@@Z 0000000180040af4     common.obj
 0002:0000db1c       $unwind$?ToV8Object@Message@Conversion@NodeKafka@@YA?AV?$Local@VObject@v8@@@v8@@PEAV1RdKafka@@_N@Z 0000000180040b1c     common.obj
 0002:0000db34       $chain$3$?ToV8Object@Message@Conversion@NodeKafka@@YA?AV?$Local@VObject@v8@@@v8@@PEAV1RdKafka@@_N@Z 0000000180040b34     common.obj
 0002:0000db54       $chain$4$?ToV8Object@Message@Conversion@NodeKafka@@YA?AV?$Local@VObject@v8@@@v8@@PEAV1RdKafka@@_N@Z 0000000180040b54     common.obj
 0002:0000db68       $chain$5$?ToV8Object@Message@Conversion@NodeKafka@@YA?AV?$Local@VObject@v8@@@v8@@PEAV1RdKafka@@_N@Z 0000000180040b68     common.obj
 0002:0000db78       $chain$6$?ToV8Object@Message@Conversion@NodeKafka@@YA?AV?$Local@VObject@v8@@@v8@@PEAV1RdKafka@@_N@Z 0000000180040b78     common.obj
 0002:0000db88       $unwind$?append@?$basic_string@DU?$char_traits@D@std@@V?$allocator@D@2@@std@@QEAAAEAV12@AEBV12@_K1@Z 0000000180040b88     common.obj
 0002:0000db9c       $chain$0$?append@?$basic_string@DU?$char_traits@D@std@@V?$allocator@D@2@@std@@QEAAAEAV12@AEBV12@_K1@Z 0000000180040b9c     common.obj
 0002:0000dbb0       $chain$1$?append@?$basic_string@DU?$char_traits@D@std@@V?$allocator@D@2@@std@@QEAAAEAV12@AEBV12@_K1@Z 0000000180040bb0     common.obj
 0002:0000dbc0       $chain$2$?append@?$basic_string@DU?$char_traits@D@std@@V?$allocator@D@2@@std@@QEAAAEAV12@AEBV12@_K1@Z 0000000180040bc0     common.obj
 0002:0000dbd4       $unwind$?append@?$basic_string@DU?$char_traits@D@std@@V?$allocator@D@2@@std@@QEAAAEAV12@PEBD_K@Z 0000000180040bd4     common.obj
 0002:0000dbe4       $chain$0$?append@?$basic_string@DU?$char_traits@D@std@@V?$allocator@D@2@@std@@QEAAAEAV12@PEBD_K@Z 0000000180040be4     common.obj
 0002:0000dbf8       $chain$1$?append@?$basic_string@DU?$char_traits@D@std@@V?$allocator@D@2@@std@@QEAAAEAV12@PEBD_K@Z 0000000180040bf8     common.obj
 0002:0000dc08       $chain$2$?append@?$basic_string@DU?$char_traits@D@std@@V?$allocator@D@2@@std@@QEAAAEAV12@PEBD_K@Z 0000000180040c08     common.obj
 0002:0000dc1c       $chain$1$?_Tidy@?$vector@V?$basic_string@DU?$char_traits@D@std@@V?$allocator@D@2@@std@@V?$allocator@V?$basic_string@DU?$char_traits@D@std@@V?$allocator@D@2@@std@@@2@@std@@IEAAXXZ 0000000180040c1c     common.obj
 0002:0000dc34       $chain$2$?_Tidy@?$vector@V?$basic_string@DU?$char_traits@D@std@@V?$allocator@D@2@@std@@V?$allocator@V?$basic_string@DU?$char_traits@D@std@@V?$allocator@D@2@@std@@@2@@std@@IEAAXXZ 0000000180040c34     common.obj
 0002:0000dc44       $unwind$_fassign_l         0000000180040c44     LIBCMT:cvt.obj
 0002:0000dc44       $unwind$?flush@?$basic_ostream@DU?$char_traits@D@std@@@std@@QEAAAEAV12@XZ 0000000180040c44     common.obj
 0002:0000dc4c       $chain$0$?flush@?$basic_ostream@DU?$char_traits@D@std@@@std@@QEAAAEAV12@XZ 0000000180040c4c     common.obj
 0002:0000dc60       $chain$1$?flush@?$basic_ostream@DU?$char_traits@D@std@@@std@@QEAAAEAV12@XZ 0000000180040c60     common.obj
 0002:0000dc70       $chain$2$?_Reallocate@?$vector@V?$basic_string@DU?$char_traits@D@std@@V?$allocator@D@2@@std@@V?$allocator@V?$basic_string@DU?$char_traits@D@std@@V?$allocator@D@2@@std@@@2@@std@@IEAAX_K@Z 0000000180040c70     common.obj
 0002:0000dc8c       $chain$3$?_Reallocate@?$vector@V?$basic_string@DU?$char_traits@D@std@@V?$allocator@D@2@@std@@V?$allocator@V?$basic_string@DU?$char_traits@D@std@@V?$allocator@D@2@@std@@@2@@std@@IEAAX_K@Z 0000000180040c8c     common.obj
 0002:0000dc9c       $chain$0$?_Reallocate@?$vector@PEAVTopicPartition@RdKafka@@V?$allocator@PEAVTopicPartition@RdKafka@@@std@@@std@@IEAAX_K@Z 0000000180040c9c     common.obj
 0002:0000dc9c       $chain$0$?_Reallocate@?$vector@PEAVMessage@RdKafka@@V?$allocator@PEAVMessage@RdKafka@@@std@@@std@@IEAAX_K@Z 0000000180040c9c     workers.obj
 0002:0000dcb0       $chain$1$?_Reallocate@?$vector@PEAVTopicPartition@RdKafka@@V?$allocator@PEAVTopicPartition@RdKafka@@@std@@@std@@IEAAX_K@Z 0000000180040cb0     common.obj
 0002:0000dcb0       $chain$1$?_Reallocate@?$vector@PEAVMessage@RdKafka@@V?$allocator@PEAVMessage@RdKafka@@@std@@@std@@IEAAX_K@Z 0000000180040cb0     workers.obj
 0002:0000dcc0       $unwind$??$use_facet@V?$ctype@D@std@@@std@@YAAEBV?$ctype@D@0@AEBVlocale@0@@Z 0000000180040cc0     common.obj
 0002:0000dcd0       $unwind$??$?6U?$char_traits@D@std@@@std@@YAAEAV?$basic_ostream@DU?$char_traits@D@std@@@0@AEAV10@PEBD@Z 0000000180040cd0     common.obj
 0002:0000dcd0       $unwind$?Execute@ProducerDisconnect@Workers@NodeKafka@@UEAAXXZ 0000000180040cd0     workers.obj
 0002:0000dcd8       $chain$3$??$?6U?$char_traits@D@std@@@std@@YAAEAV?$basic_ostream@DU?$char_traits@D@std@@@0@AEAV10@PEBD@Z 0000000180040cd8     common.obj
 0002:0000dcf8       $chain$4$??$?6U?$char_traits@D@std@@@std@@YAAEAV?$basic_ostream@DU?$char_traits@D@std@@@0@AEAV10@PEBD@Z 0000000180040cf8     common.obj
 0002:0000dd0c       $chain$5$??$?6U?$char_traits@D@std@@@std@@YAAEAV?$basic_ostream@DU?$char_traits@D@std@@@0@AEAV10@PEBD@Z 0000000180040d0c     common.obj
 0002:0000dd1c       $chain$0$??$_Umove@PEAV?$basic_string@DU?$char_traits@D@std@@V?$allocator@D@2@@std@@@?$vector@V?$basic_string@DU?$char_traits@D@std@@V?$allocator@D@2@@std@@V?$allocator@V?$basic_string@DU?$char_traits@D@std@@V?$allocator@D@2@@std@@@2@@std@@IEAAPEAV?$basic_string@DU?$char_traits@D@std@@V?$allocator@D@2@@1@PEAV21@00@Z 0000000180040d1c     common.obj
 0002:0000dd30       $chain$1$??$_Umove@PEAV?$basic_string@DU?$char_traits@D@std@@V?$allocator@D@2@@std@@@?$vector@V?$basic_string@DU?$char_traits@D@std@@V?$allocator@D@2@@std@@V?$allocator@V?$basic_string@DU?$char_traits@D@std@@V?$allocator@D@2@@std@@@2@@std@@IEAAPEAV?$basic_string@DU?$char_traits@D@std@@V?$allocator@D@2@@1@PEAV21@00@Z 0000000180040d30     common.obj
 0002:0000dd40       $unwind$?create@Conf@NodeKafka@@SAPEAV12@W4ConfType@1RdKafka@@V?$Local@VObject@v8@@@v8@@AEAV?$basic_string@DU?$char_traits@D@std@@V?$allocator@D@2@@std@@@Z 0000000180040d40     config.obj
 0002:0000dd64       $chain$0$?listen@Conf@NodeKafka@@QEAAXXZ 0000000180040d64     config.obj
 0002:0000dd78       $chain$1$?listen@Conf@NodeKafka@@QEAAXXZ 0000000180040d78     config.obj
 0002:0000dd88       $unwind$?ThrowError@Nan@@YAXPEBD@Z 0000000180040d88     connection.obj
 0002:0000dd90       $unwind$??0Connection@NodeKafka@@IEAA@PEAVConf@1@0@Z 0000000180040d90     connection.obj
 0002:0000ddac       $unwind$?CreateTopic@Connection@NodeKafka@@QEAA?AVBaton@2@V?$basic_string@DU?$char_traits@D@std@@V?$allocator@D@2@@std@@PEAVConf@RdKafka@@@Z 0000000180040dac     connection.obj
 0002:0000ddc8       $chain$0$?CreateTopic@Connection@NodeKafka@@QEAA?AVBaton@2@V?$basic_string@DU?$char_traits@D@std@@V?$allocator@D@2@@std@@PEAVConf@RdKafka@@@Z 0000000180040dc8     connection.obj
 0002:0000dddc       $chain$1$?CreateTopic@Connection@NodeKafka@@QEAA?AVBaton@2@V?$basic_string@DU?$char_traits@D@std@@V?$allocator@D@2@@std@@PEAVConf@RdKafka@@@Z 0000000180040ddc     connection.obj
 0002:0000ddec       $unwind$?QueryWatermarkOffsets@Connection@NodeKafka@@QEAA?AVBaton@2@V?$basic_string@DU?$char_traits@D@std@@V?$allocator@D@2@@std@@HPEA_J1H@Z 0000000180040dec     connection.obj
 0002:0000de00       $unwind$?GetMetadata@Connection@NodeKafka@@QEAA?AVBaton@2@_NV?$basic_string@DU?$char_traits@D@std@@V?$allocator@D@2@@std@@H@Z 0000000180040e00     connection.obj
 0002:0000de1c       $chain$0$?GetMetadata@Connection@NodeKafka@@QEAA?AVBaton@2@_NV?$basic_string@DU?$char_traits@D@std@@V?$allocator@D@2@@std@@H@Z 0000000180040e1c     connection.obj
 0002:0000de30       $chain$1$?GetMetadata@Connection@NodeKafka@@QEAA?AVBaton@2@_NV?$basic_string@DU?$char_traits@D@std@@V?$allocator@D@2@@std@@H@Z 0000000180040e30     connection.obj
 0002:0000de40       $unwind$?NodeGetMetadata@Connection@NodeKafka@@KAXAEBV?$FunctionCallbackInfo@VValue@v8@@@Nan@@@Z 0000000180040e40     connection.obj
 0002:0000de5c       $chain$4$?NodeGetMetadata@Connection@NodeKafka@@KAXAEBV?$FunctionCallbackInfo@VValue@v8@@@Nan@@@Z 0000000180040e5c     connection.obj
 0002:0000de7c       $chain$5$?NodeGetMetadata@Connection@NodeKafka@@KAXAEBV?$FunctionCallbackInfo@VValue@v8@@@Nan@@@Z 0000000180040e7c     connection.obj
 0002:0000de90       $chain$6$?NodeGetMetadata@Connection@NodeKafka@@KAXAEBV?$FunctionCallbackInfo@VValue@v8@@@Nan@@@Z 0000000180040e90     connection.obj
 0002:0000dea0       $unwind$?NodeQueryWatermarkOffsets@Connection@NodeKafka@@KAXAEBV?$FunctionCallbackInfo@VValue@v8@@@Nan@@@Z 0000000180040ea0     connection.obj
 0002:0000debc       $chain$1$?NodeQueryWatermarkOffsets@Connection@NodeKafka@@KAXAEBV?$FunctionCallbackInfo@VValue@v8@@@Nan@@@Z 0000000180040ebc     connection.obj
 0002:0000ded4       $chain$2$?NodeQueryWatermarkOffsets@Connection@NodeKafka@@KAXAEBV?$FunctionCallbackInfo@VValue@v8@@@Nan@@@Z 0000000180040ed4     connection.obj
 0002:0000dee4       $unwind$??$Unwrap@VConnection@NodeKafka@@@ObjectWrap@Nan@@SAPEAVConnection@NodeKafka@@V?$Local@VObject@v8@@@v8@@@Z 0000000180040ee4     connection.obj
 0002:0000dee4       $unwind$??$Unwrap@VProducer@NodeKafka@@@ObjectWrap@Nan@@SAPEAVProducer@NodeKafka@@V?$Local@VObject@v8@@@v8@@@Z 0000000180040ee4     producer.obj
 0002:0000dee4       $unwind$??$Unwrap@VTopic@NodeKafka@@@ObjectWrap@Nan@@SAPEAVTopic@NodeKafka@@V?$Local@VObject@v8@@@v8@@@Z 0000000180040ee4     producer.obj
 0002:0000dee4       $unwind$??$Unwrap@VKafkaConsumer@NodeKafka@@@ObjectWrap@Nan@@SAPEAVKafkaConsumer@NodeKafka@@V?$Local@VObject@v8@@@v8@@@Z 0000000180040ee4     kafka-consumer.obj
 0002:0000deec       $unwind$?RdKafkaError@NodeKafka@@YA?AV?$Local@VObject@v8@@@v8@@AEBW4ErrorCode@RdKafka@@V?$basic_string@DU?$char_traits@D@std@@V?$allocator@D@2@@std@@@Z 0000000180040eec     errors.obj
 0002:0000df0c       $unwind$?SetPrototypeMethod@Nan@@YAXV?$Local@VFunctionTemplate@v8@@@v8@@PEBDP6AXAEBV?$FunctionCallbackInfo@VValue@v8@@@1@@Z@Z 0000000180040f0c     kafka-consumer.obj
 0002:0000df1c       $unwind$?Wrap@ObjectWrap@Nan@@IEAAXV?$Local@VObject@v8@@@v8@@@Z 0000000180040f1c     kafka-consumer.obj
 0002:0000df28       $unwind$??0KafkaConsumer@NodeKafka@@IEAA@PEAVConf@1@0@Z 0000000180040f28     kafka-consumer.obj
 0002:0000df38       $unwind$?Execute@KafkaConsumerConsume@Workers@NodeKafka@@UEAAXXZ 0000000180040f38     workers.obj
 0002:0000df38       $unwind$?Execute@KafkaConsumerSeek@Workers@NodeKafka@@UEAAXXZ 0000000180040f38     workers.obj
 0002:0000df38       $unwind$?Execute@ProducerConnect@Workers@NodeKafka@@UEAAXXZ 0000000180040f38     workers.obj
 0002:0000df38       $unwind$?Execute@ProducerFlush@Workers@NodeKafka@@UEAAXXZ 0000000180040f38     workers.obj
 0002:0000df38       $unwind$?Execute@KafkaConsumerConnect@Workers@NodeKafka@@UEAAXXZ 0000000180040f38     workers.obj
 0002:0000df38       $unwind$?Execute@KafkaConsumerDisconnect@Workers@NodeKafka@@UEAAXXZ 0000000180040f38     workers.obj
 0002:0000df38       $unwind$??1KafkaConsumer@NodeKafka@@MEAA@XZ 0000000180040f38     kafka-consumer.obj
 0002:0000df38       $unwind$?Execute@KafkaConsumerCommitted@Workers@NodeKafka@@UEAAXXZ 0000000180040f38     workers.obj
 0002:0000df48       $unwind$?Connect@KafkaConsumer@NodeKafka@@QEAA?AVBaton@2@XZ 0000000180040f48     kafka-consumer.obj
 0002:0000df48       $unwind$?Connect@Producer@NodeKafka@@QEAA?AVBaton@2@XZ 0000000180040f48     producer.obj
 0002:0000df64       $chain$0$?Connect@KafkaConsumer@NodeKafka@@QEAA?AVBaton@2@XZ 0000000180040f64     kafka-consumer.obj
 0002:0000df78       $chain$1$?Connect@KafkaConsumer@NodeKafka@@QEAA?AVBaton@2@XZ 0000000180040f78     kafka-consumer.obj
 0002:0000df88       $unwind$?Flush@Producer@NodeKafka@@QEAA?AVBaton@2@H@Z 0000000180040f88     producer.obj
 0002:0000df88       $unwind$?Disconnect@KafkaConsumer@NodeKafka@@QEAA?AVBaton@2@XZ 0000000180040f88     kafka-consumer.obj
 0002:0000df98       $chain$0$?Disconnect@KafkaConsumer@NodeKafka@@QEAA?AVBaton@2@XZ 0000000180040f98     kafka-consumer.obj
 0002:0000dfac       $chain$1$?Disconnect@KafkaConsumer@NodeKafka@@QEAA?AVBaton@2@XZ 0000000180040fac     kafka-consumer.obj
 0002:0000dfbc       $unwind$?Assign@KafkaConsumer@NodeKafka@@QEAA?AVBaton@2@V?$vector@PEAVTopicPartition@RdKafka@@V?$allocator@PEAVTopicPartition@RdKafka@@@std@@@std@@@Z 0000000180040fbc     kafka-consumer.obj
 0002:0000dfd8       $unwind$__copy_locale_name 0000000180040fd8     LIBCMT:wsetloca.obj
 0002:0000dfd8       $unwind$?Unassign@KafkaConsumer@NodeKafka@@QEAA?AVBaton@2@XZ 0000000180040fd8     kafka-consumer.obj
 0002:0000dfd8       $unwind$__crtLCMapStringW  0000000180040fd8     LIBCMT:w_map.obj
 0002:0000dfd8       $unwind$_wcsdup            0000000180040fd8     LIBCMT:wcsdup.obj
 0002:0000dfe8       $unwind$?CommitSync@KafkaConsumer@NodeKafka@@QEAA?AVBaton@2@V?$basic_string@DU?$char_traits@D@std@@V?$allocator@D@2@@std@@H_J@Z 0000000180040fe8     kafka-consumer.obj
 0002:0000dfe8       $unwind$?Commit@KafkaConsumer@NodeKafka@@QEAA?AVBaton@2@V?$basic_string@DU?$char_traits@D@std@@V?$allocator@D@2@@std@@H_J@Z 0000000180040fe8     kafka-consumer.obj
 0002:0000dff8       $chain$0$?Commit@KafkaConsumer@NodeKafka@@QEAA?AVBaton@2@V?$basic_string@DU?$char_traits@D@std@@V?$allocator@D@2@@std@@H_J@Z 0000000180040ff8     kafka-consumer.obj
 0002:0000e00c       $chain$1$?Commit@KafkaConsumer@NodeKafka@@QEAA?AVBaton@2@V?$basic_string@DU?$char_traits@D@std@@V?$allocator@D@2@@std@@H_J@Z 000000018004100c     kafka-consumer.obj
 0002:0000e01c       $unwind$?Commit@KafkaConsumer@NodeKafka@@QEAA?AVBaton@2@XZ 000000018004101c     kafka-consumer.obj
 0002:0000e01c       $unwind$?CommitSync@KafkaConsumer@NodeKafka@@QEAA?AVBaton@2@XZ 000000018004101c     kafka-consumer.obj
 0002:0000e034       $chain$0$?CommitSync@KafkaConsumer@NodeKafka@@QEAA?AVBaton@2@V?$basic_string@DU?$char_traits@D@std@@V?$allocator@D@2@@std@@H_J@Z 0000000180041034     kafka-consumer.obj
 0002:0000e048       $chain$1$?CommitSync@KafkaConsumer@NodeKafka@@QEAA?AVBaton@2@V?$basic_string@DU?$char_traits@D@std@@V?$allocator@D@2@@std@@H_J@Z 0000000180041048     kafka-consumer.obj
 0002:0000e058       $unwind$?Seek@KafkaConsumer@NodeKafka@@QEAA?AVBaton@2@AEBVTopicPartition@RdKafka@@H@Z 0000000180041058     kafka-consumer.obj
 0002:0000e058       $unwind$?Committed@KafkaConsumer@NodeKafka@@QEAA?AVBaton@2@AEAV?$vector@PEAVTopicPartition@RdKafka@@V?$allocator@PEAVTopicPartition@RdKafka@@@std@@@std@@H@Z 0000000180041058     kafka-consumer.obj
 0002:0000e070       $unwind$?Position@KafkaConsumer@NodeKafka@@QEAA?AVBaton@2@AEAV?$vector@PEAVTopicPartition@RdKafka@@V?$allocator@PEAVTopicPartition@RdKafka@@@std@@@std@@@Z 0000000180041070     kafka-consumer.obj
 0002:0000e088       $unwind$?Subscription@KafkaConsumer@NodeKafka@@QEAA?AVBaton@2@XZ 0000000180041088     kafka-consumer.obj
 0002:0000e09c       $chain$0$?Subscription@KafkaConsumer@NodeKafka@@QEAA?AVBaton@2@XZ 000000018004109c     kafka-consumer.obj
 0002:0000e0b0       $chain$1$?Subscription@KafkaConsumer@NodeKafka@@QEAA?AVBaton@2@XZ 00000001800410b0     kafka-consumer.obj
 0002:0000e0c4       $chain$2$?Subscription@KafkaConsumer@NodeKafka@@QEAA?AVBaton@2@XZ 00000001800410c4     kafka-consumer.obj
 0002:0000e0d4       $chain$5$?Subscription@KafkaConsumer@NodeKafka@@QEAA?AVBaton@2@XZ 00000001800410d4     kafka-consumer.obj
 0002:0000e0d4       $chain$3$?Subscription@KafkaConsumer@NodeKafka@@QEAA?AVBaton@2@XZ 00000001800410d4     kafka-consumer.obj
 0002:0000e0e4       $chain$4$?Subscription@KafkaConsumer@NodeKafka@@QEAA?AVBaton@2@XZ 00000001800410e4     kafka-consumer.obj
 0002:0000e0f8       $unwind$_setenvp           00000001800410f8     LIBCMT:stdenvp.obj
 0002:0000e0f8       $unwind$__crtDownlevelLCIDToLocaleName 00000001800410f8     LIBCMT:winapinls.obj
 0002:0000e0f8       $unwind$__lc_lctowcs       00000001800410f8     LIBCMT:wsetloca.obj
 0002:0000e0f8       $unwind$?Subscribe@KafkaConsumer@NodeKafka@@QEAA?AVBaton@2@V?$vector@V?$basic_string@DU?$char_traits@D@std@@V?$allocator@D@2@@std@@V?$allocator@V?$basic_string@DU?$char_traits@D@std@@V?$allocator@D@2@@std@@@2@@std@@@Z 00000001800410f8     kafka-consumer.obj
 0002:0000e0f8       $unwind$_invalid_parameter 00000001800410f8     LIBCMT:invarg.obj
 0002:0000e10c       $unwind$?Consume@KafkaConsumer@NodeKafka@@QEAA?AVBaton@2@H@Z 000000018004110c     kafka-consumer.obj
 0002:0000e124       $chain$0$?Consume@KafkaConsumer@NodeKafka@@QEAA?AVBaton@2@H@Z 0000000180041124     kafka-consumer.obj
 0002:0000e138       $chain$1$?Consume@KafkaConsumer@NodeKafka@@QEAA?AVBaton@2@H@Z 0000000180041138     kafka-consumer.obj
 0002:0000e14c       $chain$2$?Consume@KafkaConsumer@NodeKafka@@QEAA?AVBaton@2@H@Z 000000018004114c     kafka-consumer.obj
 0002:0000e15c       $chain$3$?Consume@KafkaConsumer@NodeKafka@@QEAA?AVBaton@2@H@Z 000000018004115c     kafka-consumer.obj
 0002:0000e15c       $chain$6$?Consume@KafkaConsumer@NodeKafka@@QEAA?AVBaton@2@H@Z 000000018004115c     kafka-consumer.obj
 0002:0000e16c       $chain$4$?Consume@KafkaConsumer@NodeKafka@@QEAA?AVBaton@2@H@Z 000000018004116c     kafka-consumer.obj
 0002:0000e184       $chain$5$?Consume@KafkaConsumer@NodeKafka@@QEAA?AVBaton@2@H@Z 0000000180041184     kafka-consumer.obj
 0002:0000e198       $unwind$?RefreshAssignments@KafkaConsumer@NodeKafka@@QEAA?AVBaton@2@XZ 0000000180041198     kafka-consumer.obj
 0002:0000e198       $unwind$__crtGetLocaleInfoA 0000000180041198     LIBCMT:a_loc.obj
 0002:0000e1a8       $unwind$?Init@Producer@NodeKafka@@SAXV?$Local@VObject@v8@@@v8@@@Z 00000001800411a8     producer.obj
 0002:0000e1a8       $unwind$?Init@Topic@NodeKafka@@SAXV?$Local@VObject@v8@@@v8@@@Z 00000001800411a8     topic.obj
 0002:0000e1a8       $unwind$?Init@KafkaConsumer@NodeKafka@@SAXV?$Local@VObject@v8@@@v8@@@Z 00000001800411a8     kafka-consumer.obj
 0002:0000e1b8       $unwind$?New@Producer@NodeKafka@@KAXAEBV?$FunctionCallbackInfo@VValue@v8@@@Nan@@@Z 00000001800411b8     producer.obj
 0002:0000e1b8       $unwind$?New@KafkaConsumer@NodeKafka@@KAXAEBV?$FunctionCallbackInfo@VValue@v8@@@Nan@@@Z 00000001800411b8     kafka-consumer.obj
 0002:0000e1d0       $chain$2$?New@KafkaConsumer@NodeKafka@@KAXAEBV?$FunctionCallbackInfo@VValue@v8@@@Nan@@@Z 00000001800411d0     kafka-consumer.obj
 0002:0000e1e4       $unwind$?NodeCommitted@KafkaConsumer@NodeKafka@@CAXAEBV?$FunctionCallbackInfo@VValue@v8@@@Nan@@@Z 00000001800411e4     kafka-consumer.obj
 0002:0000e1ec       $chain$3$?NodeCommitted@KafkaConsumer@NodeKafka@@CAXAEBV?$FunctionCallbackInfo@VValue@v8@@@Nan@@@Z 00000001800411ec     kafka-consumer.obj
 0002:0000e20c       $chain$4$?NodeCommitted@KafkaConsumer@NodeKafka@@CAXAEBV?$FunctionCallbackInfo@VValue@v8@@@Nan@@@Z 000000018004120c     kafka-consumer.obj
 0002:0000e21c       $unwind$?NodeSubscription@KafkaConsumer@NodeKafka@@CAXAEBV?$FunctionCallbackInfo@VValue@v8@@@Nan@@@Z 000000018004121c     kafka-consumer.obj
 0002:0000e230       $chain$0$?NodeSubscription@KafkaConsumer@NodeKafka@@CAXAEBV?$FunctionCallbackInfo@VValue@v8@@@Nan@@@Z 0000000180041230     kafka-consumer.obj
 0002:0000e244       $chain$1$?NodeSubscription@KafkaConsumer@NodeKafka@@CAXAEBV?$FunctionCallbackInfo@VValue@v8@@@Nan@@@Z 0000000180041244     kafka-consumer.obj
 0002:0000e254       $chain$2$?NodeSubscription@KafkaConsumer@NodeKafka@@CAXAEBV?$FunctionCallbackInfo@VValue@v8@@@Nan@@@Z 0000000180041254     kafka-consumer.obj
 0002:0000e268       $chain$3$?NodeSubscription@KafkaConsumer@NodeKafka@@CAXAEBV?$FunctionCallbackInfo@VValue@v8@@@Nan@@@Z 0000000180041268     kafka-consumer.obj
 0002:0000e278       $unwind$?NodePosition@KafkaConsumer@NodeKafka@@CAXAEBV?$FunctionCallbackInfo@VValue@v8@@@Nan@@@Z 0000000180041278     kafka-consumer.obj
 0002:0000e294       $chain$0$?NodePosition@KafkaConsumer@NodeKafka@@CAXAEBV?$FunctionCallbackInfo@VValue@v8@@@Nan@@@Z 0000000180041294     kafka-consumer.obj
 0002:0000e2a8       $chain$1$?NodePosition@KafkaConsumer@NodeKafka@@CAXAEBV?$FunctionCallbackInfo@VValue@v8@@@Nan@@@Z 00000001800412a8     kafka-consumer.obj
 0002:0000e2b8       $unwind$?NodeAssignments@KafkaConsumer@NodeKafka@@CAXAEBV?$FunctionCallbackInfo@VValue@v8@@@Nan@@@Z 00000001800412b8     kafka-consumer.obj
 0002:0000e2d0       $chain$0$?NodeAssignments@KafkaConsumer@NodeKafka@@CAXAEBV?$FunctionCallbackInfo@VValue@v8@@@Nan@@@Z 00000001800412d0     kafka-consumer.obj
 0002:0000e2e4       $chain$1$?NodeAssignments@KafkaConsumer@NodeKafka@@CAXAEBV?$FunctionCallbackInfo@VValue@v8@@@Nan@@@Z 00000001800412e4     kafka-consumer.obj
 0002:0000e2f4       $unwind$?NodeAssign@KafkaConsumer@NodeKafka@@CAXAEBV?$FunctionCallbackInfo@VValue@v8@@@Nan@@@Z 00000001800412f4     kafka-consumer.obj
 0002:0000e308       $chain$5$?NodeAssign@KafkaConsumer@NodeKafka@@CAXAEBV?$FunctionCallbackInfo@VValue@v8@@@Nan@@@Z 0000000180041308     kafka-consumer.obj
 0002:0000e330       $chain$6$?NodeAssign@KafkaConsumer@NodeKafka@@CAXAEBV?$FunctionCallbackInfo@VValue@v8@@@Nan@@@Z 0000000180041330     kafka-consumer.obj
 0002:0000e340       $chain$7$?NodeAssign@KafkaConsumer@NodeKafka@@CAXAEBV?$FunctionCallbackInfo@VValue@v8@@@Nan@@@Z 0000000180041340     kafka-consumer.obj
 0002:0000e368       $unwind$?NodeUnassign@KafkaConsumer@NodeKafka@@CAXAEBV?$FunctionCallbackInfo@VValue@v8@@@Nan@@@Z 0000000180041368     kafka-consumer.obj
 0002:0000e37c       $unwind$?NodeUnsubscribe@KafkaConsumer@NodeKafka@@CAXAEBV?$FunctionCallbackInfo@VValue@v8@@@Nan@@@Z 000000018004137c     kafka-consumer.obj
 0002:0000e388       $unwind$?NodeCommit@KafkaConsumer@NodeKafka@@CAXAEBV?$FunctionCallbackInfo@VValue@v8@@@Nan@@@Z 0000000180041388     kafka-consumer.obj
 0002:0000e388       $unwind$?NodeCommitSync@KafkaConsumer@NodeKafka@@CAXAEBV?$FunctionCallbackInfo@VValue@v8@@@Nan@@@Z 0000000180041388     kafka-consumer.obj
 0002:0000e3a4       $chain$1$?NodeCommit@KafkaConsumer@NodeKafka@@CAXAEBV?$FunctionCallbackInfo@VValue@v8@@@Nan@@@Z 00000001800413a4     kafka-consumer.obj
 0002:0000e3bc       $chain$2$?NodeCommit@KafkaConsumer@NodeKafka@@CAXAEBV?$FunctionCallbackInfo@VValue@v8@@@Nan@@@Z 00000001800413bc     kafka-consumer.obj
 0002:0000e3cc       $chain$3$?NodeCommit@KafkaConsumer@NodeKafka@@CAXAEBV?$FunctionCallbackInfo@VValue@v8@@@Nan@@@Z 00000001800413cc     kafka-consumer.obj
 0002:0000e3e0       $chain$4$?NodeCommit@KafkaConsumer@NodeKafka@@CAXAEBV?$FunctionCallbackInfo@VValue@v8@@@Nan@@@Z 00000001800413e0     kafka-consumer.obj
 0002:0000e3f0       $chain$1$?NodeCommitSync@KafkaConsumer@NodeKafka@@CAXAEBV?$FunctionCallbackInfo@VValue@v8@@@Nan@@@Z 00000001800413f0     kafka-consumer.obj
 0002:0000e408       $chain$2$?NodeCommitSync@KafkaConsumer@NodeKafka@@CAXAEBV?$FunctionCallbackInfo@VValue@v8@@@Nan@@@Z 0000000180041408     kafka-consumer.obj
 0002:0000e418       $chain$3$?NodeCommitSync@KafkaConsumer@NodeKafka@@CAXAEBV?$FunctionCallbackInfo@VValue@v8@@@Nan@@@Z 0000000180041418     kafka-consumer.obj
 0002:0000e42c       $chain$4$?NodeCommitSync@KafkaConsumer@NodeKafka@@CAXAEBV?$FunctionCallbackInfo@VValue@v8@@@Nan@@@Z 000000018004142c     kafka-consumer.obj
 0002:0000e43c       $unwind$?NodeSubscribe@KafkaConsumer@NodeKafka@@CAXAEBV?$FunctionCallbackInfo@VValue@v8@@@Nan@@@Z 000000018004143c     kafka-consumer.obj
 0002:0000e450       $chain$1$?NodeSubscribe@KafkaConsumer@NodeKafka@@CAXAEBV?$FunctionCallbackInfo@VValue@v8@@@Nan@@@Z 0000000180041450     kafka-consumer.obj
 0002:0000e468       $chain$2$?NodeSubscribe@KafkaConsumer@NodeKafka@@CAXAEBV?$FunctionCallbackInfo@VValue@v8@@@Nan@@@Z 0000000180041468     kafka-consumer.obj
 0002:0000e47c       $chain$3$?NodeSubscribe@KafkaConsumer@NodeKafka@@CAXAEBV?$FunctionCallbackInfo@VValue@v8@@@Nan@@@Z 000000018004147c     kafka-consumer.obj
 0002:0000e48c       $chain$4$?NodeSubscribe@KafkaConsumer@NodeKafka@@CAXAEBV?$FunctionCallbackInfo@VValue@v8@@@Nan@@@Z 000000018004148c     kafka-consumer.obj
 0002:0000e4a0       $chain$5$?NodeSubscribe@KafkaConsumer@NodeKafka@@CAXAEBV?$FunctionCallbackInfo@VValue@v8@@@Nan@@@Z 00000001800414a0     kafka-consumer.obj
 0002:0000e4b0       $chain$6$?NodeSubscribe@KafkaConsumer@NodeKafka@@CAXAEBV?$FunctionCallbackInfo@VValue@v8@@@Nan@@@Z 00000001800414b0     kafka-consumer.obj
 0002:0000e4c0       $unwind$?NodeSeek@KafkaConsumer@NodeKafka@@CAXAEBV?$FunctionCallbackInfo@VValue@v8@@@Nan@@@Z 00000001800414c0     kafka-consumer.obj
 0002:0000e4d0       $chain$0$?NodeSeek@KafkaConsumer@NodeKafka@@CAXAEBV?$FunctionCallbackInfo@VValue@v8@@@Nan@@@Z 00000001800414d0     kafka-consumer.obj
 0002:0000e4e4       $chain$1$?NodeSeek@KafkaConsumer@NodeKafka@@CAXAEBV?$FunctionCallbackInfo@VValue@v8@@@Nan@@@Z 00000001800414e4     kafka-consumer.obj
 0002:0000e4f4       $unwind$?NodePause@KafkaConsumer@NodeKafka@@CAXAEBV?$FunctionCallbackInfo@VValue@v8@@@Nan@@@Z 00000001800414f4     kafka-consumer.obj
 0002:0000e4f4       $unwind$?NodeOffsetsStore@KafkaConsumer@NodeKafka@@CAXAEBV?$FunctionCallbackInfo@VValue@v8@@@Nan@@@Z 00000001800414f4     kafka-consumer.obj
 0002:0000e4fc       $chain$1$?NodeOffsetsStore@KafkaConsumer@NodeKafka@@CAXAEBV?$FunctionCallbackInfo@VValue@v8@@@Nan@@@Z 00000001800414fc     kafka-consumer.obj
 0002:0000e514       $chain$2$?NodeOffsetsStore@KafkaConsumer@NodeKafka@@CAXAEBV?$FunctionCallbackInfo@VValue@v8@@@Nan@@@Z 0000000180041514     kafka-consumer.obj
 0002:0000e524       $chain$1$?NodePause@KafkaConsumer@NodeKafka@@CAXAEBV?$FunctionCallbackInfo@VValue@v8@@@Nan@@@Z 0000000180041524     kafka-consumer.obj
 0002:0000e53c       $chain$2$?NodePause@KafkaConsumer@NodeKafka@@CAXAEBV?$FunctionCallbackInfo@VValue@v8@@@Nan@@@Z 000000018004153c     kafka-consumer.obj
 0002:0000e54c       $unwind$?NodeResume@KafkaConsumer@NodeKafka@@CAXAEBV?$FunctionCallbackInfo@VValue@v8@@@Nan@@@Z 000000018004154c     kafka-consumer.obj
 0002:0000e554       $chain$2$?NodeResume@KafkaConsumer@NodeKafka@@CAXAEBV?$FunctionCallbackInfo@VValue@v8@@@Nan@@@Z 0000000180041554     kafka-consumer.obj
 0002:0000e570       $chain$3$?NodeResume@KafkaConsumer@NodeKafka@@CAXAEBV?$FunctionCallbackInfo@VValue@v8@@@Nan@@@Z 0000000180041570     kafka-consumer.obj
 0002:0000e584       $chain$4$?NodeResume@KafkaConsumer@NodeKafka@@CAXAEBV?$FunctionCallbackInfo@VValue@v8@@@Nan@@@Z 0000000180041584     kafka-consumer.obj
 0002:0000e594       $chain$5$?NodeResume@KafkaConsumer@NodeKafka@@CAXAEBV?$FunctionCallbackInfo@VValue@v8@@@Nan@@@Z 0000000180041594     kafka-consumer.obj
 0002:0000e5a4       $unwind$?NodeConsumeLoop@KafkaConsumer@NodeKafka@@CAXAEBV?$FunctionCallbackInfo@VValue@v8@@@Nan@@@Z 00000001800415a4     kafka-consumer.obj
 0002:0000e5a4       $unwind$?NodeFlush@Producer@NodeKafka@@CAXAEBV?$FunctionCallbackInfo@VValue@v8@@@Nan@@@Z 00000001800415a4     producer.obj
 0002:0000e5ac       $chain$3$?NodeConsumeLoop@KafkaConsumer@NodeKafka@@CAXAEBV?$FunctionCallbackInfo@VValue@v8@@@Nan@@@Z 00000001800415ac     kafka-consumer.obj
 0002:0000e5cc       $chain$4$?NodeConsumeLoop@KafkaConsumer@NodeKafka@@CAXAEBV?$FunctionCallbackInfo@VValue@v8@@@Nan@@@Z 00000001800415cc     kafka-consumer.obj
 0002:0000e5dc       $unwind$?NodeConsume@KafkaConsumer@NodeKafka@@CAXAEBV?$FunctionCallbackInfo@VValue@v8@@@Nan@@@Z 00000001800415dc     kafka-consumer.obj
 0002:0000e5f0       $chain$0$?NodeConsume@KafkaConsumer@NodeKafka@@CAXAEBV?$FunctionCallbackInfo@VValue@v8@@@Nan@@@Z 00000001800415f0     kafka-consumer.obj
 0002:0000e604       $chain$2$?NodeConsume@KafkaConsumer@NodeKafka@@CAXAEBV?$FunctionCallbackInfo@VValue@v8@@@Nan@@@Z 0000000180041604     kafka-consumer.obj
 0002:0000e618       $chain$3$?NodeConsume@KafkaConsumer@NodeKafka@@CAXAEBV?$FunctionCallbackInfo@VValue@v8@@@Nan@@@Z 0000000180041618     kafka-consumer.obj
 0002:0000e628       $unwind$?NodeDisconnect@KafkaConsumer@NodeKafka@@CAXAEBV?$FunctionCallbackInfo@VValue@v8@@@Nan@@@Z 0000000180041628     kafka-consumer.obj
 0002:0000e628       $unwind$?NodeConnect@KafkaConsumer@NodeKafka@@CAXAEBV?$FunctionCallbackInfo@VValue@v8@@@Nan@@@Z 0000000180041628     kafka-consumer.obj
 0002:0000e628       $unwind$?NodeConnect@Producer@NodeKafka@@CAXAEBV?$FunctionCallbackInfo@VValue@v8@@@Nan@@@Z 0000000180041628     producer.obj
 0002:0000e628       $unwind$?WorkMessage@MessageWorker@Workers@NodeKafka@@QEAAXXZ 0000000180041628     workers.obj
 0002:0000e628       $unwind$?NodeDisconnect@Producer@NodeKafka@@CAXAEBV?$FunctionCallbackInfo@VValue@v8@@@Nan@@@Z 0000000180041628     producer.obj
 0002:0000e630       $chain$2$?NodeConnect@KafkaConsumer@NodeKafka@@CAXAEBV?$FunctionCallbackInfo@VValue@v8@@@Nan@@@Z 0000000180041630     kafka-consumer.obj
 0002:0000e64c       $chain$3$?NodeConnect@KafkaConsumer@NodeKafka@@CAXAEBV?$FunctionCallbackInfo@VValue@v8@@@Nan@@@Z 000000018004164c     kafka-consumer.obj
 0002:0000e65c       $chain$2$?NodeDisconnect@KafkaConsumer@NodeKafka@@CAXAEBV?$FunctionCallbackInfo@VValue@v8@@@Nan@@@Z 000000018004165c     kafka-consumer.obj
 0002:0000e678       $chain$3$?NodeDisconnect@KafkaConsumer@NodeKafka@@CAXAEBV?$FunctionCallbackInfo@VValue@v8@@@Nan@@@Z 0000000180041678     kafka-consumer.obj
 0002:0000e688       $unwind$?NodeGetWatermarkOffsets@KafkaConsumer@NodeKafka@@CAXAEBV?$FunctionCallbackInfo@VValue@v8@@@Nan@@@Z 0000000180041688     kafka-consumer.obj
 0002:0000e6a0       $chain$2$?NodeGetWatermarkOffsets@KafkaConsumer@NodeKafka@@CAXAEBV?$FunctionCallbackInfo@VValue@v8@@@Nan@@@Z 00000001800416a0     kafka-consumer.obj
 0002:0000e6bc       $chain$3$?NodeGetWatermarkOffsets@KafkaConsumer@NodeKafka@@CAXAEBV?$FunctionCallbackInfo@VValue@v8@@@Nan@@@Z 00000001800416bc     kafka-consumer.obj
 0002:0000e6d0       $chain$4$?NodeGetWatermarkOffsets@KafkaConsumer@NodeKafka@@CAXAEBV?$FunctionCallbackInfo@VValue@v8@@@Nan@@@Z 00000001800416d0     kafka-consumer.obj
 0002:0000e6e4       $chain$5$?NodeGetWatermarkOffsets@KafkaConsumer@NodeKafka@@CAXAEBV?$FunctionCallbackInfo@VValue@v8@@@Nan@@@Z 00000001800416e4     kafka-consumer.obj
 0002:0000e6f4       $chain$6$?NodeGetWatermarkOffsets@KafkaConsumer@NodeKafka@@CAXAEBV?$FunctionCallbackInfo@VValue@v8@@@Nan@@@Z 00000001800416f4     kafka-consumer.obj
 0002:0000e704       $chain$0$??0?$vector@V?$basic_string@DU?$char_traits@D@std@@V?$allocator@D@2@@std@@V?$allocator@V?$basic_string@DU?$char_traits@D@std@@V?$allocator@D@2@@std@@@2@@std@@QEAA@AEBV01@@Z 0000000180041704     kafka-consumer.obj
 0002:0000e718       $chain$1$??0?$vector@V?$basic_string@DU?$char_traits@D@std@@V?$allocator@D@2@@std@@V?$allocator@V?$basic_string@DU?$char_traits@D@std@@V?$allocator@D@2@@std@@@2@@std@@QEAA@AEBV01@@Z 0000000180041718     kafka-consumer.obj
 0002:0000e728       $unwind$??$_Insert@PEBQEAVTopicPartition@RdKafka@@@?$vector@PEAVTopicPartition@RdKafka@@V?$allocator@PEAVTopicPartition@RdKafka@@@std@@@std@@QEAAXV?$_Vector_const_iterator@V?$_Vector_val@U?$_Simple_types@PEAVTopicPartition@RdKafka@@@std@@@std@@@1@PEBQEAVTopicPartition@RdKafka@@1Uforward_iterator_tag@1@@Z 0000000180041728     kafka-consumer.obj
 0002:0000e738       $chain$0$??$_Insert@PEBQEAVTopicPartition@RdKafka@@@?$vector@PEAVTopicPartition@RdKafka@@V?$allocator@PEAVTopicPartition@RdKafka@@@std@@@std@@QEAAXV?$_Vector_const_iterator@V?$_Vector_val@U?$_Simple_types@PEAVTopicPartition@RdKafka@@@std@@@std@@@1@PEBQEAVTopicPartition@RdKafka@@1Uforward_iterator_tag@1@@Z 0000000180041738     kafka-consumer.obj
 0002:0000e74c       $chain$1$??$_Insert@PEBQEAVTopicPartition@RdKafka@@@?$vector@PEAVTopicPartition@RdKafka@@V?$allocator@PEAVTopicPartition@RdKafka@@@std@@@std@@QEAAXV?$_Vector_const_iterator@V?$_Vector_val@U?$_Simple_types@PEAVTopicPartition@RdKafka@@@std@@@std@@@1@PEBQEAVTopicPartition@RdKafka@@1Uforward_iterator_tag@1@@Z 000000018004174c     kafka-consumer.obj
 0002:0000e760       $chain$2$??$_Insert@PEBQEAVTopicPartition@RdKafka@@@?$vector@PEAVTopicPartition@RdKafka@@V?$allocator@PEAVTopicPartition@RdKafka@@@std@@@std@@QEAAXV?$_Vector_const_iterator@V?$_Vector_val@U?$_Simple_types@PEAVTopicPartition@RdKafka@@@std@@@std@@@1@PEBQEAVTopicPartition@RdKafka@@1Uforward_iterator_tag@1@@Z 0000000180041760     kafka-consumer.obj
 0002:0000e770       $chain$3$??$_Insert@PEBQEAVTopicPartition@RdKafka@@@?$vector@PEAVTopicPartition@RdKafka@@V?$allocator@PEAVTopicPartition@RdKafka@@@std@@@std@@QEAAXV?$_Vector_const_iterator@V?$_Vector_val@U?$_Simple_types@PEAVTopicPartition@RdKafka@@@std@@@std@@@1@PEBQEAVTopicPartition@RdKafka@@1Uforward_iterator_tag@1@@Z 0000000180041770     kafka-consumer.obj
 0002:0000e780       $chain$4$??$_Insert@PEBQEAVTopicPartition@RdKafka@@@?$vector@PEAVTopicPartition@RdKafka@@V?$allocator@PEAVTopicPartition@RdKafka@@@std@@@std@@QEAAXV?$_Vector_const_iterator@V?$_Vector_val@U?$_Simple_types@PEAVTopicPartition@RdKafka@@@std@@@std@@@1@PEBQEAVTopicPartition@RdKafka@@1Uforward_iterator_tag@1@@Z 0000000180041780     kafka-consumer.obj
 0002:0000e794       $chain$5$??$_Insert@PEBQEAVTopicPartition@RdKafka@@@?$vector@PEAVTopicPartition@RdKafka@@V?$allocator@PEAVTopicPartition@RdKafka@@@std@@@std@@QEAAXV?$_Vector_const_iterator@V?$_Vector_val@U?$_Simple_types@PEAVTopicPartition@RdKafka@@@std@@@std@@@1@PEBQEAVTopicPartition@RdKafka@@1Uforward_iterator_tag@1@@Z 0000000180041794     kafka-consumer.obj
 0002:0000e7ac       $unwind$??$_Rotate@PEAPEAVTopicPartition@RdKafka@@_JPEAV12@@std@@YAXPEAPEAVTopicPartition@RdKafka@@00PEA_J0@Z 00000001800417ac     kafka-consumer.obj
 0002:0000e7b8       $chain$0$??$_Rotate@PEAPEAVTopicPartition@RdKafka@@_JPEAV12@@std@@YAXPEAPEAVTopicPartition@RdKafka@@00PEA_J0@Z 00000001800417b8     kafka-consumer.obj
 0002:0000e7cc       $chain$1$??$_Rotate@PEAPEAVTopicPartition@RdKafka@@_JPEAV12@@std@@YAXPEAPEAVTopicPartition@RdKafka@@00PEA_J0@Z 00000001800417cc     kafka-consumer.obj
 0002:0000e7dc       $unwind$??0Producer@NodeKafka@@IEAA@PEAVConf@1@0@Z 00000001800417dc     producer.obj
 0002:0000e7f4       $chain$2$?New@Producer@NodeKafka@@KAXAEBV?$FunctionCallbackInfo@VValue@v8@@@Nan@@@Z 00000001800417f4     producer.obj
 0002:0000e808       $chain$0$?Connect@Producer@NodeKafka@@QEAA?AVBaton@2@XZ 0000000180041808     producer.obj
 0002:0000e81c       $chain$1$?Connect@Producer@NodeKafka@@QEAA?AVBaton@2@XZ 000000018004181c     producer.obj
 0002:0000e82c       $chain$0$?ActivateDispatchers@Producer@NodeKafka@@UEAAXXZ 000000018004182c     producer.obj
 0002:0000e840       $chain$1$?ActivateDispatchers@Producer@NodeKafka@@UEAAXXZ 0000000180041840     producer.obj
 0002:0000e850       $unwind$?Produce@Producer@NodeKafka@@QEAA?AVBaton@2@PEAX_KPEAVTopic@RdKafka@@HPEBX10@Z 0000000180041850     producer.obj
 0002:0000e864       $chain$0$?Produce@Producer@NodeKafka@@QEAA?AVBaton@2@PEAX_KPEAVTopic@RdKafka@@HPEBX10@Z 0000000180041864     producer.obj
 0002:0000e878       $chain$1$?Produce@Producer@NodeKafka@@QEAA?AVBaton@2@PEAX_KPEAVTopic@RdKafka@@HPEBX10@Z 0000000180041878     producer.obj
 0002:0000e888       $unwind$?Produce@Producer@NodeKafka@@QEAA?AVBaton@2@PEAX_KV?$basic_string@DU?$char_traits@D@std@@V?$allocator@D@2@@std@@HPEBX1_J0@Z 0000000180041888     producer.obj
 0002:0000e8a0       $unwind$?NodeProduce@Producer@NodeKafka@@CAXAEBV?$FunctionCallbackInfo@VValue@v8@@@Nan@@@Z 00000001800418a0     producer.obj
 0002:0000e8c4       $chain$1$?NodeProduce@Producer@NodeKafka@@CAXAEBV?$FunctionCallbackInfo@VValue@v8@@@Nan@@@Z 00000001800418c4     producer.obj
 0002:0000e8dc       $chain$2$?NodeProduce@Producer@NodeKafka@@CAXAEBV?$FunctionCallbackInfo@VValue@v8@@@Nan@@@Z 00000001800418dc     producer.obj
 0002:0000e8ec       $unwind$?NodeOnDelivery@Producer@NodeKafka@@CAXAEBV?$FunctionCallbackInfo@VValue@v8@@@Nan@@@Z 00000001800418ec     producer.obj
 0002:0000e8f4       $chain$1$?NodeOnDelivery@Producer@NodeKafka@@CAXAEBV?$FunctionCallbackInfo@VValue@v8@@@Nan@@@Z 00000001800418f4     producer.obj
 0002:0000e90c       $chain$2$?NodeOnDelivery@Producer@NodeKafka@@CAXAEBV?$FunctionCallbackInfo@VValue@v8@@@Nan@@@Z 000000018004190c     producer.obj
 0002:0000e920       $chain$3$?NodeOnDelivery@Producer@NodeKafka@@CAXAEBV?$FunctionCallbackInfo@VValue@v8@@@Nan@@@Z 0000000180041920     producer.obj
 0002:0000e930       $chain$2$?NodeConnect@Producer@NodeKafka@@CAXAEBV?$FunctionCallbackInfo@VValue@v8@@@Nan@@@Z 0000000180041930     producer.obj
 0002:0000e94c       $chain$3$?NodeConnect@Producer@NodeKafka@@CAXAEBV?$FunctionCallbackInfo@VValue@v8@@@Nan@@@Z 000000018004194c     producer.obj
 0002:0000e95c       $chain$0$?Flush@Producer@NodeKafka@@QEAA?AVBaton@2@H@Z 000000018004195c     producer.obj
 0002:0000e970       $chain$2$?Flush@Producer@NodeKafka@@QEAA?AVBaton@2@H@Z 0000000180041970     producer.obj
 0002:0000e984       $chain$3$?Flush@Producer@NodeKafka@@QEAA?AVBaton@2@H@Z 0000000180041984     producer.obj
 0002:0000e994       $chain$2$?NodeFlush@Producer@NodeKafka@@CAXAEBV?$FunctionCallbackInfo@VValue@v8@@@Nan@@@Z 0000000180041994     producer.obj
 0002:0000e9b0       $chain$3$?NodeFlush@Producer@NodeKafka@@CAXAEBV?$FunctionCallbackInfo@VValue@v8@@@Nan@@@Z 00000001800419b0     producer.obj
 0002:0000e9c0       $chain$2$?NodeDisconnect@Producer@NodeKafka@@CAXAEBV?$FunctionCallbackInfo@VValue@v8@@@Nan@@@Z 00000001800419c0     producer.obj
 0002:0000e9dc       $chain$3$?NodeDisconnect@Producer@NodeKafka@@CAXAEBV?$FunctionCallbackInfo@VValue@v8@@@Nan@@@Z 00000001800419dc     producer.obj
 0002:0000e9ec       $unwind$??0Topic@NodeKafka@@AEAA@V?$basic_string@DU?$char_traits@D@std@@V?$allocator@D@2@@std@@PEAVConf@RdKafka@@@Z 00000001800419ec     topic.obj
 0002:0000e9fc       $unwind$?New@Topic@NodeKafka@@KAXAEBV?$FunctionCallbackInfo@VValue@v8@@@Nan@@@Z 00000001800419fc     topic.obj
 0002:0000ea14       $chain$1$?New@Topic@NodeKafka@@KAXAEBV?$FunctionCallbackInfo@VValue@v8@@@Nan@@@Z 0000000180041a14     topic.obj
 0002:0000ea2c       $chain$2$?New@Topic@NodeKafka@@KAXAEBV?$FunctionCallbackInfo@VValue@v8@@@Nan@@@Z 0000000180041a2c     topic.obj
 0002:0000ea2c       $chain$6$?New@Topic@NodeKafka@@KAXAEBV?$FunctionCallbackInfo@VValue@v8@@@Nan@@@Z 0000000180041a2c     topic.obj
 0002:0000ea3c       $chain$3$?New@Topic@NodeKafka@@KAXAEBV?$FunctionCallbackInfo@VValue@v8@@@Nan@@@Z 0000000180041a3c     topic.obj
 0002:0000ea54       $chain$4$?New@Topic@NodeKafka@@KAXAEBV?$FunctionCallbackInfo@VValue@v8@@@Nan@@@Z 0000000180041a54     topic.obj
 0002:0000ea68       $chain$5$?New@Topic@NodeKafka@@KAXAEBV?$FunctionCallbackInfo@VValue@v8@@@Nan@@@Z 0000000180041a68     topic.obj
 0002:0000ea78       $unwind$?NodeGetName@Topic@NodeKafka@@CAXAEBV?$FunctionCallbackInfo@VValue@v8@@@Nan@@@Z 0000000180041a78     topic.obj
 0002:0000ea98       $unwind$??0AsyncWorker@Nan@@QEAA@PEAVCallback@1@@Z 0000000180041a98     workers.obj
 0002:0000eaa4       $unwind$??1AsyncWorker@Nan@@UEAA@XZ 0000000180041aa4     workers.obj
 0002:0000eaa4       $unwind$?WorkComplete@AsyncWorker@Nan@@UEAAXXZ 0000000180041aa4     workers.obj
 0002:0000eab0       $unwind$?HandleErrorCallback@AsyncWorker@Nan@@MEAAXXZ 0000000180041ab0     workers.obj
 0002:0000eab0       $unwind$?HandleOKCallback@ProducerFlush@Workers@NodeKafka@@UEAAXXZ 0000000180041ab0     workers.obj
 0002:0000eab0       $unwind$?HandleErrorCallback@KafkaConsumerConnect@Workers@NodeKafka@@UEAAXXZ 0000000180041ab0     workers.obj
 0002:0000eab0       $unwind$?HandleErrorCallback@ErrorAwareWorker@Workers@NodeKafka@@UEAAXXZ 0000000180041ab0     workers.obj
 0002:0000eab0       $unwind$?HandleErrorCallback@KafkaConsumerConsumeLoop@Workers@NodeKafka@@UEAAXXZ 0000000180041ab0     workers.obj
 0002:0000eac0       $unwind$?SetErrorBaton@ErrorAwareWorker@Workers@NodeKafka@@IEAAXAEBVBaton@3@@Z 0000000180041ac0     workers.obj
 0002:0000ead8       $chain$3$?WorkMessage@MessageWorker@Workers@NodeKafka@@QEAAXXZ 0000000180041ad8     workers.obj
 0002:0000eaf8       $chain$4$?WorkMessage@MessageWorker@Workers@NodeKafka@@QEAAXXZ 0000000180041af8     workers.obj
 0002:0000eb14       $chain$5$?WorkMessage@MessageWorker@Workers@NodeKafka@@QEAAXXZ 0000000180041b14     workers.obj
 0002:0000eb28       $chain$6$?WorkMessage@MessageWorker@Workers@NodeKafka@@QEAAXXZ 0000000180041b28     workers.obj
 0002:0000eb38       $unwind$?Produce_@MessageWorker@Workers@NodeKafka@@AEAAXPEAVMessage@RdKafka@@@Z 0000000180041b38     workers.obj
 0002:0000eb4c       $unwind$??0ConnectionQueryWatermarkOffsets@Workers@NodeKafka@@QEAA@PEAVCallback@Nan@@PEAVConnection@2@V?$basic_string@DU?$char_traits@D@std@@V?$allocator@D@2@@std@@HH@Z 0000000180041b4c     workers.obj
 0002:0000eb4c       $unwind$??0ConnectionMetadata@Workers@NodeKafka@@QEAA@PEAVCallback@Nan@@PEAVConnection@2@V?$basic_string@DU?$char_traits@D@std@@V?$allocator@D@2@@std@@H_N@Z 0000000180041b4c     workers.obj
 0002:0000eb5c       $unwind$?Execute@ConnectionMetadata@Workers@NodeKafka@@UEAAXXZ 0000000180041b5c     workers.obj
 0002:0000eb70       $unwind$?HandleOKCallback@ConnectionMetadata@Workers@NodeKafka@@UEAAXXZ 0000000180041b70     workers.obj
 0002:0000eb84       $unwind$?HandleErrorCallback@ConnectionMetadata@Workers@NodeKafka@@UEAAXXZ 0000000180041b84     workers.obj
 0002:0000eb84       $unwind$?HandleErrorCallback@KafkaConsumerConsumeNum@Workers@NodeKafka@@UEAAXXZ 0000000180041b84     workers.obj
 0002:0000eb84       $unwind$?HandleOKCallback@KafkaConsumerSeek@Workers@NodeKafka@@UEAAXXZ 0000000180041b84     workers.obj
 0002:0000eb84       $unwind$?HandleErrorCallback@KafkaConsumerCommitted@Workers@NodeKafka@@UEAAXXZ 0000000180041b84     workers.obj
 0002:0000eb84       $unwind$?HandleErrorCallback@KafkaConsumerSeek@Workers@NodeKafka@@UEAAXXZ 0000000180041b84     workers.obj
 0002:0000eb84       $unwind$?HandleErrorCallback@ProducerConnect@Workers@NodeKafka@@UEAAXXZ 0000000180041b84     workers.obj
 0002:0000eb84       $unwind$?HandleErrorCallback@KafkaConsumerConsume@Workers@NodeKafka@@UEAAXXZ 0000000180041b84     workers.obj
 0002:0000eb84       $unwind$?HandleErrorCallback@ConnectionQueryWatermarkOffsets@Workers@NodeKafka@@UEAAXXZ 0000000180041b84     workers.obj
 0002:0000eb84       $unwind$?HandleErrorCallback@KafkaConsumerDisconnect@Workers@NodeKafka@@UEAAXXZ 0000000180041b84     workers.obj
 0002:0000eb94       $unwind$?Execute@ConnectionQueryWatermarkOffsets@Workers@NodeKafka@@UEAAXXZ 0000000180041b94     workers.obj
 0002:0000eba8       $unwind$?HandleOKCallback@ConnectionQueryWatermarkOffsets@Workers@NodeKafka@@UEAAXXZ 0000000180041ba8     workers.obj
 0002:0000ebc0       $unwind$?HandleOKCallback@KafkaConsumerConnect@Workers@NodeKafka@@UEAAXXZ 0000000180041bc0     workers.obj
 0002:0000ebc0       $unwind$?HandleOKCallback@ProducerConnect@Workers@NodeKafka@@UEAAXXZ 0000000180041bc0     workers.obj
 0002:0000ebe4       $chain$0$?Execute@ProducerDisconnect@Workers@NodeKafka@@UEAAXXZ 0000000180041be4     workers.obj
 0002:0000ebf8       $chain$1$?Execute@ProducerDisconnect@Workers@NodeKafka@@UEAAXXZ 0000000180041bf8     workers.obj
 0002:0000ec08       $unwind$?HandleOKCallback@ProducerDisconnect@Workers@NodeKafka@@UEAAXXZ 0000000180041c08     workers.obj
 0002:0000ec08       $unwind$?HandleOKCallback@KafkaConsumerCommitted@Workers@NodeKafka@@UEAAXXZ 0000000180041c08     workers.obj
 0002:0000ec08       $unwind$?HandleMessageCallback@KafkaConsumerConsumeLoop@Workers@NodeKafka@@UEAAXPEAVMessage@RdKafka@@@Z 0000000180041c08     workers.obj
 0002:0000ec08       $unwind$?HandleOKCallback@KafkaConsumerDisconnect@Workers@NodeKafka@@UEAAXXZ 0000000180041c08     workers.obj
 0002:0000ec08       $unwind$?HandleOKCallback@KafkaConsumerConsume@Workers@NodeKafka@@UEAAXXZ 0000000180041c08     workers.obj
 0002:0000ec18       $unwind$?Execute@KafkaConsumerConsumeLoop@Workers@NodeKafka@@UEAAXAEBVExecutionMessageBus@MessageWorker@23@@Z 0000000180041c18     workers.obj
 0002:0000ec30       $unwind$?_Xout_of_range@std@@YAXPEBD@Z 0000000180041c30     libcpmt:xthrow.obj
 0002:0000ec30       $unwind$?_Xlength_error@std@@YAXPEBD@Z 0000000180041c30     libcpmt:xthrow.obj
 0002:0000ec30       $unwind$?_Xbad_alloc@std@@YAXXZ 0000000180041c30     libcpmt:xthrow.obj
 0002:0000ec30       $unwind$?HandleOKCallback@KafkaConsumerConsumeLoop@Workers@NodeKafka@@UEAAXXZ 0000000180041c30     workers.obj
 0002:0000ec30       $unwind$_cfltcvt           0000000180041c30     LIBCMT:cvt.obj
 0002:0000ec30       $unwind$__initconout       0000000180041c30     LIBCMT:initcon.obj
 0002:0000ec38       $unwind$?Execute@KafkaConsumerConsumeNum@Workers@NodeKafka@@UEAAXXZ 0000000180041c38     workers.obj
 0002:0000ec50       $chain$0$?Execute@KafkaConsumerConsumeNum@Workers@NodeKafka@@UEAAXXZ 0000000180041c50     workers.obj
 0002:0000ec64       $chain$1$?Execute@KafkaConsumerConsumeNum@Workers@NodeKafka@@UEAAXXZ 0000000180041c64     workers.obj
 0002:0000ec74       $chain$2$?Execute@KafkaConsumerConsumeNum@Workers@NodeKafka@@UEAAXXZ 0000000180041c74     workers.obj
 0002:0000ec88       $unwind$?HandleOKCallback@KafkaConsumerConsumeNum@Workers@NodeKafka@@UEAAXXZ 0000000180041c88     workers.obj
 0002:0000ec98       xdata                      0000000180041c98     node:node.exe
 0002:0000eca0       $unwind$?_Locimp_dtor@_Locimp@locale@std@@CAXPEAV123@@Z 0000000180041ca0     libcpmt:locale0.obj
 0002:0000ecb4       $stateUnwindMap$?_Init@locale@std@@CAPEAV_Locimp@12@_N@Z 0000000180041cb4     libcpmt:locale0.obj
 0002:0000ecb4       $stateUnwindMap$?_Locimp_dtor@_Locimp@locale@std@@CAXPEAV123@@Z 0000000180041cb4     libcpmt:locale0.obj
 0002:0000ecbc       $ip2state$?_Locimp_dtor@_Locimp@locale@std@@CAXPEAV123@@Z 0000000180041cbc     libcpmt:locale0.obj
 0002:0000ecd4       $unwind$?_Init@locale@std@@CAPEAV_Locimp@12@_N@Z 0000000180041cd4     libcpmt:locale0.obj
 0002:0000ece8       $ip2state$?_Init@locale@std@@CAPEAV_Locimp@12@_N@Z 0000000180041ce8     libcpmt:locale0.obj
 0002:0000ed00       $unwind$?init@?$basic_ios@DU?$char_traits@D@std@@@std@@IEAAXPEAV?$basic_streambuf@DU?$char_traits@D@std@@@2@_N@Z 0000000180041d00     libcpmt:cerr.obj
 0002:0000ed18       $stateUnwindMap$?init@?$basic_ios@DU?$char_traits@D@std@@@std@@IEAAXPEAV?$basic_streambuf@DU?$char_traits@D@std@@@2@_N@Z 0000000180041d18     libcpmt:cerr.obj
 0002:0000ed20       $ip2state$?init@?$basic_ios@DU?$char_traits@D@std@@@std@@IEAAXPEAV?$basic_streambuf@DU?$char_traits@D@std@@@2@_N@Z 0000000180041d20     libcpmt:cerr.obj
 0002:0000ed38       $unwind$?xsgetn@?$basic_streambuf@DU?$char_traits@D@std@@@std@@MEAA_JPEAD_J@Z 0000000180041d38     libcpmt:cerr.obj
 0002:0000ed50       $unwind$??0?$basic_ostream@DU?$char_traits@D@std@@@std@@QEAA@PEAV?$basic_streambuf@DU?$char_traits@D@std@@@1@_N@Z 0000000180041d50     libcpmt:cerr.obj
 0002:0000ed60       $stateUnwindMap$??0?$basic_ostream@DU?$char_traits@D@std@@@std@@QEAA@PEAV?$basic_streambuf@DU?$char_traits@D@std@@@1@_N@Z 0000000180041d60     libcpmt:cerr.obj
 0002:0000ed68       $ip2state$??0?$basic_ostream@DU?$char_traits@D@std@@@std@@QEAA@PEAV?$basic_streambuf@DU?$char_traits@D@std@@@1@_N@Z 0000000180041d68     libcpmt:cerr.obj
 0002:0000ed80       $unwind$?overflow@?$basic_filebuf@DU?$char_traits@D@std@@@std@@MEAAHH@Z 0000000180041d80     libcpmt:cerr.obj
 0002:0000eda8       $ip2state$?overflow@?$basic_filebuf@DU?$char_traits@D@std@@@std@@MEAAHH@Z 0000000180041da8     libcpmt:cerr.obj
 0002:0000edc0       $unwind$?uflow@?$basic_filebuf@DU?$char_traits@D@std@@@std@@MEAAHXZ 0000000180041dc0     libcpmt:cerr.obj
 0002:0000ede4       $stateUnwindMap$?overflow@?$basic_filebuf@DU?$char_traits@D@std@@@std@@MEAAHH@Z 0000000180041de4     libcpmt:cerr.obj
 0002:0000ede4       $stateUnwindMap$?uflow@?$basic_filebuf@DU?$char_traits@D@std@@@std@@MEAAHXZ 0000000180041de4     libcpmt:cerr.obj
 0002:0000edec       $ip2state$?uflow@?$basic_filebuf@DU?$char_traits@D@std@@@std@@MEAAHXZ 0000000180041dec     libcpmt:cerr.obj
 0002:0000ee04       $unwind$?seekoff@?$basic_filebuf@DU?$char_traits@D@std@@@std@@MEAA?AV?$fpos@H@2@_JHH@Z 0000000180041e04     libcpmt:cerr.obj
 0002:0000ee18       $unwind$?seekpos@?$basic_filebuf@DU?$char_traits@D@std@@@std@@MEAA?AV?$fpos@H@2@V32@H@Z 0000000180041e18     libcpmt:cerr.obj
 0002:0000ee2c       $unwind$?_Endwrite@?$basic_filebuf@DU?$char_traits@D@std@@@std@@IEAA_NXZ 0000000180041e2c     libcpmt:cerr.obj
 0002:0000ee50       $stateUnwindMap$?_Endwrite@?$basic_filebuf@DU?$char_traits@D@std@@@std@@IEAA_NXZ 0000000180041e50     libcpmt:cerr.obj
 0002:0000ee58       $ip2state$?_Endwrite@?$basic_filebuf@DU?$char_traits@D@std@@@std@@IEAA_NXZ 0000000180041e58     libcpmt:cerr.obj
 0002:0000ee70       $unwind$?_Getcat@?$codecvt@DDH@std@@SA_KPEAPEBVfacet@locale@2@PEBV42@@Z 0000000180041e70     libcpmt:cerr.obj
 0002:0000ee90       $stateUnwindMap$?_Getcat@?$codecvt@DDH@std@@SA_KPEAPEBVfacet@locale@2@PEBV42@@Z 0000000180041e90     libcpmt:cerr.obj
 0002:0000ee98       $ip2state$?_Getcat@?$codecvt@DDH@std@@SA_KPEAPEBVfacet@locale@2@PEBV42@@Z 0000000180041e98     libcpmt:cerr.obj
 0002:0000eeb0       $unwind$??$use_facet@V?$codecvt@DDH@std@@@std@@YAAEBV?$codecvt@DDH@0@AEBVlocale@0@@Z 0000000180041eb0     libcpmt:cerr.obj
 0002:0000eec8       $stateUnwindMap$??$use_facet@V?$codecvt@DDH@std@@@std@@YAAEBV?$codecvt@DDH@0@AEBVlocale@0@@Z 0000000180041ec8     libcpmt:cerr.obj
 0002:0000eed0       $ip2state$??$use_facet@V?$codecvt@DDH@std@@@std@@YAAEBV?$codecvt@DDH@0@AEBVlocale@0@@Z 0000000180041ed0     libcpmt:cerr.obj
 0002:0000eee8       $unwind$_Tolower           0000000180041ee8     libcpmt:_tolower.obj
 0002:0000eef8       $unwind$_Toupper           0000000180041ef8     libcpmt:_toupper.obj
 0002:0000ef10       $xdatasym                  0000000180041f10     LIBCMT:amdsecgs.obj
 0002:0000ef18       $xdatasym                  0000000180041f18     LIBCMT:memcpy.obj
 0002:0000ef1c       $unwind$swprintf           0000000180041f1c     LIBCMT:wassert.obj
 0002:0000ef24       $unwind$_wassert           0000000180041f24     LIBCMT:wassert.obj
 0002:0000ef48       $unwind$_onexit            0000000180041f48     LIBCMT:onexit.obj
 0002:0000ef78       $unwind$_call_reportfault  0000000180041f78     LIBCMT:invarg.obj
 0002:0000ef98       $unwind$_CRT_INIT          0000000180041f98     LIBCMT:dllcrt0.obj
 0002:0000efb8       $unwind$__DllMainCRTStartup 0000000180041fb8     LIBCMT:dllcrt0.obj
 0002:0000efe0       $xdatasym                  0000000180041fe0     LIBCMT:strlen.obj
 0002:0000efe4       $unwind$_CxxThrowException 0000000180041fe4     LIBCMT:throw.obj
 0002:0000eff4       $unwind$?__FrameUnwindToEmptyState@@YAXPEA_KPEAU_xDISPATCHER_CONTEXT@@PEBU_s_FuncInfo@@@Z 0000000180041ff4     LIBCMT:trnsctrl.obj
 0002:0000f008       $unwind$_UnwindNestedFrames 0000000180042008     LIBCMT:trnsctrl.obj
 0002:0000f01c       $unwind$_CallSETranslator  000000018004201c     LIBCMT:trnsctrl.obj
 0002:0000f03c       $unwind$_CallSETranslator$filt$0 000000018004203c     LIBCMT:trnsctrl.obj
 0002:0000f044       $unwind$?_GetRangeOfTrysToCheck@@YAPEBU_s_TryBlockMapEntry@@PEA_KPEBU_s_FuncInfo@@HHPEAI2PEAU_xDISPATCHER_CONTEXT@@@Z 0000000180042044     LIBCMT:trnsctrl.obj
 0002:0000f044       $unwind$TranslateName      0000000180042044     LIBCMT:trnsctrl.obj
 0002:0000f044       $unwind$TranslateName      0000000180042044     LIBCMT:trnsctrl.obj
 0002:0000f044       $unwind$parse_cmdline      0000000180042044     LIBCMT:trnsctrl.obj
 0002:0000f060       $unwind$?_GetEstablisherFrame@@YAPEA_KPEA_KPEAU_xDISPATCHER_CONTEXT@@PEBU_s_FuncInfo@@0@Z 0000000180042060     LIBCMT:trnsctrl.obj
 0002:0000f078       $unwind$__CxxFrameHandler3 0000000180042078     LIBCMT:trnsctrl.obj
 0002:0000f088       $unwind$_wcsicmp_l         0000000180042088     LIBCMT:trnsctrl.obj
 0002:0000f088       $unwind$?__SehTransFilter@@YAHPEAU_EXCEPTION_POINTERS@@PEAUEHExceptionRecord@@PEA_KPEAU_CONTEXT@@PEAU_xDISPATCHER_CONTEXT@@PEBU_s_FuncInfo@@PEAH@Z 0000000180042088     LIBCMT:trnsctrl.obj
 0002:0000f09c       $unwind$?_Copy_str@exception@std@@AEAAXPEBD@Z 000000018004209c     LIBCMT:stdexcpt.obj
 0002:0000f0ac       $unwind$??0bad_typeid@std@@QEAA@PEBD@Z 00000001800420ac     LIBCMT:stdexcpt.obj
 0002:0000f0ac       $unwind$free               00000001800420ac     LIBCMT:stdexcpt.obj
 0002:0000f0ac       $unwind$??0bad_cast@std@@QEAA@PEBD@Z 00000001800420ac     LIBCMT:stdexcpt.obj
 0002:0000f0ac       $unwind$iswctype           00000001800420ac     LIBCMT:stdexcpt.obj
 0002:0000f0ac       $unwind$__free_lconv_num   00000001800420ac     LIBCMT:stdexcpt.obj
 0002:0000f0b4       $unwind$setlocale          00000001800420b4     LIBCMT:setlocal.obj
 0002:0000f0e4       $unwind$fclose             00000001800420e4     LIBCMT:fclose.obj
 0002:0000f108       $unwind$fflush             0000000180042108     LIBCMT:fflush.obj
 0002:0000f12c       $unwind$flsall             000000018004212c     LIBCMT:fflush.obj
 0002:0000f16c       $unwind$fgetc              000000018004216c     LIBCMT:fgetc.obj
 0002:0000f190       $unwind$fputc              0000000180042190     LIBCMT:fputc.obj
 0002:0000f1b8       $unwind$_fseeki64          00000001800421b8     LIBCMT:fseeki64.obj
 0002:0000f1e0       $unwind$fwrite             00000001800421e0     LIBCMT:fwrite.obj
 0002:0000f20c       $unwind$_fwrite_nolock     000000018004220c     LIBCMT:fwrite.obj
 0002:0000f228       $unwind$setvbuf            0000000180042228     LIBCMT:setvbuf.obj
 0002:0000f254       $unwind$ungetc             0000000180042254     LIBCMT:ungetc.obj
 0002:0000f278       $xdatasym                  0000000180042278     LIBCMT:memset.obj
 0002:0000f27c       $unwind$_mtinitlocknum     000000018004227c     LIBCMT:mlock.obj
 0002:0000f2a4       $unwind$__init_ctype       00000001800422a4     LIBCMT:initctyp.obj
 0002:0000f2cc       $unwind$__crtLCMapStringA  00000001800422cc     LIBCMT:a_map.obj
 0002:0000f2dc       $unwind$?__crtLCMapStringA_stat@@YAHPEAUlocaleinfo_struct@@PEB_WKPEBDHPEADHHH@Z 00000001800422dc     LIBCMT:a_map.obj
 0002:0000f304       $unwind$_realloc_crt       0000000180042304     LIBCMT:crtheap.obj
 0002:0000f304       $unwind$__GSHandlerCheck_EH 0000000180042304     LIBCMT:crtheap.obj
 0002:0000f304       $unwind$_calloc_crt        0000000180042304     LIBCMT:crtheap.obj
 0002:0000f304       $unwind$?xsputn@?$basic_streambuf@DU?$char_traits@D@std@@@std@@MEAA_JPEBD_J@Z 0000000180042304     LIBCMT:crtheap.obj
 0002:0000f304       $unwind$_malloc_crt        0000000180042304     LIBCMT:crtheap.obj
 0002:0000f304       $unwind$GetTableIndexFromLocaleName 0000000180042304     LIBCMT:crtheap.obj
 0002:0000f304       $unwind$__TypeMatch        0000000180042304     LIBCMT:crtheap.obj
 0002:0000f320       $xdatasym                  0000000180042320     LIBCMT:strcmp.obj
 0002:0000f324       $unwind$__crtCaptureCurrentContext 0000000180042324     LIBCMT:winapisupp.obj
 0002:0000f330       $unwind$__crtCapturePreviousContext 0000000180042330     LIBCMT:winapisupp.obj
 0002:0000f33c       $unwind$_tolower_l         000000018004233c     LIBCMT:tolower.obj
 0002:0000f350       $xdatasym                  0000000180042350     LIBCMT:memcmp.obj
 0002:0000f354       $unwind$__crtLCMapStringEx 0000000180042354     LIBCMT:winapinls.obj
 0002:0000f364       $unwind$__report_securityfailure 0000000180042364     LIBCMT:gs_report.obj
 0002:0000f36c       $unwind$__isa_available_init 000000018004236c     LIBCMT:cpu_disp.obj
 0002:0000f380       $unwind$doexit             0000000180042380     LIBCMT:crt0dat.obj
 0002:0000f3b0       $unwind$fwprintf           00000001800423b0     LIBCMT:fwprintf.obj
 0002:0000f3d4       $unwind$_vswprintf_helper  00000001800423d4     LIBCMT:vswprnc.obj
 0002:0000f3ec       $unwind$raise              00000001800423ec     LIBCMT:winsig.obj
 0002:0000f41c       $unwind$__crtMessageBoxW   000000018004241c     LIBCMT:crtmboxw.obj
 0002:0000f438       $unwind$_NMSG_WRITE        0000000180042438     LIBCMT:crt0msg.obj
 0002:0000f45c       $unwind$__init_numeric     000000018004245c     LIBCMT:chandler.obj
 0002:0000f45c       $unwind$__C_specific_handler 000000018004245c     LIBCMT:chandler.obj
 0002:0000f478       $unwind$__getlocaleinfo    0000000180042478     LIBCMT:inithelp.obj
 0002:0000f498       $unwind$?_Type_info_dtor@type_info@@CAXPEAV1@@Z 0000000180042498     LIBCMT:typname.obj
 0002:0000f4b8       $unwind$_freefls           00000001800424b8     LIBCMT:tidtable.obj
 0002:0000f4ec       $unwind$_initptd           00000001800424ec     LIBCMT:tidtable.obj
 0002:0000f520       $unwind$_flsbuf            0000000180042520     LIBCMT:_flsbuf.obj
 0002:0000f534       $unwind$__updatetlocinfo   0000000180042534     LIBCMT:localref.obj
 0002:0000f554       $unwind$__updatetmbcinfo   0000000180042554     LIBCMT:mbctype.obj
 0002:0000f578       $unwind$_setmbcp           0000000180042578     LIBCMT:mbctype.obj
 0002:0000f5a8       $unwind$_setmbcp_nolock    00000001800425a8     LIBCMT:mbctype.obj
 0002:0000f5c8       $unwind$?setSBUpLow@@YAXPEAUthreadmbcinfostruct@@@Z 00000001800425c8     LIBCMT:mbctype.obj
 0002:0000f5e4       $unwind$_wsetlocale        00000001800425e4     LIBCMT:wsetloca.obj
 0002:0000f634       $unwind$_locterm           0000000180042634     LIBCMT:wsetloca.obj
 0002:0000f654       $unwind$_expandlocale      0000000180042654     LIBCMT:wsetloca.obj
 0002:0000f674       $unwind$_wcscats           0000000180042674     LIBCMT:wsetloca.obj
 0002:0000f684       $unwind$__lc_wcstolc       0000000180042684     LIBCMT:wsetloca.obj
 0002:0000f69c       $unwind$_wsetlocale_set_cat 000000018004269c     LIBCMT:wsetloca.obj
 0002:0000f6c0       $unwind$_wsetlocale_get_all 00000001800426c0     LIBCMT:wsetloca.obj
 0002:0000f6dc       $unwind$_wsetlocale_nolock 00000001800426dc     LIBCMT:wsetloca.obj
 0002:0000f700       $unwind$_ioinit            0000000180042700     LIBCMT:ioinit.obj
 0002:0000f748       $unwind$__security_init_cookie 0000000180042748     LIBCMT:gs_support.obj
 0002:0000f754       $unwind$__CxxCallCatchBlock 0000000180042754     LIBCMT:frame.obj
 0002:0000f794       $unwind$__CxxCallCatchBlock$filt$0 0000000180042794     LIBCMT:frame.obj
 0002:0000f794       $unwind$_onexit$fin$0      0000000180042794     LIBCMT:frame.obj
 0002:0000f794       $unwind$raise$fin$0        0000000180042794     LIBCMT:frame.obj
 0002:0000f794       $unwind$__FrameUnwindToState$filt$0 0000000180042794     LIBCMT:frame.obj
 0002:0000f794       $unwind$__updatetmbcinfo$fin$0 0000000180042794     LIBCMT:frame.obj
 0002:0000f794       $unwind$_wsetlocale$fin$1  0000000180042794     LIBCMT:frame.obj
 0002:0000f794       $unwind$_wsetlocale$fin$0  0000000180042794     LIBCMT:frame.obj
 0002:0000f794       $unwind$_wsetlocale$fin$2  0000000180042794     LIBCMT:frame.obj
 0002:0000f794       $unwind$setvbuf$fin$0      0000000180042794     LIBCMT:frame.obj
 0002:0000f794       $unwind$__FrameUnwindToState$fin$1 0000000180042794     LIBCMT:frame.obj
 0002:0000f794       $unwind$_locterm$fin$0     0000000180042794     LIBCMT:frame.obj
 0002:0000f794       $unwind$_fseeki64$fin$0    0000000180042794     LIBCMT:frame.obj
 0002:0000f794       $unwind$?fin$0@?0??_Type_info_dtor@type_info@@CAXPEAV1@@Z@4HA 0000000180042794     LIBCMT:frame.obj
 0002:0000f794       $unwind$_lseeki64$fin$0    0000000180042794     LIBCMT:frame.obj
 0002:0000f794       $unwind$__updatetlocinfo$fin$0 0000000180042794     LIBCMT:frame.obj
 0002:0000f794       $unwind$?dtor$0@?0???0?$basic_ostream@DU?$char_traits@D@std@@@std@@QEAA@PEAV?$basic_streambuf@DU?$char_traits@D@std@@@1@_N@Z@4HA 0000000180042794     LIBCMT:frame.obj
 0002:0000f794       $unwind$_setmbcp$fin$0     0000000180042794     LIBCMT:frame.obj
 0002:0000f794       $unwind$fwrite$fin$0       0000000180042794     LIBCMT:frame.obj
 0002:0000f794       $unwind$_ftelli64$fin$0    0000000180042794     LIBCMT:frame.obj
 0002:0000f794       $unwind$_write$fin$0       0000000180042794     LIBCMT:frame.obj
 0002:0000f794       $unwind$_read$fin$0        0000000180042794     LIBCMT:frame.obj
 0002:0000f794       $unwind$fputc$fin$0        0000000180042794     LIBCMT:frame.obj
 0002:0000f794       $unwind$fwprintf$fin$0     0000000180042794     LIBCMT:frame.obj
 0002:0000f794       $unwind$__lock_fhandle$fin$0 0000000180042794     LIBCMT:frame.obj
 0002:0000f794       $unwind$ungetc$fin$0       0000000180042794     LIBCMT:frame.obj
 0002:0000f794       $unwind$flsall$fin$1       0000000180042794     LIBCMT:frame.obj
 0002:0000f794       $unwind$_ioinit$fin$0      0000000180042794     LIBCMT:frame.obj
 0002:0000f794       $unwind$flsall$fin$0       0000000180042794     LIBCMT:frame.obj
 0002:0000f794       $unwind$fflush$fin$0       0000000180042794     LIBCMT:frame.obj
 0002:0000f794       $unwind$doexit$fin$0       0000000180042794     LIBCMT:frame.obj
 0002:0000f794       $unwind$_IsNonwritableInCurrentImage$filt$0 0000000180042794     LIBCMT:frame.obj
 0002:0000f794       $unwind$_mtinitlocknum$fin$0 0000000180042794     LIBCMT:frame.obj
 0002:0000f794       $unwind$__DestructExceptionObject$filt$0 0000000180042794     LIBCMT:frame.obj
 0002:0000f794       $unwind$_initptd$fin$0     0000000180042794     LIBCMT:frame.obj
 0002:0000f794       $unwind$_commit$fin$0      0000000180042794     LIBCMT:frame.obj
 0002:0000f794       $unwind$fgetc$fin$0        0000000180042794     LIBCMT:frame.obj
 0002:0000f794       $unwind$_freefls$fin$0     0000000180042794     LIBCMT:frame.obj
 0002:0000f794       $unwind$_freefls$fin$1     0000000180042794     LIBCMT:frame.obj
 0002:0000f794       $unwind$_close$fin$0       0000000180042794     LIBCMT:frame.obj
 0002:0000f794       $unwind$_initptd$fin$1     0000000180042794     LIBCMT:frame.obj
 0002:0000f794       $unwind$__DllMainCRTStartup$filt$0 0000000180042794     LIBCMT:frame.obj
 0002:0000f794       $unwind$_CRT_INIT$fin$0    0000000180042794     LIBCMT:frame.obj
 0002:0000f794       $unwind$fclose$fin$0       0000000180042794     LIBCMT:frame.obj
 0002:0000f794       $unwind$_fcloseall$fin$0   0000000180042794     LIBCMT:frame.obj
 0002:0000f79c       $unwind$__CxxCallCatchBlock$fin$1 000000018004279c     LIBCMT:frame.obj
 0002:0000f7a8       $unwind$__FrameUnwindToState 00000001800427a8     LIBCMT:frame.obj
 0002:0000f7e4       $unwind$?FindHandler@@YAXPEAUEHExceptionRecord@@PEA_KPEAU_CONTEXT@@PEAU_xDISPATCHER_CONTEXT@@PEBU_s_FuncInfo@@EH1@Z 00000001800427e4     LIBCMT:frame.obj
 0002:0000f800       $unwind$?CatchIt@@YAXPEAUEHExceptionRecord@@PEA_KPEAU_CONTEXT@@PEAU_xDISPATCHER_CONTEXT@@PEBU_s_FuncInfo@@PEBU_s_HandlerType@@PEBU_s_CatchableType@@PEBU_s_TryBlockMapEntry@@H1EE@Z 0000000180042800     LIBCMT:frame.obj
 0002:0000f818       $unwind$__BuildCatchObject 0000000180042818     LIBCMT:frame.obj
 0002:0000f844       $unwind$?FindHandlerForForeignException@@YAXPEAUEHExceptionRecord@@PEA_KPEAU_CONTEXT@@PEAU_xDISPATCHER_CONTEXT@@PEBU_s_FuncInfo@@HH1@Z 0000000180042844     LIBCMT:frame.obj
 0002:0000f85c       $unwind$__DestructExceptionObject 000000018004285c     LIBCMT:frame.obj
 0002:0000f87c       $unwind$?FindSITargetTypeInstance@@YAPEBU_s_RTTIBaseClassDescriptor@@PEBU_s_RTTICompleteObjectLocator@@PEAUTypeDescriptor@@1_K@Z 000000018004287c     LIBCMT:frame.obj
 0002:0000f87c       $unwind$?IsInExceptionSpec@@YAEPEAUEHExceptionRecord@@PEBU_s_ESTypeList@@@Z 000000018004287c     LIBCMT:frame.obj
 0002:0000f898       $unwind$__InternalCxxFrameHandler 0000000180042898     LIBCMT:frame.obj
 0002:0000f8b0       $unwind$__BuildCatchObjectHelper 00000001800428b0     LIBCMT:frame.obj
 0002:0000f8e0       $unwind$?terminate@@YAXXZ  00000001800428e0     LIBCMT:hooks.obj
 0002:0000f900       $unwind$?_inconsistency@@YAXXZ 0000000180042900     LIBCMT:hooks.obj
 0002:0000f920       $unwind$_cftoe2_l          0000000180042920     LIBCMT:cvt.obj
 0002:0000f93c       $unwind$_cftoe_l           000000018004293c     LIBCMT:cvt.obj
 0002:0000f954       $unwind$_cftoa_l           0000000180042954     LIBCMT:cvt.obj
 0002:0000f970       $unwind$__crtGetEnvironmentStringsA 0000000180042970     LIBCMT:cvt.obj
 0002:0000f970       $unwind$_cftof2_l          0000000180042970     LIBCMT:cvt.obj
 0002:0000f970       $unwind$_wcsnicmp_l        0000000180042970     LIBCMT:cvt.obj
 0002:0000f988       $unwind$_cftof_l           0000000180042988     LIBCMT:cvt.obj
 0002:0000f9a0       $unwind$_cftog_l           00000001800429a0     LIBCMT:cvt.obj
 0002:0000f9b8       $unwind$_mbstowcs_s_l      00000001800429b8     LIBCMT:mbstowcs.obj
 0002:0000f9d0       $unwind$_mbstowcs_l_helper 00000001800429d0     LIBCMT:mbstowcs.obj
 0002:0000f9ec       $unwind$_wcstombs_s_l      00000001800429ec     LIBCMT:wcstombs.obj
 0002:0000fa00       $unwind$_wcstombs_l_helper 0000000180042a00     LIBCMT:wcstombs.obj
 0002:0000fa20       $unwind$_fcloseall         0000000180042a20     LIBCMT:closeall.obj
 0002:0000fa48       $unwind$_close             0000000180042a48     LIBCMT:close.obj
 0002:0000fa70       $unwind$_commit            0000000180042a70     LIBCMT:commit.obj
 0002:0000fa98       $unwind$_write             0000000180042a98     LIBCMT:write.obj
 0002:0000fac4       $unwind$_write_nolock      0000000180042ac4     LIBCMT:write.obj
 0002:0000fae8       $unwind$_ftelli64          0000000180042ae8     LIBCMT:ftelli64.obj
 0002:0000fb0c       $unwind$_ftelli64_nolock   0000000180042b0c     LIBCMT:ftelli64.obj
 0002:0000fb34       $unwind$_lseeki64          0000000180042b34     LIBCMT:lseeki64.obj
 0002:0000fb60       $unwind$_isctype_l         0000000180042b60     LIBCMT:isctype.obj
 0002:0000fb70       $unwind$__crtGetStringTypeA 0000000180042b70     LIBCMT:a_str.obj
 0002:0000fb80       $unwind$?__crtGetStringTypeA_stat@@YAHPEAUlocaleinfo_struct@@KPEBDHPEAGHH@Z 0000000180042b80     LIBCMT:a_str.obj
 0002:0000fba8       $xdatasym                  0000000180042ba8     LIBCMT:chkstk.obj
 0002:0000fbb0       $unwind$_IsNonwritableInCurrentImage 0000000180042bb0     LIBCMT:pesect.obj
 0002:0000fbd4       $unwind$_stbuf             0000000180042bd4     LIBCMT:_sftbuf.obj
 0002:0000fbd4       $unwind$_free_osfhnd       0000000180042bd4     LIBCMT:_sftbuf.obj
 0002:0000fbe4       $unwind$_ftbuf             0000000180042be4     LIBCMT:_sftbuf.obj
 0002:0000fbec       $unwind$_woutput_l         0000000180042bec     LIBCMT:woutput.obj
 0002:0000fc10       $unwind$write_multi_char   0000000180042c10     LIBCMT:woutput.obj
 0002:0000fc24       $unwind$write_string       0000000180042c24     LIBCMT:woutput.obj
 0002:0000fc40       $xdatasym                  0000000180042c40     LIBCMT:jmpuwind.obj
 0002:0000fc54       $unwind$?__crtGetLocaleInfoA_stat@@YAHPEAUlocaleinfo_struct@@PEB_WKPEADH@Z 0000000180042c54     LIBCMT:a_loc.obj
 0002:0000fc80       $xdatasym                  0000000180042c80     LIBCMT:fpsr.obj
 0002:0000fc88       $unwind$_wctomb_s_l        0000000180042c88     LIBCMT:wctomb.obj
 0002:0000fc98       $unwind$__init_monetary    0000000180042c98     LIBCMT:initmon.obj
 0002:0000fcb4       $unwind$__free_lc_time     0000000180042cb4     LIBCMT:initmon.obj
 0002:0000fcb4       $unwind$__free_lconv_mon   0000000180042cb4     LIBCMT:initmon.obj
 0002:0000fcbc       $unwind$__init_time        0000000180042cbc     LIBCMT:inittime.obj
 0002:0000fccc       $unwind$_get_lc_time       0000000180042ccc     LIBCMT:inittime.obj
 0002:0000fce4       $unwind$__get_qualified_locale 0000000180042ce4     LIBCMT:getqloc.obj
 0002:0000fd04       $unwind$LangCountryEnumProcEx 0000000180042d04     LIBCMT:getqloc.obj
 0002:0000fd24       $unwind$LanguageEnumProcEx 0000000180042d24     LIBCMT:getqloc.obj
 0002:0000fd3c       $unwind$TestDefaultCountry 0000000180042d3c     LIBCMT:getqloc.obj
 0002:0000fd50       $unwind$__get_qualified_locale_downlevel 0000000180042d50     LIBCMT:getqloc_downlevel.obj
 0002:0000fd6c       $unwind$LangCountryEnumProc 0000000180042d6c     LIBCMT:getqloc_downlevel.obj
 0002:0000fd8c       $unwind$LanguageEnumProc   0000000180042d8c     LIBCMT:getqloc_downlevel.obj
 0002:0000fda8       $unwind$CountryEnumProc    0000000180042da8     LIBCMT:getqloc_downlevel.obj
 0002:0000fdc8       $unwind$TestDefaultLanguage 0000000180042dc8     LIBCMT:getqloc_downlevel.obj
 0002:0000fde0       $xdatasym                  0000000180042de0     LIBCMT:handlers.obj
 0002:0000fde8       $unwind$_atodbl_l          0000000180042de8     LIBCMT:atodbl.obj
 0002:0000fdfc       $unwind$__crt_atoflt_l     0000000180042dfc     LIBCMT:atodbl.obj
 0002:0000fe10       $unwind$_fltout2           0000000180042e10     LIBCMT:cfout.obj
 0002:0000fe28       $unwind$__dtold            0000000180042e28     LIBCMT:cfout.obj
 0002:0000fe30       $unwind$__lock_fhandle     0000000180042e30     LIBCMT:osfinfo.obj
 0002:0000fe5c       $unwind$_mbtowc_l          0000000180042e5c     LIBCMT:mbtowc.obj
 0002:0000fe74       $unwind$_putwch_nolock     0000000180042e74     LIBCMT:putwch.obj
 0002:0000fe74       $unwind$__report_gsfailure 0000000180042e74     LIBCMT:putwch.obj
 0002:0000fe7c       $unwind$_read              0000000180042e7c     LIBCMT:read.obj
 0002:0000feac       $unwind$_read_nolock       0000000180042eac     LIBCMT:read.obj
 0002:0000fec4       $unwind$_towlower_l        0000000180042ec4     LIBCMT:towlower.obj
 0002:0000fed0       $unwind$_fputwc_nolock     0000000180042ed0     LIBCMT:fputwc.obj
 0002:0000feec       $unwind$?wcstoxl@@YAKPEB_WPEAPEB_WHH@Z 0000000180042eec     LIBCMT:wcstol.obj
 0002:0000ff04       $unwind$wcschr             0000000180042f04     LIBCMT:wcschr.obj
 0002:0000ff04       $unwind$strrchr            0000000180042f04     LIBCMT:wcschr.obj
 0002:0000ff0c       $unwind$_ld12tof           0000000180042f0c     LIBCMT:intrncvt.obj
 0002:0000ff0c       $unwind$_ld12tod           0000000180042f0c     LIBCMT:intrncvt.obj
 0002:0000ff30       $unwind$__strgtold12_l     0000000180042f30     LIBCMT:strgtold.obj
 0002:0000ff54       $unwind$$I10_OUTPUT        0000000180042f54     LIBCMT:x10fout.obj
 0002:0000ff78       $unwind$_flswbuf           0000000180042f78     LIBCMT:_flswbuf.obj
